Archive member included to satisfy reference by file (symbol)

c:/ncs/v1.7.1/toolchain/opt/bin/../lib/gcc/arm-none-eabi/9.2.1/../../../../arm-none-eabi/lib/thumb/v7e-m+fp/hard\libc_nano.a(lib_a-exit.o)
                              c:/ncs/v1.7.1/toolchain/opt/bin/../lib/gcc/arm-none-eabi/9.2.1/../../../../arm-none-eabi/lib/thumb/v7e-m+fp/hard/crt0.o (exit)
c:/ncs/v1.7.1/toolchain/opt/bin/../lib/gcc/arm-none-eabi/9.2.1/../../../../arm-none-eabi/lib/thumb/v7e-m+fp/hard\libc_nano.a(lib_a-impure.o)
                              c:/ncs/v1.7.1/toolchain/opt/bin/../lib/gcc/arm-none-eabi/9.2.1/../../../../arm-none-eabi/lib/thumb/v7e-m+fp/hard\libc_nano.a(lib_a-exit.o) (_global_impure_ptr)
c:/ncs/v1.7.1/toolchain/opt/bin/../lib/gcc/arm-none-eabi/9.2.1/../../../../arm-none-eabi/lib/thumb/v7e-m+fp/hard\libc_nano.a(lib_a-init.o)
                              c:/ncs/v1.7.1/toolchain/opt/bin/../lib/gcc/arm-none-eabi/9.2.1/../../../../arm-none-eabi/lib/thumb/v7e-m+fp/hard/crt0.o (__libc_init_array)
c:/ncs/v1.7.1/toolchain/opt/bin/../lib/gcc/arm-none-eabi/9.2.1/../../../../arm-none-eabi/lib/thumb/v7e-m+fp/hard\libc_nano.a(lib_a-memset.o)
                              c:/ncs/v1.7.1/toolchain/opt/bin/../lib/gcc/arm-none-eabi/9.2.1/../../../../arm-none-eabi/lib/thumb/v7e-m+fp/hard/crt0.o (memset)
c:/ncs/v1.7.1/toolchain/opt/bin/../lib/gcc/arm-none-eabi/9.2.1/../../../../arm-none-eabi/lib/thumb/v7e-m+fp/hard\libc_nano.a(lib_a-sprintf.o)
                              build/main.o (sprintf)
c:/ncs/v1.7.1/toolchain/opt/bin/../lib/gcc/arm-none-eabi/9.2.1/../../../../arm-none-eabi/lib/thumb/v7e-m+fp/hard\libc_nano.a(lib_a-strcat.o)
                              build/main.o (strcat)
c:/ncs/v1.7.1/toolchain/opt/bin/../lib/gcc/arm-none-eabi/9.2.1/../../../../arm-none-eabi/lib/thumb/v7e-m+fp/hard\libc_nano.a(lib_a-strlen.o)
                              build/main.o (strlen)
c:/ncs/v1.7.1/toolchain/opt/bin/../lib/gcc/arm-none-eabi/9.2.1/../../../../arm-none-eabi/lib/thumb/v7e-m+fp/hard\libc_nano.a(lib_a-strncpy.o)
                              build/main.o (strncpy)
c:/ncs/v1.7.1/toolchain/opt/bin/../lib/gcc/arm-none-eabi/9.2.1/../../../../arm-none-eabi/lib/thumb/v7e-m+fp/hard\libc_nano.a(lib_a-vsnprintf.o)
                              build/main.o (vsnprintf)
c:/ncs/v1.7.1/toolchain/opt/bin/../lib/gcc/arm-none-eabi/9.2.1/../../../../arm-none-eabi/lib/thumb/v7e-m+fp/hard\libc_nano.a(lib_a-nano-svfprintf.o)
                              c:/ncs/v1.7.1/toolchain/opt/bin/../lib/gcc/arm-none-eabi/9.2.1/../../../../arm-none-eabi/lib/thumb/v7e-m+fp/hard\libc_nano.a(lib_a-sprintf.o) (_svfprintf_r)
c:/ncs/v1.7.1/toolchain/opt/bin/../lib/gcc/arm-none-eabi/9.2.1/../../../../arm-none-eabi/lib/thumb/v7e-m+fp/hard\libc_nano.a(lib_a-nano-vfprintf_i.o)
                              c:/ncs/v1.7.1/toolchain/opt/bin/../lib/gcc/arm-none-eabi/9.2.1/../../../../arm-none-eabi/lib/thumb/v7e-m+fp/hard\libc_nano.a(lib_a-nano-svfprintf.o) (_printf_i)
c:/ncs/v1.7.1/toolchain/opt/bin/../lib/gcc/arm-none-eabi/9.2.1/../../../../arm-none-eabi/lib/thumb/v7e-m+fp/hard\libc_nano.a(lib_a-memchr.o)
                              c:/ncs/v1.7.1/toolchain/opt/bin/../lib/gcc/arm-none-eabi/9.2.1/../../../../arm-none-eabi/lib/thumb/v7e-m+fp/hard\libc_nano.a(lib_a-nano-svfprintf.o) (memchr)
c:/ncs/v1.7.1/toolchain/opt/bin/../lib/gcc/arm-none-eabi/9.2.1/../../../../arm-none-eabi/lib/thumb/v7e-m+fp/hard\libc_nano.a(lib_a-memcpy-stub.o)
                              c:/ncs/v1.7.1/toolchain/opt/bin/../lib/gcc/arm-none-eabi/9.2.1/../../../../arm-none-eabi/lib/thumb/v7e-m+fp/hard\libc_nano.a(lib_a-nano-svfprintf.o) (memcpy)
c:/ncs/v1.7.1/toolchain/opt/bin/../lib/gcc/arm-none-eabi/9.2.1/../../../../arm-none-eabi/lib/thumb/v7e-m+fp/hard\libc_nano.a(lib_a-memmove.o)
                              c:/ncs/v1.7.1/toolchain/opt/bin/../lib/gcc/arm-none-eabi/9.2.1/../../../../arm-none-eabi/lib/thumb/v7e-m+fp/hard\libc_nano.a(lib_a-nano-svfprintf.o) (memmove)
c:/ncs/v1.7.1/toolchain/opt/bin/../lib/gcc/arm-none-eabi/9.2.1/../../../../arm-none-eabi/lib/thumb/v7e-m+fp/hard\libc_nano.a(lib_a-nano-freer.o)
                              c:/ncs/v1.7.1/toolchain/opt/bin/../lib/gcc/arm-none-eabi/9.2.1/../../../../arm-none-eabi/lib/thumb/v7e-m+fp/hard\libc_nano.a(lib_a-nano-svfprintf.o) (_free_r)
c:/ncs/v1.7.1/toolchain/opt/bin/../lib/gcc/arm-none-eabi/9.2.1/../../../../arm-none-eabi/lib/thumb/v7e-m+fp/hard\libc_nano.a(lib_a-nano-mallocr.o)
                              c:/ncs/v1.7.1/toolchain/opt/bin/../lib/gcc/arm-none-eabi/9.2.1/../../../../arm-none-eabi/lib/thumb/v7e-m+fp/hard\libc_nano.a(lib_a-nano-svfprintf.o) (_malloc_r)
c:/ncs/v1.7.1/toolchain/opt/bin/../lib/gcc/arm-none-eabi/9.2.1/../../../../arm-none-eabi/lib/thumb/v7e-m+fp/hard\libc_nano.a(lib_a-nano-reallocr.o)
                              c:/ncs/v1.7.1/toolchain/opt/bin/../lib/gcc/arm-none-eabi/9.2.1/../../../../arm-none-eabi/lib/thumb/v7e-m+fp/hard\libc_nano.a(lib_a-nano-svfprintf.o) (_realloc_r)
c:/ncs/v1.7.1/toolchain/opt/bin/../lib/gcc/arm-none-eabi/9.2.1/../../../../arm-none-eabi/lib/thumb/v7e-m+fp/hard\libc_nano.a(lib_a-sbrkr.o)
                              c:/ncs/v1.7.1/toolchain/opt/bin/../lib/gcc/arm-none-eabi/9.2.1/../../../../arm-none-eabi/lib/thumb/v7e-m+fp/hard\libc_nano.a(lib_a-nano-mallocr.o) (_sbrk_r)
c:/ncs/v1.7.1/toolchain/opt/bin/../lib/gcc/arm-none-eabi/9.2.1/../../../../arm-none-eabi/lib/thumb/v7e-m+fp/hard\libc_nano.a(lib_a-mlock.o)
                              c:/ncs/v1.7.1/toolchain/opt/bin/../lib/gcc/arm-none-eabi/9.2.1/../../../../arm-none-eabi/lib/thumb/v7e-m+fp/hard\libc_nano.a(lib_a-nano-freer.o) (__malloc_lock)
c:/ncs/v1.7.1/toolchain/opt/bin/../lib/gcc/arm-none-eabi/9.2.1/../../../../arm-none-eabi/lib/thumb/v7e-m+fp/hard\libc_nano.a(lib_a-nano-msizer.o)
                              c:/ncs/v1.7.1/toolchain/opt/bin/../lib/gcc/arm-none-eabi/9.2.1/../../../../arm-none-eabi/lib/thumb/v7e-m+fp/hard\libc_nano.a(lib_a-nano-reallocr.o) (_malloc_usable_size_r)
c:/ncs/v1.7.1/toolchain/opt/bin/../lib/gcc/arm-none-eabi/9.2.1/../../../../arm-none-eabi/lib/thumb/v7e-m+fp/hard\libc_nano.a(lib_a-reent.o)
                              c:/ncs/v1.7.1/toolchain/opt/bin/../lib/gcc/arm-none-eabi/9.2.1/../../../../arm-none-eabi/lib/thumb/v7e-m+fp/hard\libc_nano.a(lib_a-sbrkr.o) (errno)
c:/ncs/v1.7.1/toolchain/opt/bin/../lib/gcc/arm-none-eabi/9.2.1/../../../../arm-none-eabi/lib/thumb/v7e-m+fp/hard\libc_nano.a(lib_a-lock.o)
                              c:/ncs/v1.7.1/toolchain/opt/bin/../lib/gcc/arm-none-eabi/9.2.1/../../../../arm-none-eabi/lib/thumb/v7e-m+fp/hard\libc_nano.a(lib_a-mlock.o) (__retarget_lock_acquire_recursive)
c:/ncs/v1.7.1/toolchain/opt/bin/../lib/gcc/arm-none-eabi/9.2.1/../../../../arm-none-eabi/lib/thumb/v7e-m+fp/hard\libnosys.a(sbrk.o)
                              c:/ncs/v1.7.1/toolchain/opt/bin/../lib/gcc/arm-none-eabi/9.2.1/../../../../arm-none-eabi/lib/thumb/v7e-m+fp/hard\libc_nano.a(lib_a-sbrkr.o) (_sbrk)
c:/ncs/v1.7.1/toolchain/opt/bin/../lib/gcc/arm-none-eabi/9.2.1/../../../../arm-none-eabi/lib/thumb/v7e-m+fp/hard\libnosys.a(_exit.o)
                              c:/ncs/v1.7.1/toolchain/opt/bin/../lib/gcc/arm-none-eabi/9.2.1/../../../../arm-none-eabi/lib/thumb/v7e-m+fp/hard\libc_nano.a(lib_a-exit.o) (_exit)
c:/ncs/v1.7.1/toolchain/opt/bin/../lib/gcc/arm-none-eabi/9.2.1/thumb/v7e-m+fp/hard\libgcc.a(_aeabi_uldivmod.o)
                              build/stm32l4xx_hal_uart.o (__aeabi_uldivmod)
c:/ncs/v1.7.1/toolchain/opt/bin/../lib/gcc/arm-none-eabi/9.2.1/thumb/v7e-m+fp/hard\libgcc.a(_udivmoddi4.o)
                              c:/ncs/v1.7.1/toolchain/opt/bin/../lib/gcc/arm-none-eabi/9.2.1/thumb/v7e-m+fp/hard\libgcc.a(_aeabi_uldivmod.o) (__udivmoddi4)
c:/ncs/v1.7.1/toolchain/opt/bin/../lib/gcc/arm-none-eabi/9.2.1/thumb/v7e-m+fp/hard\libgcc.a(_dvmd_tls.o)
                              c:/ncs/v1.7.1/toolchain/opt/bin/../lib/gcc/arm-none-eabi/9.2.1/thumb/v7e-m+fp/hard\libgcc.a(_aeabi_uldivmod.o) (__aeabi_ldiv0)

Allocating common symbols
Common symbol       size              file

USERPath            0x4               build/fatfs.o
hUsbDeviceFS        0x2d0             build/usb_device.o
__lock___atexit_recursive_mutex
                    0x1               c:/ncs/v1.7.1/toolchain/opt/bin/../lib/gcc/arm-none-eabi/9.2.1/../../../../arm-none-eabi/lib/thumb/v7e-m+fp/hard\libc_nano.a(lib_a-lock.o)
spi_fram            0x1               build/SPI_FRAM.o
__lock___arc4random_mutex
                    0x1               c:/ncs/v1.7.1/toolchain/opt/bin/../lib/gcc/arm-none-eabi/9.2.1/../../../../arm-none-eabi/lib/thumb/v7e-m+fp/hard\libc_nano.a(lib_a-lock.o)
hspi2               0x64              build/main.o
errno               0x4               c:/ncs/v1.7.1/toolchain/opt/bin/../lib/gcc/arm-none-eabi/9.2.1/../../../../arm-none-eabi/lib/thumb/v7e-m+fp/hard\libc_nano.a(lib_a-reent.o)
FatFs               0x230             build/main.o
hcrc                0x24              build/main.o
newFile             0x230             build/main.o
spiTimerTickStart   0x4               build/user_diskio_spi.o
USBFatFs            0x230             build/usbd_storage_if.o
Rx_data             0x1000            build/main.o
uwTick              0x4               build/stm32l4xx_hal.o
__lock___env_recursive_mutex
                    0x1               c:/ncs/v1.7.1/toolchain/opt/bin/../lib/gcc/arm-none-eabi/9.2.1/../../../../arm-none-eabi/lib/thumb/v7e-m+fp/hard\libc_nano.a(lib_a-lock.o)
getFreeFs           0x4               build/usbd_storage_if.o
__lock___sinit_recursive_mutex
                    0x1               c:/ncs/v1.7.1/toolchain/opt/bin/../lib/gcc/arm-none-eabi/9.2.1/../../../../arm-none-eabi/lib/thumb/v7e-m+fp/hard\libc_nano.a(lib_a-lock.o)
wakeup              0x8               build/main.o
USBFile             0x230             build/usbd_storage_if.o
__lock___malloc_recursive_mutex
                    0x1               c:/ncs/v1.7.1/toolchain/opt/bin/../lib/gcc/arm-none-eabi/9.2.1/../../../../arm-none-eabi/lib/thumb/v7e-m+fp/hard\libc_nano.a(lib_a-lock.o)
free_sectors        0x4               build/usbd_storage_if.o
spiTimerTickDelay   0x4               build/user_diskio_spi.o
retUSER             0x1               build/fatfs.o
USBPATH             0x4               build/usbd_storage_if.o
FATPATH             0x4               build/main.o
hspi1               0x64              build/main.o
huart2              0x84              build/main.o
Rx_back_up          0x1000            build/main.o
__lock___at_quick_exit_mutex
                    0x1               c:/ncs/v1.7.1/toolchain/opt/bin/../lib/gcc/arm-none-eabi/9.2.1/../../../../arm-none-eabi/lib/thumb/v7e-m+fp/hard\libc_nano.a(lib_a-lock.o)
fres                0x1               build/main.o
hpcd_USB_FS         0x2fc             build/usbd_conf.o
USBD_StrDesc        0x200             build/usbd_desc.o
__lock___dd_hash_mutex
                    0x1               c:/ncs/v1.7.1/toolchain/opt/bin/../lib/gcc/arm-none-eabi/9.2.1/../../../../arm-none-eabi/lib/thumb/v7e-m+fp/hard\libc_nano.a(lib_a-lock.o)
__lock___tz_mutex   0x1               c:/ncs/v1.7.1/toolchain/opt/bin/../lib/gcc/arm-none-eabi/9.2.1/../../../../arm-none-eabi/lib/thumb/v7e-m+fp/hard\libc_nano.a(lib_a-lock.o)
fil                 0x230             build/main.o
free_clusters       0x4               build/usbd_storage_if.o
USERFile            0x230             build/fatfs.o
total_sectors       0x4               build/usbd_storage_if.o
USERFatFS           0x230             build/fatfs.o
workingFile         0x230             build/main.o
__lock___sfp_recursive_mutex
                    0x1               c:/ncs/v1.7.1/toolchain/opt/bin/../lib/gcc/arm-none-eabi/9.2.1/../../../../arm-none-eabi/lib/thumb/v7e-m+fp/hard\libc_nano.a(lib_a-lock.o)

Discarded input sections

 .text          0x00000000        0x0 c:/ncs/v1.7.1/toolchain/opt/bin/../lib/gcc/arm-none-eabi/9.2.1/thumb/v7e-m+fp/hard/crti.o
 .data          0x00000000        0x0 c:/ncs/v1.7.1/toolchain/opt/bin/../lib/gcc/arm-none-eabi/9.2.1/thumb/v7e-m+fp/hard/crti.o
 .bss           0x00000000        0x0 c:/ncs/v1.7.1/toolchain/opt/bin/../lib/gcc/arm-none-eabi/9.2.1/thumb/v7e-m+fp/hard/crti.o
 .data          0x00000000        0x4 c:/ncs/v1.7.1/toolchain/opt/bin/../lib/gcc/arm-none-eabi/9.2.1/thumb/v7e-m+fp/hard/crtbegin.o
 .text          0x00000000       0x74 c:/ncs/v1.7.1/toolchain/opt/bin/../lib/gcc/arm-none-eabi/9.2.1/../../../../arm-none-eabi/lib/thumb/v7e-m+fp/hard/crt0.o
 .data          0x00000000        0x0 c:/ncs/v1.7.1/toolchain/opt/bin/../lib/gcc/arm-none-eabi/9.2.1/../../../../arm-none-eabi/lib/thumb/v7e-m+fp/hard/crt0.o
 .bss           0x00000000        0x0 c:/ncs/v1.7.1/toolchain/opt/bin/../lib/gcc/arm-none-eabi/9.2.1/../../../../arm-none-eabi/lib/thumb/v7e-m+fp/hard/crt0.o
 .ARM.extab     0x00000000        0x0 c:/ncs/v1.7.1/toolchain/opt/bin/../lib/gcc/arm-none-eabi/9.2.1/../../../../arm-none-eabi/lib/thumb/v7e-m+fp/hard/crt0.o
 .ARM.exidx     0x00000000        0x8 c:/ncs/v1.7.1/toolchain/opt/bin/../lib/gcc/arm-none-eabi/9.2.1/../../../../arm-none-eabi/lib/thumb/v7e-m+fp/hard/crt0.o
 .ARM.attributes
                0x00000000       0x1c c:/ncs/v1.7.1/toolchain/opt/bin/../lib/gcc/arm-none-eabi/9.2.1/../../../../arm-none-eabi/lib/thumb/v7e-m+fp/hard/crt0.o
 .text          0x00000000        0x0 build/main.o
 .data          0x00000000        0x0 build/main.o
 .bss           0x00000000        0x0 build/main.o
 .text.SD_error
                0x00000000       0xac build/main.o
 .bss.BUFFER_NEAR_FULL_
                0x00000000        0x1 build/main.o
 .text          0x00000000        0x0 build/stm32l4xx_it.o
 .data          0x00000000        0x0 build/stm32l4xx_it.o
 .bss           0x00000000        0x0 build/stm32l4xx_it.o
 .text          0x00000000        0x0 build/stm32l4xx_hal_msp.o
 .data          0x00000000        0x0 build/stm32l4xx_hal_msp.o
 .bss           0x00000000        0x0 build/stm32l4xx_hal_msp.o
 .text.HAL_CRC_MspDeInit
                0x00000000       0x20 build/stm32l4xx_hal_msp.o
 .text.HAL_UART_MspDeInit
                0x00000000       0x30 build/stm32l4xx_hal_msp.o
 .text          0x00000000        0x0 build/user_diskio.o
 .data          0x00000000        0x0 build/user_diskio.o
 .bss           0x00000000        0x0 build/user_diskio.o
 .data.Stat     0x00000000        0x1 build/user_diskio.o
 .text          0x00000000        0x0 build/user_diskio_spi.o
 .data          0x00000000        0x0 build/user_diskio_spi.o
 .bss           0x00000000        0x0 build/user_diskio_spi.o
 .text          0x00000000        0x0 build/fatfs.o
 .data          0x00000000        0x0 build/fatfs.o
 .bss           0x00000000        0x0 build/fatfs.o
 .text          0x00000000        0x0 build/stm32l4xx_hal.o
 .data          0x00000000        0x0 build/stm32l4xx_hal.o
 .bss           0x00000000        0x0 build/stm32l4xx_hal.o
 .text.HAL_MspInit
                0x00000000        0x2 build/stm32l4xx_hal.o
 .text.HAL_MspDeInit
                0x00000000        0x2 build/stm32l4xx_hal.o
 .text.HAL_DeInit
                0x00000000       0x30 build/stm32l4xx_hal.o
 .text.HAL_GetTickPrio
                0x00000000        0xc build/stm32l4xx_hal.o
 .text.HAL_SetTickFreq
                0x00000000       0x2c build/stm32l4xx_hal.o
 .text.HAL_GetTickFreq
                0x00000000        0xc build/stm32l4xx_hal.o
 .text.HAL_GetHalVersion
                0x00000000        0x8 build/stm32l4xx_hal.o
 .text.HAL_GetREVID
                0x00000000        0xc build/stm32l4xx_hal.o
 .text.HAL_GetDEVID
                0x00000000       0x10 build/stm32l4xx_hal.o
 .text.HAL_GetUIDw0
                0x00000000        0xc build/stm32l4xx_hal.o
 .text.HAL_GetUIDw1
                0x00000000        0xc build/stm32l4xx_hal.o
 .text.HAL_GetUIDw2
                0x00000000        0xc build/stm32l4xx_hal.o
 .text.HAL_DBGMCU_EnableDBGSleepMode
                0x00000000       0x10 build/stm32l4xx_hal.o
 .text.HAL_DBGMCU_EnableDBGStopMode
                0x00000000       0x10 build/stm32l4xx_hal.o
 .text.HAL_DBGMCU_EnableDBGStandbyMode
                0x00000000       0x10 build/stm32l4xx_hal.o
 .text.HAL_SYSCFG_SRAM2Erase
                0x00000000       0x1c build/stm32l4xx_hal.o
 .text.HAL_SYSCFG_EnableMemorySwappingBank
                0x00000000        0xc build/stm32l4xx_hal.o
 .text.HAL_SYSCFG_DisableMemorySwappingBank
                0x00000000        0xc build/stm32l4xx_hal.o
 .text.HAL_SYSCFG_EnableIOAnalogSwitchBooster
                0x00000000       0x10 build/stm32l4xx_hal.o
 .text.HAL_SYSCFG_DisableIOAnalogSwitchBooster
                0x00000000       0x10 build/stm32l4xx_hal.o
 .text          0x00000000        0x0 build/stm32l4xx_hal_i2c.o
 .data          0x00000000        0x0 build/stm32l4xx_hal_i2c.o
 .bss           0x00000000        0x0 build/stm32l4xx_hal_i2c.o
 .text.I2C_Flush_TXDR
                0x00000000       0x22 build/stm32l4xx_hal_i2c.o
 .text.I2C_TransferConfig
                0x00000000       0x3c build/stm32l4xx_hal_i2c.o
 .text.I2C_Enable_IRQ
                0x00000000       0x80 build/stm32l4xx_hal_i2c.o
 .text.I2C_Disable_IRQ
                0x00000000       0xac build/stm32l4xx_hal_i2c.o
 .text.I2C_ConvertOtherXferOptions
                0x00000000       0x1e build/stm32l4xx_hal_i2c.o
 .text.I2C_IsErrorOccurred
                0x00000000      0x12c build/stm32l4xx_hal_i2c.o
 .text.I2C_WaitOnTXISFlagUntilTimeout
                0x00000000       0x56 build/stm32l4xx_hal_i2c.o
 .text.I2C_WaitOnFlagUntilTimeout
                0x00000000       0x56 build/stm32l4xx_hal_i2c.o
 .text.I2C_RequestMemoryWrite
                0x00000000       0x7c build/stm32l4xx_hal_i2c.o
 .text.I2C_RequestMemoryRead
                0x00000000       0x78 build/stm32l4xx_hal_i2c.o
 .text.I2C_WaitOnSTOPFlagUntilTimeout
                0x00000000       0x50 build/stm32l4xx_hal_i2c.o
 .text.I2C_WaitOnRXNEFlagUntilTimeout
                0x00000000       0xae build/stm32l4xx_hal_i2c.o
 .text.HAL_I2C_MspInit
                0x00000000        0x2 build/stm32l4xx_hal_i2c.o
 .text.HAL_I2C_Init
                0x00000000       0xbc build/stm32l4xx_hal_i2c.o
 .text.HAL_I2C_MspDeInit
                0x00000000        0x2 build/stm32l4xx_hal_i2c.o
 .text.HAL_I2C_DeInit
                0x00000000       0x32 build/stm32l4xx_hal_i2c.o
 .text.HAL_I2C_Master_Transmit
                0x00000000      0x17c build/stm32l4xx_hal_i2c.o
 .text.HAL_I2C_Master_Receive
                0x00000000      0x17c build/stm32l4xx_hal_i2c.o
 .text.HAL_I2C_Slave_Transmit
                0x00000000      0x1a6 build/stm32l4xx_hal_i2c.o
 .text.HAL_I2C_Slave_Receive
                0x00000000      0x176 build/stm32l4xx_hal_i2c.o
 .text.HAL_I2C_Master_Transmit_IT
                0x00000000       0x98 build/stm32l4xx_hal_i2c.o
 .text.HAL_I2C_Master_Receive_IT
                0x00000000       0x98 build/stm32l4xx_hal_i2c.o
 .text.HAL_I2C_Slave_Transmit_IT
                0x00000000       0x64 build/stm32l4xx_hal_i2c.o
 .text.HAL_I2C_Slave_Receive_IT
                0x00000000       0x64 build/stm32l4xx_hal_i2c.o
 .text.HAL_I2C_Master_Transmit_DMA
                0x00000000      0x154 build/stm32l4xx_hal_i2c.o
 .text.HAL_I2C_Master_Receive_DMA
                0x00000000      0x150 build/stm32l4xx_hal_i2c.o
 .text.HAL_I2C_Slave_Transmit_DMA
                0x00000000       0xf0 build/stm32l4xx_hal_i2c.o
 .text.HAL_I2C_Slave_Receive_DMA
                0x00000000       0xf4 build/stm32l4xx_hal_i2c.o
 .text.HAL_I2C_Mem_Write
                0x00000000      0x1a8 build/stm32l4xx_hal_i2c.o
 .text.HAL_I2C_Mem_Read
                0x00000000      0x1b0 build/stm32l4xx_hal_i2c.o
 .text.HAL_I2C_Mem_Write_IT
                0x00000000       0xb8 build/stm32l4xx_hal_i2c.o
 .text.HAL_I2C_Mem_Read_IT
                0x00000000       0xb4 build/stm32l4xx_hal_i2c.o
 .text.HAL_I2C_Mem_Write_DMA
                0x00000000      0x134 build/stm32l4xx_hal_i2c.o
 .text.HAL_I2C_Mem_Read_DMA
                0x00000000      0x134 build/stm32l4xx_hal_i2c.o
 .text.HAL_I2C_IsDeviceReady
                0x00000000      0x16c build/stm32l4xx_hal_i2c.o
 .text.HAL_I2C_Master_Seq_Transmit_IT
                0x00000000       0xb4 build/stm32l4xx_hal_i2c.o
 .text.HAL_I2C_Master_Seq_Transmit_DMA
                0x00000000      0x174 build/stm32l4xx_hal_i2c.o
 .text.HAL_I2C_Master_Seq_Receive_IT
                0x00000000       0xb4 build/stm32l4xx_hal_i2c.o
 .text.HAL_I2C_Master_Seq_Receive_DMA
                0x00000000      0x174 build/stm32l4xx_hal_i2c.o
 .text.HAL_I2C_Slave_Seq_Transmit_IT
                0x00000000       0xd8 build/stm32l4xx_hal_i2c.o
 .text.HAL_I2C_Slave_Seq_Transmit_DMA
                0x00000000      0x1a4 build/stm32l4xx_hal_i2c.o
 .text.HAL_I2C_Slave_Seq_Receive_IT
                0x00000000       0xd8 build/stm32l4xx_hal_i2c.o
 .text.HAL_I2C_Slave_Seq_Receive_DMA
                0x00000000      0x1a0 build/stm32l4xx_hal_i2c.o
 .text.HAL_I2C_EnableListen_IT
                0x00000000       0x2c build/stm32l4xx_hal_i2c.o
 .text.HAL_I2C_DisableListen_IT
                0x00000000       0x3a build/stm32l4xx_hal_i2c.o
 .text.HAL_I2C_Master_Abort_IT
                0x00000000       0x84 build/stm32l4xx_hal_i2c.o
 .text.HAL_I2C_EV_IRQHandler
                0x00000000       0x10 build/stm32l4xx_hal_i2c.o
 .text.HAL_I2C_MasterTxCpltCallback
                0x00000000        0x2 build/stm32l4xx_hal_i2c.o
 .text.HAL_I2C_MasterRxCpltCallback
                0x00000000        0x2 build/stm32l4xx_hal_i2c.o
 .text.I2C_ITMasterSeqCplt
                0x00000000       0x54 build/stm32l4xx_hal_i2c.o
 .text.HAL_I2C_SlaveTxCpltCallback
                0x00000000        0x2 build/stm32l4xx_hal_i2c.o
 .text.HAL_I2C_SlaveRxCpltCallback
                0x00000000        0x2 build/stm32l4xx_hal_i2c.o
 .text.I2C_ITSlaveSeqCplt
                0x00000000       0x82 build/stm32l4xx_hal_i2c.o
 .text.I2C_DMASlaveTransmitCplt
                0x00000000       0x1e build/stm32l4xx_hal_i2c.o
 .text.I2C_DMASlaveReceiveCplt
                0x00000000       0x26 build/stm32l4xx_hal_i2c.o
 .text.HAL_I2C_AddrCallback
                0x00000000        0x2 build/stm32l4xx_hal_i2c.o
 .text.I2C_ITAddrCplt
                0x00000000       0xa0 build/stm32l4xx_hal_i2c.o
 .text.HAL_I2C_ListenCpltCallback
                0x00000000        0x2 build/stm32l4xx_hal_i2c.o
 .text.I2C_ITListenCplt
                0x00000000       0x68 build/stm32l4xx_hal_i2c.o
 .text.HAL_I2C_MemTxCpltCallback
                0x00000000        0x2 build/stm32l4xx_hal_i2c.o
 .text.HAL_I2C_MemRxCpltCallback
                0x00000000        0x2 build/stm32l4xx_hal_i2c.o
 .text.HAL_I2C_ErrorCallback
                0x00000000        0x2 build/stm32l4xx_hal_i2c.o
 .text.HAL_I2C_AbortCpltCallback
                0x00000000        0x2 build/stm32l4xx_hal_i2c.o
 .text.I2C_TreatErrorCallback
                0x00000000       0x2e build/stm32l4xx_hal_i2c.o
 .text.I2C_ITError
                0x00000000      0x108 build/stm32l4xx_hal_i2c.o
 .text.I2C_ITSlaveCplt
                0x00000000      0x168 build/stm32l4xx_hal_i2c.o
 .text.I2C_Slave_ISR_IT
                0x00000000      0x14e build/stm32l4xx_hal_i2c.o
 .text.I2C_ITMasterCplt
                0x00000000      0x12e build/stm32l4xx_hal_i2c.o
 .text.I2C_Master_ISR_IT
                0x00000000      0x180 build/stm32l4xx_hal_i2c.o
 .text.I2C_Slave_ISR_DMA
                0x00000000      0x124 build/stm32l4xx_hal_i2c.o
 .text.I2C_Master_ISR_DMA
                0x00000000      0x142 build/stm32l4xx_hal_i2c.o
 .text.I2C_DMAError
                0x00000000       0x16 build/stm32l4xx_hal_i2c.o
 .text.I2C_DMAMasterTransmitCplt
                0x00000000       0x5a build/stm32l4xx_hal_i2c.o
 .text.I2C_DMAMasterReceiveCplt
                0x00000000       0x5a build/stm32l4xx_hal_i2c.o
 .text.I2C_Mem_ISR_IT
                0x00000000      0x188 build/stm32l4xx_hal_i2c.o
 .text.I2C_Mem_ISR_DMA
                0x00000000      0x194 build/stm32l4xx_hal_i2c.o
 .text.HAL_I2C_ER_IRQHandler
                0x00000000       0x6a build/stm32l4xx_hal_i2c.o
 .text.I2C_DMAAbort
                0x00000000       0x1a build/stm32l4xx_hal_i2c.o
 .text.HAL_I2C_GetState
                0x00000000        0x6 build/stm32l4xx_hal_i2c.o
 .text.HAL_I2C_GetMode
                0x00000000        0x6 build/stm32l4xx_hal_i2c.o
 .text.HAL_I2C_GetError
                0x00000000        0x4 build/stm32l4xx_hal_i2c.o
 .debug_info    0x00000000     0x45bf build/stm32l4xx_hal_i2c.o
 .debug_abbrev  0x00000000      0x2e8 build/stm32l4xx_hal_i2c.o
 .debug_loc     0x00000000     0x5780 build/stm32l4xx_hal_i2c.o
 .debug_aranges
                0x00000000      0x2a0 build/stm32l4xx_hal_i2c.o
 .debug_ranges  0x00000000      0x290 build/stm32l4xx_hal_i2c.o
 .debug_line    0x00000000     0x4dba build/stm32l4xx_hal_i2c.o
 .debug_str     0x00000000     0x1236 build/stm32l4xx_hal_i2c.o
 .comment       0x00000000       0x7a build/stm32l4xx_hal_i2c.o
 .debug_frame   0x00000000      0xae4 build/stm32l4xx_hal_i2c.o
 .ARM.attributes
                0x00000000       0x34 build/stm32l4xx_hal_i2c.o
 .text          0x00000000        0x0 build/stm32l4xx_hal_i2c_ex.o
 .data          0x00000000        0x0 build/stm32l4xx_hal_i2c_ex.o
 .bss           0x00000000        0x0 build/stm32l4xx_hal_i2c_ex.o
 .text.HAL_I2CEx_ConfigAnalogFilter
                0x00000000       0x5c build/stm32l4xx_hal_i2c_ex.o
 .text.HAL_I2CEx_ConfigDigitalFilter
                0x00000000       0x58 build/stm32l4xx_hal_i2c_ex.o
 .text.HAL_I2CEx_EnableWakeUp
                0x00000000       0x54 build/stm32l4xx_hal_i2c_ex.o
 .text.HAL_I2CEx_DisableWakeUp
                0x00000000       0x54 build/stm32l4xx_hal_i2c_ex.o
 .text.HAL_I2CEx_EnableFastModePlus
                0x00000000       0x2c build/stm32l4xx_hal_i2c_ex.o
 .text.HAL_I2CEx_DisableFastModePlus
                0x00000000       0x2c build/stm32l4xx_hal_i2c_ex.o
 .debug_info    0x00000000      0xd8f build/stm32l4xx_hal_i2c_ex.o
 .debug_abbrev  0x00000000      0x1e2 build/stm32l4xx_hal_i2c_ex.o
 .debug_loc     0x00000000      0x25a build/stm32l4xx_hal_i2c_ex.o
 .debug_aranges
                0x00000000       0x48 build/stm32l4xx_hal_i2c_ex.o
 .debug_ranges  0x00000000       0x38 build/stm32l4xx_hal_i2c_ex.o
 .debug_line    0x00000000      0x4ed build/stm32l4xx_hal_i2c_ex.o
 .debug_str     0x00000000      0xb6b build/stm32l4xx_hal_i2c_ex.o
 .comment       0x00000000       0x7a build/stm32l4xx_hal_i2c_ex.o
 .debug_frame   0x00000000       0x80 build/stm32l4xx_hal_i2c_ex.o
 .ARM.attributes
                0x00000000       0x34 build/stm32l4xx_hal_i2c_ex.o
 .text          0x00000000        0x0 build/stm32l4xx_hal_rcc.o
 .data          0x00000000        0x0 build/stm32l4xx_hal_rcc.o
 .bss           0x00000000        0x0 build/stm32l4xx_hal_rcc.o
 .text.HAL_RCC_DeInit
                0x00000000       0xe0 build/stm32l4xx_hal_rcc.o
 .text.HAL_RCC_MCOConfig
                0x00000000       0x50 build/stm32l4xx_hal_rcc.o
 .text.HAL_RCC_GetOscConfig
                0x00000000      0x148 build/stm32l4xx_hal_rcc.o
 .text.HAL_RCC_GetClockConfig
                0x00000000       0x3c build/stm32l4xx_hal_rcc.o
 .text.HAL_RCC_EnableCSS
                0x00000000       0x10 build/stm32l4xx_hal_rcc.o
 .text.HAL_RCC_CSSCallback
                0x00000000        0x2 build/stm32l4xx_hal_rcc.o
 .text.HAL_RCC_NMI_IRQHandler
                0x00000000       0x20 build/stm32l4xx_hal_rcc.o
 .text.HAL_RCC_GetResetSource
                0x00000000       0x1c build/stm32l4xx_hal_rcc.o
 .text          0x00000000        0x0 build/stm32l4xx_hal_rcc_ex.o
 .data          0x00000000        0x0 build/stm32l4xx_hal_rcc_ex.o
 .bss           0x00000000        0x0 build/stm32l4xx_hal_rcc_ex.o
 .text.HAL_RCCEx_GetPeriphCLKConfig
                0x00000000       0x88 build/stm32l4xx_hal_rcc_ex.o
 .text.HAL_RCCEx_GetPeriphCLKFreq
                0x00000000      0x548 build/stm32l4xx_hal_rcc_ex.o
 .text.HAL_RCCEx_WakeUpStopCLKConfig
                0x00000000       0x14 build/stm32l4xx_hal_rcc_ex.o
 .text.HAL_RCCEx_StandbyMSIRangeConfig
                0x00000000       0x18 build/stm32l4xx_hal_rcc_ex.o
 .text.HAL_RCCEx_EnableLSECSS
                0x00000000       0x14 build/stm32l4xx_hal_rcc_ex.o
 .text.HAL_RCCEx_DisableLSECSS
                0x00000000       0x1c build/stm32l4xx_hal_rcc_ex.o
 .text.HAL_RCCEx_EnableLSECSS_IT
                0x00000000       0x30 build/stm32l4xx_hal_rcc_ex.o
 .text.HAL_RCCEx_LSECSS_Callback
                0x00000000        0x2 build/stm32l4xx_hal_rcc_ex.o
 .text.HAL_RCCEx_LSECSS_IRQHandler
                0x00000000       0x20 build/stm32l4xx_hal_rcc_ex.o
 .text.HAL_RCCEx_EnableLSCO
                0x00000000       0xa0 build/stm32l4xx_hal_rcc_ex.o
 .text.HAL_RCCEx_DisableLSCO
                0x00000000       0x6c build/stm32l4xx_hal_rcc_ex.o
 .text.HAL_RCCEx_EnableMSIPLLMode
                0x00000000       0x10 build/stm32l4xx_hal_rcc_ex.o
 .text.HAL_RCCEx_DisableMSIPLLMode
                0x00000000       0x10 build/stm32l4xx_hal_rcc_ex.o
 .text.HAL_RCCEx_CRSConfig
                0x00000000       0x4c build/stm32l4xx_hal_rcc_ex.o
 .text.HAL_RCCEx_CRSSoftwareSynchronizationGenerate
                0x00000000       0x10 build/stm32l4xx_hal_rcc_ex.o
 .text.HAL_RCCEx_CRSGetSynchronizationInfo
                0x00000000       0x24 build/stm32l4xx_hal_rcc_ex.o
 .text.HAL_RCCEx_CRSWaitSynchronization
                0x00000000       0xac build/stm32l4xx_hal_rcc_ex.o
 .text.HAL_RCCEx_CRS_SyncOkCallback
                0x00000000        0x2 build/stm32l4xx_hal_rcc_ex.o
 .text.HAL_RCCEx_CRS_SyncWarnCallback
                0x00000000        0x2 build/stm32l4xx_hal_rcc_ex.o
 .text.HAL_RCCEx_CRS_ExpectedSyncCallback
                0x00000000        0x2 build/stm32l4xx_hal_rcc_ex.o
 .text.HAL_RCCEx_CRS_ErrorCallback
                0x00000000        0x2 build/stm32l4xx_hal_rcc_ex.o
 .text.HAL_RCCEx_CRS_IRQHandler
                0x00000000       0x88 build/stm32l4xx_hal_rcc_ex.o
 .text          0x00000000        0x0 build/stm32l4xx_hal_flash.o
 .data          0x00000000        0x0 build/stm32l4xx_hal_flash.o
 .bss           0x00000000        0x0 build/stm32l4xx_hal_flash.o
 .text.FLASH_Program_DoubleWord
                0x00000000       0x20 build/stm32l4xx_hal_flash.o
 .text.FLASH_Program_Fast
                0x00000000       0x34 build/stm32l4xx_hal_flash.o
 .text.HAL_FLASH_Program_IT
                0x00000000       0x84 build/stm32l4xx_hal_flash.o
 .text.HAL_FLASH_EndOfOperationCallback
                0x00000000        0x2 build/stm32l4xx_hal_flash.o
 .text.HAL_FLASH_OperationErrorCallback
                0x00000000        0x2 build/stm32l4xx_hal_flash.o
 .text.HAL_FLASH_IRQHandler
                0x00000000      0x128 build/stm32l4xx_hal_flash.o
 .text.HAL_FLASH_Unlock
                0x00000000       0x30 build/stm32l4xx_hal_flash.o
 .text.HAL_FLASH_Lock
                0x00000000       0x14 build/stm32l4xx_hal_flash.o
 .text.HAL_FLASH_OB_Unlock
                0x00000000       0x28 build/stm32l4xx_hal_flash.o
 .text.HAL_FLASH_OB_Lock
                0x00000000       0x14 build/stm32l4xx_hal_flash.o
 .text.HAL_FLASH_GetError
                0x00000000        0xc build/stm32l4xx_hal_flash.o
 .text.FLASH_WaitForLastOperation
                0x00000000       0x68 build/stm32l4xx_hal_flash.o
 .text.HAL_FLASH_Program
                0x00000000       0xb0 build/stm32l4xx_hal_flash.o
 .text.HAL_FLASH_OB_Launch
                0x00000000       0x1c build/stm32l4xx_hal_flash.o
 .data.pFlash   0x00000000       0x20 build/stm32l4xx_hal_flash.o
 .debug_info    0x00000000      0x9d0 build/stm32l4xx_hal_flash.o
 .debug_abbrev  0x00000000      0x36a build/stm32l4xx_hal_flash.o
 .debug_loc     0x00000000      0x6c8 build/stm32l4xx_hal_flash.o
 .debug_aranges
                0x00000000       0x88 build/stm32l4xx_hal_flash.o
 .debug_ranges  0x00000000       0x78 build/stm32l4xx_hal_flash.o
 .debug_line    0x00000000      0x78a build/stm32l4xx_hal_flash.o
 .debug_str     0x00000000      0x737 build/stm32l4xx_hal_flash.o
 .comment       0x00000000       0x7a build/stm32l4xx_hal_flash.o
 .debug_frame   0x00000000      0x158 build/stm32l4xx_hal_flash.o
 .ARM.attributes
                0x00000000       0x34 build/stm32l4xx_hal_flash.o
 .text          0x00000000        0x0 build/stm32l4xx_hal_flash_ex.o
 .data          0x00000000        0x0 build/stm32l4xx_hal_flash_ex.o
 .bss           0x00000000        0x0 build/stm32l4xx_hal_flash_ex.o
 .text.FLASH_MassErase
                0x00000000       0x20 build/stm32l4xx_hal_flash_ex.o
 .text.FLASH_OB_GetWRP
                0x00000000       0x34 build/stm32l4xx_hal_flash_ex.o
 .text.FLASH_OB_GetRDP
                0x00000000       0x20 build/stm32l4xx_hal_flash_ex.o
 .text.FLASH_OB_GetUser
                0x00000000       0x10 build/stm32l4xx_hal_flash_ex.o
 .text.FLASH_OB_GetPCROP
                0x00000000       0x44 build/stm32l4xx_hal_flash_ex.o
 .text.FLASH_OB_WRPConfig
                0x00000000       0x5c build/stm32l4xx_hal_flash_ex.o
 .text.FLASH_OB_RDPConfig
                0x00000000       0x3c build/stm32l4xx_hal_flash_ex.o
 .text.FLASH_OB_UserConfig
                0x00000000      0x110 build/stm32l4xx_hal_flash_ex.o
 .text.FLASH_OB_PCROPConfig
                0x00000000       0x70 build/stm32l4xx_hal_flash_ex.o
 .text.HAL_FLASHEx_OBProgram
                0x00000000       0x94 build/stm32l4xx_hal_flash_ex.o
 .text.HAL_FLASHEx_OBGetConfig
                0x00000000       0x4e build/stm32l4xx_hal_flash_ex.o
 .text.FLASH_PageErase
                0x00000000       0x28 build/stm32l4xx_hal_flash_ex.o
 .text.HAL_FLASHEx_Erase_IT
                0x00000000       0xb0 build/stm32l4xx_hal_flash_ex.o
 .text.FLASH_FlushCaches
                0x00000000       0x64 build/stm32l4xx_hal_flash_ex.o
 .text.HAL_FLASHEx_Erase
                0x00000000       0xec build/stm32l4xx_hal_flash_ex.o
 .debug_info    0x00000000      0xb85 build/stm32l4xx_hal_flash_ex.o
 .debug_abbrev  0x00000000      0x2ac build/stm32l4xx_hal_flash_ex.o
 .debug_loc     0x00000000      0x7d9 build/stm32l4xx_hal_flash_ex.o
 .debug_aranges
                0x00000000       0x90 build/stm32l4xx_hal_flash_ex.o
 .debug_ranges  0x00000000       0x80 build/stm32l4xx_hal_flash_ex.o
 .debug_line    0x00000000      0x9bd build/stm32l4xx_hal_flash_ex.o
 .debug_str     0x00000000      0x789 build/stm32l4xx_hal_flash_ex.o
 .comment       0x00000000       0x7a build/stm32l4xx_hal_flash_ex.o
 .debug_frame   0x00000000      0x198 build/stm32l4xx_hal_flash_ex.o
 .ARM.attributes
                0x00000000       0x34 build/stm32l4xx_hal_flash_ex.o
 .text          0x00000000        0x0 build/stm32l4xx_hal_flash_ramfunc.o
 .data          0x00000000        0x0 build/stm32l4xx_hal_flash_ramfunc.o
 .bss           0x00000000        0x0 build/stm32l4xx_hal_flash_ramfunc.o
 .RamFunc       0x00000000       0x48 build/stm32l4xx_hal_flash_ramfunc.o
 .debug_info    0x00000000      0x440 build/stm32l4xx_hal_flash_ramfunc.o
 .debug_abbrev  0x00000000      0x119 build/stm32l4xx_hal_flash_ramfunc.o
 .debug_aranges
                0x00000000       0x28 build/stm32l4xx_hal_flash_ramfunc.o
 .debug_ranges  0x00000000       0x18 build/stm32l4xx_hal_flash_ramfunc.o
 .debug_line    0x00000000      0x1fc build/stm32l4xx_hal_flash_ramfunc.o
 .debug_str     0x00000000      0x53e build/stm32l4xx_hal_flash_ramfunc.o
 .comment       0x00000000       0x7a build/stm32l4xx_hal_flash_ramfunc.o
 .debug_frame   0x00000000       0x30 build/stm32l4xx_hal_flash_ramfunc.o
 .ARM.attributes
                0x00000000       0x34 build/stm32l4xx_hal_flash_ramfunc.o
 .text          0x00000000        0x0 build/stm32l4xx_hal_gpio.o
 .data          0x00000000        0x0 build/stm32l4xx_hal_gpio.o
 .bss           0x00000000        0x0 build/stm32l4xx_hal_gpio.o
 .text.HAL_GPIO_TogglePin
                0x00000000       0x12 build/stm32l4xx_hal_gpio.o
 .text.HAL_GPIO_LockPin
                0x00000000       0x2e build/stm32l4xx_hal_gpio.o
 .text.HAL_GPIO_EXTI_Callback
                0x00000000        0x2 build/stm32l4xx_hal_gpio.o
 .text.HAL_GPIO_EXTI_IRQHandler
                0x00000000       0x1c build/stm32l4xx_hal_gpio.o
 .text          0x00000000        0x0 build/stm32l4xx_hal_dma.o
 .data          0x00000000        0x0 build/stm32l4xx_hal_dma.o
 .bss           0x00000000        0x0 build/stm32l4xx_hal_dma.o
 .text.DMA_SetConfig
                0x00000000       0x30 build/stm32l4xx_hal_dma.o
 .text.HAL_DMA_Init
                0x00000000       0xf8 build/stm32l4xx_hal_dma.o
 .text.HAL_DMA_DeInit
                0x00000000       0xc8 build/stm32l4xx_hal_dma.o
 .text.HAL_DMA_Start
                0x00000000       0x52 build/stm32l4xx_hal_dma.o
 .text.HAL_DMA_Start_IT
                0x00000000       0x76 build/stm32l4xx_hal_dma.o
 .text.HAL_DMA_PollForTransfer
                0x00000000       0xe4 build/stm32l4xx_hal_dma.o
 .text.HAL_DMA_IRQHandler
                0x00000000       0xc4 build/stm32l4xx_hal_dma.o
 .text.HAL_DMA_RegisterCallback
                0x00000000       0x46 build/stm32l4xx_hal_dma.o
 .text.HAL_DMA_UnRegisterCallback
                0x00000000       0x5c build/stm32l4xx_hal_dma.o
 .text.HAL_DMA_GetState
                0x00000000        0x6 build/stm32l4xx_hal_dma.o
 .text.HAL_DMA_GetError
                0x00000000        0x4 build/stm32l4xx_hal_dma.o
 .text          0x00000000        0x0 build/stm32l4xx_hal_dma_ex.o
 .data          0x00000000        0x0 build/stm32l4xx_hal_dma_ex.o
 .bss           0x00000000        0x0 build/stm32l4xx_hal_dma_ex.o
 .debug_info    0x00000000      0x2e7 build/stm32l4xx_hal_dma_ex.o
 .debug_abbrev  0x00000000       0xb7 build/stm32l4xx_hal_dma_ex.o
 .debug_aranges
                0x00000000       0x18 build/stm32l4xx_hal_dma_ex.o
 .debug_line    0x00000000      0x176 build/stm32l4xx_hal_dma_ex.o
 .debug_str     0x00000000      0x46a build/stm32l4xx_hal_dma_ex.o
 .comment       0x00000000       0x7a build/stm32l4xx_hal_dma_ex.o
 .ARM.attributes
                0x00000000       0x39 build/stm32l4xx_hal_dma_ex.o
 .text          0x00000000        0x0 build/stm32l4xx_hal_pwr.o
 .data          0x00000000        0x0 build/stm32l4xx_hal_pwr.o
 .bss           0x00000000        0x0 build/stm32l4xx_hal_pwr.o
 .text.HAL_PWR_DeInit
                0x00000000       0x18 build/stm32l4xx_hal_pwr.o
 .text.HAL_PWR_EnableBkUpAccess
                0x00000000       0x10 build/stm32l4xx_hal_pwr.o
 .text.HAL_PWR_DisableBkUpAccess
                0x00000000       0x10 build/stm32l4xx_hal_pwr.o
 .text.HAL_PWR_ConfigPVD
                0x00000000       0x84 build/stm32l4xx_hal_pwr.o
 .text.HAL_PWR_EnablePVD
                0x00000000       0x10 build/stm32l4xx_hal_pwr.o
 .text.HAL_PWR_DisablePVD
                0x00000000       0x10 build/stm32l4xx_hal_pwr.o
 .text.HAL_PWR_EnableWakeUpPin
                0x00000000       0x20 build/stm32l4xx_hal_pwr.o
 .text.HAL_PWR_DisableWakeUpPin
                0x00000000       0x14 build/stm32l4xx_hal_pwr.o
 .text.HAL_PWR_EnterSLEEPMode
                0x00000000       0x4c build/stm32l4xx_hal_pwr.o
 .text.HAL_PWR_EnterSTOPMode
                0x00000000       0x18 build/stm32l4xx_hal_pwr.o
 .text.HAL_PWR_EnterSTANDBYMode
                0x00000000       0x24 build/stm32l4xx_hal_pwr.o
 .text.HAL_PWR_EnableSleepOnExit
                0x00000000       0x10 build/stm32l4xx_hal_pwr.o
 .text.HAL_PWR_DisableSleepOnExit
                0x00000000       0x10 build/stm32l4xx_hal_pwr.o
 .text.HAL_PWR_EnableSEVOnPend
                0x00000000       0x10 build/stm32l4xx_hal_pwr.o
 .text.HAL_PWR_DisableSEVOnPend
                0x00000000       0x10 build/stm32l4xx_hal_pwr.o
 .text.HAL_PWR_PVDCallback
                0x00000000        0x2 build/stm32l4xx_hal_pwr.o
 .debug_info    0x00000000      0xcfe build/stm32l4xx_hal_pwr.o
 .debug_abbrev  0x00000000      0x1cc build/stm32l4xx_hal_pwr.o
 .debug_loc     0x00000000      0x1f1 build/stm32l4xx_hal_pwr.o
 .debug_aranges
                0x00000000       0x98 build/stm32l4xx_hal_pwr.o
 .debug_ranges  0x00000000       0x88 build/stm32l4xx_hal_pwr.o
 .debug_line    0x00000000      0x428 build/stm32l4xx_hal_pwr.o
 .debug_str     0x00000000      0x91f build/stm32l4xx_hal_pwr.o
 .comment       0x00000000       0x7a build/stm32l4xx_hal_pwr.o
 .debug_frame   0x00000000      0x128 build/stm32l4xx_hal_pwr.o
 .ARM.attributes
                0x00000000       0x34 build/stm32l4xx_hal_pwr.o
 .text          0x00000000        0x0 build/stm32l4xx_hal_pwr_ex.o
 .data          0x00000000        0x0 build/stm32l4xx_hal_pwr_ex.o
 .bss           0x00000000        0x0 build/stm32l4xx_hal_pwr_ex.o
 .text.HAL_PWREx_EnableBatteryCharging
                0x00000000       0x1c build/stm32l4xx_hal_pwr_ex.o
 .text.HAL_PWREx_DisableBatteryCharging
                0x00000000       0x10 build/stm32l4xx_hal_pwr_ex.o
 .text.HAL_PWREx_DisableVddUSB
                0x00000000       0x10 build/stm32l4xx_hal_pwr_ex.o
 .text.HAL_PWREx_EnableInternalWakeUpLine
                0x00000000       0x10 build/stm32l4xx_hal_pwr_ex.o
 .text.HAL_PWREx_DisableInternalWakeUpLine
                0x00000000       0x10 build/stm32l4xx_hal_pwr_ex.o
 .text.HAL_PWREx_EnableGPIOPullUp
                0x00000000       0x8c build/stm32l4xx_hal_pwr_ex.o
 .text.HAL_PWREx_DisableGPIOPullUp
                0x00000000       0x68 build/stm32l4xx_hal_pwr_ex.o
 .text.HAL_PWREx_EnableGPIOPullDown
                0x00000000       0x8c build/stm32l4xx_hal_pwr_ex.o
 .text.HAL_PWREx_DisableGPIOPullDown
                0x00000000       0x6c build/stm32l4xx_hal_pwr_ex.o
 .text.HAL_PWREx_EnablePullUpPullDownConfig
                0x00000000       0x10 build/stm32l4xx_hal_pwr_ex.o
 .text.HAL_PWREx_DisablePullUpPullDownConfig
                0x00000000       0x10 build/stm32l4xx_hal_pwr_ex.o
 .text.HAL_PWREx_SetSRAM2ContentRetention
                0x00000000       0x2c build/stm32l4xx_hal_pwr_ex.o
 .text.HAL_PWREx_EnableSRAM2ContentRetention
                0x00000000        0xc build/stm32l4xx_hal_pwr_ex.o
 .text.HAL_PWREx_DisableSRAM2ContentRetention
                0x00000000        0xa build/stm32l4xx_hal_pwr_ex.o
 .text.HAL_PWREx_EnableBORPVD_ULP
                0x00000000       0x10 build/stm32l4xx_hal_pwr_ex.o
 .text.HAL_PWREx_DisableBORPVD_ULP
                0x00000000       0x10 build/stm32l4xx_hal_pwr_ex.o
 .text.HAL_PWREx_EnableExtSMPS_0V95
                0x00000000       0x10 build/stm32l4xx_hal_pwr_ex.o
 .text.HAL_PWREx_DisableExtSMPS_0V95
                0x00000000       0x10 build/stm32l4xx_hal_pwr_ex.o
 .text.HAL_PWREx_EnablePVM1
                0x00000000       0x10 build/stm32l4xx_hal_pwr_ex.o
 .text.HAL_PWREx_DisablePVM1
                0x00000000       0x10 build/stm32l4xx_hal_pwr_ex.o
 .text.HAL_PWREx_EnablePVM3
                0x00000000       0x10 build/stm32l4xx_hal_pwr_ex.o
 .text.HAL_PWREx_DisablePVM3
                0x00000000       0x10 build/stm32l4xx_hal_pwr_ex.o
 .text.HAL_PWREx_EnablePVM4
                0x00000000       0x10 build/stm32l4xx_hal_pwr_ex.o
 .text.HAL_PWREx_DisablePVM4
                0x00000000       0x10 build/stm32l4xx_hal_pwr_ex.o
 .text.HAL_PWREx_ConfigPVM
                0x00000000      0x16c build/stm32l4xx_hal_pwr_ex.o
 .text.HAL_PWREx_EnableLowPowerRunMode
                0x00000000       0x10 build/stm32l4xx_hal_pwr_ex.o
 .text.HAL_PWREx_DisableLowPowerRunMode
                0x00000000       0x4c build/stm32l4xx_hal_pwr_ex.o
 .text.HAL_PWREx_EnterSTOP0Mode
                0x00000000       0x38 build/stm32l4xx_hal_pwr_ex.o
 .text.HAL_PWREx_EnterSTOP2Mode
                0x00000000       0x3c build/stm32l4xx_hal_pwr_ex.o
 .text.HAL_PWREx_EnterSHUTDOWNMode
                0x00000000       0x24 build/stm32l4xx_hal_pwr_ex.o
 .text.HAL_PWREx_PVM1Callback
                0x00000000        0x2 build/stm32l4xx_hal_pwr_ex.o
 .text.HAL_PWREx_PVM3Callback
                0x00000000        0x2 build/stm32l4xx_hal_pwr_ex.o
 .text.HAL_PWREx_PVM4Callback
                0x00000000        0x2 build/stm32l4xx_hal_pwr_ex.o
 .text.HAL_PWREx_PVD_PVM_IRQHandler
                0x00000000       0x64 build/stm32l4xx_hal_pwr_ex.o
 .text          0x00000000        0x0 build/stm32l4xx_hal_cortex.o
 .data          0x00000000        0x0 build/stm32l4xx_hal_cortex.o
 .bss           0x00000000        0x0 build/stm32l4xx_hal_cortex.o
 .text.HAL_NVIC_DisableIRQ
                0x00000000       0x24 build/stm32l4xx_hal_cortex.o
 .text.HAL_NVIC_SystemReset
                0x00000000       0x24 build/stm32l4xx_hal_cortex.o
 .text.HAL_NVIC_GetPriorityGrouping
                0x00000000       0x10 build/stm32l4xx_hal_cortex.o
 .text.HAL_NVIC_GetPriority
                0x00000000       0x60 build/stm32l4xx_hal_cortex.o
 .text.HAL_NVIC_SetPendingIRQ
                0x00000000       0x1c build/stm32l4xx_hal_cortex.o
 .text.HAL_NVIC_GetPendingIRQ
                0x00000000       0x24 build/stm32l4xx_hal_cortex.o
 .text.HAL_NVIC_ClearPendingIRQ
                0x00000000       0x1c build/stm32l4xx_hal_cortex.o
 .text.HAL_NVIC_GetActive
                0x00000000       0x24 build/stm32l4xx_hal_cortex.o
 .text.HAL_SYSTICK_CLKSourceConfig
                0x00000000       0x20 build/stm32l4xx_hal_cortex.o
 .text.HAL_SYSTICK_Callback
                0x00000000        0x2 build/stm32l4xx_hal_cortex.o
 .text.HAL_SYSTICK_IRQHandler
                0x00000000        0x8 build/stm32l4xx_hal_cortex.o
 .text.HAL_MPU_Enable
                0x00000000       0x18 build/stm32l4xx_hal_cortex.o
 .text.HAL_MPU_Disable
                0x00000000       0x10 build/stm32l4xx_hal_cortex.o
 .text.HAL_MPU_ConfigRegion
                0x00000000       0x54 build/stm32l4xx_hal_cortex.o
 .text          0x00000000        0x0 build/stm32l4xx_hal_exti.o
 .data          0x00000000        0x0 build/stm32l4xx_hal_exti.o
 .bss           0x00000000        0x0 build/stm32l4xx_hal_exti.o
 .text.HAL_EXTI_SetConfigLine
                0x00000000       0xdc build/stm32l4xx_hal_exti.o
 .text.HAL_EXTI_GetConfigLine
                0x00000000       0xb8 build/stm32l4xx_hal_exti.o
 .text.HAL_EXTI_ClearConfigLine
                0x00000000       0x98 build/stm32l4xx_hal_exti.o
 .text.HAL_EXTI_RegisterCallback
                0x00000000        0xe build/stm32l4xx_hal_exti.o
 .text.HAL_EXTI_GetHandle
                0x00000000        0xc build/stm32l4xx_hal_exti.o
 .text.HAL_EXTI_IRQHandler
                0x00000000       0x2c build/stm32l4xx_hal_exti.o
 .text.HAL_EXTI_GetPending
                0x00000000       0x20 build/stm32l4xx_hal_exti.o
 .text.HAL_EXTI_ClearPending
                0x00000000       0x1c build/stm32l4xx_hal_exti.o
 .text.HAL_EXTI_GenerateSWI
                0x00000000       0x1c build/stm32l4xx_hal_exti.o
 .debug_info    0x00000000      0xa4b build/stm32l4xx_hal_exti.o
 .debug_abbrev  0x00000000      0x1fe build/stm32l4xx_hal_exti.o
 .debug_loc     0x00000000      0xc22 build/stm32l4xx_hal_exti.o
 .debug_aranges
                0x00000000       0x60 build/stm32l4xx_hal_exti.o
 .debug_ranges  0x00000000       0x50 build/stm32l4xx_hal_exti.o
 .debug_line    0x00000000      0x762 build/stm32l4xx_hal_exti.o
 .debug_str     0x00000000      0x705 build/stm32l4xx_hal_exti.o
 .comment       0x00000000       0x7a build/stm32l4xx_hal_exti.o
 .debug_frame   0x00000000      0x130 build/stm32l4xx_hal_exti.o
 .ARM.attributes
                0x00000000       0x34 build/stm32l4xx_hal_exti.o
 .text          0x00000000        0x0 build/stm32l4xx_hal_spi.o
 .data          0x00000000        0x0 build/stm32l4xx_hal_spi.o
 .bss           0x00000000        0x0 build/stm32l4xx_hal_spi.o
 .text.SPI_AbortRx_ISR
                0x00000000       0x90 build/stm32l4xx_hal_spi.o
 .text.SPI_AbortTx_ISR
                0x00000000       0xf0 build/stm32l4xx_hal_spi.o
 .text.HAL_SPI_MspInit
                0x00000000        0x2 build/stm32l4xx_hal_spi.o
 .text.HAL_SPI_MspDeInit
                0x00000000        0x2 build/stm32l4xx_hal_spi.o
 .text.HAL_SPI_Transmit_IT
                0x00000000       0xb0 build/stm32l4xx_hal_spi.o
 .text.HAL_SPI_TransmitReceive_IT
                0x00000000       0xf0 build/stm32l4xx_hal_spi.o
 .text.HAL_SPI_Receive_IT
                0x00000000       0xdc build/stm32l4xx_hal_spi.o
 .text.HAL_SPI_Transmit_DMA
                0x00000000      0x134 build/stm32l4xx_hal_spi.o
 .text.HAL_SPI_TransmitReceive_DMA
                0x00000000      0x214 build/stm32l4xx_hal_spi.o
 .text.HAL_SPI_Receive_DMA
                0x00000000      0x180 build/stm32l4xx_hal_spi.o
 .text.HAL_SPI_Abort
                0x00000000      0x190 build/stm32l4xx_hal_spi.o
 .text.HAL_SPI_DMAPause
                0x00000000       0x26 build/stm32l4xx_hal_spi.o
 .text.HAL_SPI_DMAResume
                0x00000000       0x26 build/stm32l4xx_hal_spi.o
 .text.HAL_SPI_DMAStop
                0x00000000       0x46 build/stm32l4xx_hal_spi.o
 .text.HAL_SPI_TxCpltCallback
                0x00000000        0x2 build/stm32l4xx_hal_spi.o
 .text.HAL_SPI_RxCpltCallback
                0x00000000        0x2 build/stm32l4xx_hal_spi.o
 .text.HAL_SPI_TxRxCpltCallback
                0x00000000        0x2 build/stm32l4xx_hal_spi.o
 .text.HAL_SPI_TxHalfCpltCallback
                0x00000000        0x2 build/stm32l4xx_hal_spi.o
 .text.SPI_DMAHalfTransmitCplt
                0x00000000        0xa build/stm32l4xx_hal_spi.o
 .text.HAL_SPI_RxHalfCpltCallback
                0x00000000        0x2 build/stm32l4xx_hal_spi.o
 .text.SPI_DMAHalfReceiveCplt
                0x00000000        0xa build/stm32l4xx_hal_spi.o
 .text.HAL_SPI_TxRxHalfCpltCallback
                0x00000000        0x2 build/stm32l4xx_hal_spi.o
 .text.SPI_DMAHalfTransmitReceiveCplt
                0x00000000        0xa build/stm32l4xx_hal_spi.o
 .text.HAL_SPI_ErrorCallback
                0x00000000        0x2 build/stm32l4xx_hal_spi.o
 .text.SPI_CloseTx_ISR
                0x00000000       0x56 build/stm32l4xx_hal_spi.o
 .text.SPI_TxISR_8BIT
                0x00000000       0x28 build/stm32l4xx_hal_spi.o
 .text.SPI_TxISR_16BIT
                0x00000000       0x28 build/stm32l4xx_hal_spi.o
 .text.SPI_CloseRx_ISR
                0x00000000       0x40 build/stm32l4xx_hal_spi.o
 .text.SPI_RxISR_8BIT
                0x00000000       0x2e build/stm32l4xx_hal_spi.o
 .text.SPI_RxISR_16BIT
                0x00000000       0x2e build/stm32l4xx_hal_spi.o
 .text.SPI_CloseRxTx_ISR
                0x00000000       0x5e build/stm32l4xx_hal_spi.o
 .text.SPI_2linesTxISR_8BIT
                0x00000000       0x5c build/stm32l4xx_hal_spi.o
 .text.SPI_2linesRxISR_8BIT
                0x00000000       0x7a build/stm32l4xx_hal_spi.o
 .text.SPI_2linesTxISR_16BIT
                0x00000000       0x3a build/stm32l4xx_hal_spi.o
 .text.SPI_2linesRxISR_16BIT
                0x00000000       0x3e build/stm32l4xx_hal_spi.o
 .text.SPI_DMAError
                0x00000000       0x22 build/stm32l4xx_hal_spi.o
 .text.SPI_DMATransmitCplt
                0x00000000       0x70 build/stm32l4xx_hal_spi.o
 .text.SPI_DMAReceiveCplt
                0x00000000       0x70 build/stm32l4xx_hal_spi.o
 .text.SPI_DMATransmitReceiveCplt
                0x00000000       0x5e build/stm32l4xx_hal_spi.o
 .text.HAL_SPI_IRQHandler
                0x00000000      0x124 build/stm32l4xx_hal_spi.o
 .text.SPI_DMAAbortOnError
                0x00000000       0x12 build/stm32l4xx_hal_spi.o
 .text.HAL_SPI_AbortCpltCallback
                0x00000000        0x2 build/stm32l4xx_hal_spi.o
 .text.HAL_SPI_Abort_IT
                0x00000000      0x160 build/stm32l4xx_hal_spi.o
 .text.SPI_DMARxAbortCallback
                0x00000000       0x94 build/stm32l4xx_hal_spi.o
 .text.SPI_DMATxAbortCallback
                0x00000000       0x90 build/stm32l4xx_hal_spi.o
 .text.HAL_SPI_GetState
                0x00000000        0x6 build/stm32l4xx_hal_spi.o
 .text.HAL_SPI_GetError
                0x00000000        0x4 build/stm32l4xx_hal_spi.o
 .text          0x00000000        0x0 build/stm32l4xx_hal_spi_ex.o
 .data          0x00000000        0x0 build/stm32l4xx_hal_spi_ex.o
 .bss           0x00000000        0x0 build/stm32l4xx_hal_spi_ex.o
 .text.HAL_SPIEx_FlushRxFifo
                0x00000000       0x36 build/stm32l4xx_hal_spi_ex.o
 .debug_info    0x00000000      0x8cd build/stm32l4xx_hal_spi_ex.o
 .debug_abbrev  0x00000000      0x196 build/stm32l4xx_hal_spi_ex.o
 .debug_loc     0x00000000       0xd3 build/stm32l4xx_hal_spi_ex.o
 .debug_aranges
                0x00000000       0x20 build/stm32l4xx_hal_spi_ex.o
 .debug_ranges  0x00000000       0x10 build/stm32l4xx_hal_spi_ex.o
 .debug_line    0x00000000      0x255 build/stm32l4xx_hal_spi_ex.o
 .debug_str     0x00000000      0x86f build/stm32l4xx_hal_spi_ex.o
 .comment       0x00000000       0x7a build/stm32l4xx_hal_spi_ex.o
 .debug_frame   0x00000000       0x30 build/stm32l4xx_hal_spi_ex.o
 .ARM.attributes
                0x00000000       0x34 build/stm32l4xx_hal_spi_ex.o
 .text          0x00000000        0x0 build/stm32l4xx_hal_tim.o
 .data          0x00000000        0x0 build/stm32l4xx_hal_tim.o
 .bss           0x00000000        0x0 build/stm32l4xx_hal_tim.o
 .debug_info    0x00000000      0x2e7 build/stm32l4xx_hal_tim.o
 .debug_abbrev  0x00000000       0xb7 build/stm32l4xx_hal_tim.o
 .debug_aranges
                0x00000000       0x18 build/stm32l4xx_hal_tim.o
 .debug_line    0x00000000      0x176 build/stm32l4xx_hal_tim.o
 .debug_str     0x00000000      0x467 build/stm32l4xx_hal_tim.o
 .comment       0x00000000       0x7a build/stm32l4xx_hal_tim.o
 .ARM.attributes
                0x00000000       0x39 build/stm32l4xx_hal_tim.o
 .text          0x00000000        0x0 build/stm32l4xx_hal_tim_ex.o
 .data          0x00000000        0x0 build/stm32l4xx_hal_tim_ex.o
 .bss           0x00000000        0x0 build/stm32l4xx_hal_tim_ex.o
 .debug_info    0x00000000      0x2e7 build/stm32l4xx_hal_tim_ex.o
 .debug_abbrev  0x00000000       0xb7 build/stm32l4xx_hal_tim_ex.o
 .debug_aranges
                0x00000000       0x18 build/stm32l4xx_hal_tim_ex.o
 .debug_line    0x00000000      0x176 build/stm32l4xx_hal_tim_ex.o
 .debug_str     0x00000000      0x46a build/stm32l4xx_hal_tim_ex.o
 .comment       0x00000000       0x7a build/stm32l4xx_hal_tim_ex.o
 .ARM.attributes
                0x00000000       0x39 build/stm32l4xx_hal_tim_ex.o
 .text          0x00000000        0x0 build/stm32l4xx_hal_uart.o
 .data          0x00000000        0x0 build/stm32l4xx_hal_uart.o
 .bss           0x00000000        0x0 build/stm32l4xx_hal_uart.o
 .text.UART_EndTxTransfer
                0x00000000       0x18 build/stm32l4xx_hal_uart.o
 .text.UART_TxISR_8BIT
                0x00000000       0x54 build/stm32l4xx_hal_uart.o
 .text.UART_TxISR_16BIT
                0x00000000       0x58 build/stm32l4xx_hal_uart.o
 .text.HAL_UART_MspInit
                0x00000000        0x2 build/stm32l4xx_hal_uart.o
 .text.HAL_UART_MspDeInit
                0x00000000        0x2 build/stm32l4xx_hal_uart.o
 .text.HAL_UART_DeInit
                0x00000000       0x3c build/stm32l4xx_hal_uart.o
 .text.HAL_UART_Transmit_IT
                0x00000000       0x78 build/stm32l4xx_hal_uart.o
 .text.HAL_UART_Transmit_DMA
                0x00000000       0xb8 build/stm32l4xx_hal_uart.o
 .text.HAL_UART_DMAPause
                0x00000000       0xa0 build/stm32l4xx_hal_uart.o
 .text.HAL_UART_DMAResume
                0x00000000       0x90 build/stm32l4xx_hal_uart.o
 .text.HAL_UART_DMAStop
                0x00000000       0xaa build/stm32l4xx_hal_uart.o
 .text.HAL_UART_Abort
                0x00000000      0x100 build/stm32l4xx_hal_uart.o
 .text.HAL_UART_AbortTransmit
                0x00000000       0x68 build/stm32l4xx_hal_uart.o
 .text.HAL_UART_AbortReceive
                0x00000000       0xae build/stm32l4xx_hal_uart.o
 .text.UART_DMATransmitCplt
                0x00000000       0x48 build/stm32l4xx_hal_uart.o
 .text.HAL_UART_TxHalfCpltCallback
                0x00000000        0x2 build/stm32l4xx_hal_uart.o
 .text.UART_DMATxHalfCplt
                0x00000000        0xa build/stm32l4xx_hal_uart.o
 .text.HAL_UART_RxHalfCpltCallback
                0x00000000        0x2 build/stm32l4xx_hal_uart.o
 .text.UART_DMAError
                0x00000000       0x54 build/stm32l4xx_hal_uart.o
 .text.HAL_UART_AbortCpltCallback
                0x00000000        0x2 build/stm32l4xx_hal_uart.o
 .text.HAL_UART_Abort_IT
                0x00000000      0x130 build/stm32l4xx_hal_uart.o
 .text.UART_DMARxAbortCallback
                0x00000000       0x40 build/stm32l4xx_hal_uart.o
 .text.UART_DMATxAbortCallback
                0x00000000       0x34 build/stm32l4xx_hal_uart.o
 .text.HAL_UART_AbortTransmitCpltCallback
                0x00000000        0x2 build/stm32l4xx_hal_uart.o
 .text.HAL_UART_AbortTransmit_IT
                0x00000000       0x80 build/stm32l4xx_hal_uart.o
 .text.UART_DMATxOnlyAbortCallback
                0x00000000       0x14 build/stm32l4xx_hal_uart.o
 .text.HAL_UART_AbortReceiveCpltCallback
                0x00000000        0x2 build/stm32l4xx_hal_uart.o
 .text.HAL_UART_AbortReceive_IT
                0x00000000       0xcc build/stm32l4xx_hal_uart.o
 .text.UART_DMARxOnlyAbortCallback
                0x00000000       0x28 build/stm32l4xx_hal_uart.o
 .text.HAL_UARTEx_RxEventCallback
                0x00000000        0x2 build/stm32l4xx_hal_uart.o
 .text.UART_DMARxHalfCplt
                0x00000000       0x1c build/stm32l4xx_hal_uart.o
 .text.UART_DMAReceiveCplt
                0x00000000       0x8c build/stm32l4xx_hal_uart.o
 .text.HAL_UART_ReceiverTimeout_Config
                0x00000000       0x18 build/stm32l4xx_hal_uart.o
 .text.HAL_UART_EnableReceiverTimeout
                0x00000000       0x48 build/stm32l4xx_hal_uart.o
 .text.HAL_UART_DisableReceiverTimeout
                0x00000000       0x48 build/stm32l4xx_hal_uart.o
 .text.HAL_MultiProcessor_EnterMuteMode
                0x00000000        0xe build/stm32l4xx_hal_uart.o
 .text.HAL_HalfDuplex_EnableTransmitter
                0x00000000       0x48 build/stm32l4xx_hal_uart.o
 .text.HAL_HalfDuplex_EnableReceiver
                0x00000000       0x48 build/stm32l4xx_hal_uart.o
 .text.HAL_LIN_SendBreak
                0x00000000       0x30 build/stm32l4xx_hal_uart.o
 .text.HAL_UART_GetState
                0x00000000        0x8 build/stm32l4xx_hal_uart.o
 .text.HAL_UART_GetError
                0x00000000        0x6 build/stm32l4xx_hal_uart.o
 .text.HAL_UART_Receive
                0x00000000      0x124 build/stm32l4xx_hal_uart.o
 .text.HAL_HalfDuplex_Init
                0x00000000       0x6e build/stm32l4xx_hal_uart.o
 .text.HAL_LIN_Init
                0x00000000       0x92 build/stm32l4xx_hal_uart.o
 .text.HAL_MultiProcessor_Init
                0x00000000       0x8a build/stm32l4xx_hal_uart.o
 .text.HAL_MultiProcessor_EnableMuteMode
                0x00000000       0x34 build/stm32l4xx_hal_uart.o
 .text.HAL_MultiProcessor_DisableMuteMode
                0x00000000       0x34 build/stm32l4xx_hal_uart.o
 .text.HAL_UART_Receive_IT
                0x00000000       0x5c build/stm32l4xx_hal_uart.o
 .text.UART_Start_Receive_DMA
                0x00000000       0xb0 build/stm32l4xx_hal_uart.o
 .text.HAL_UART_Receive_DMA
                0x00000000       0x5c build/stm32l4xx_hal_uart.o
 .text          0x00000000        0x0 build/stm32l4xx_hal_uart_ex.o
 .data          0x00000000        0x0 build/stm32l4xx_hal_uart_ex.o
 .bss           0x00000000        0x0 build/stm32l4xx_hal_uart_ex.o
 .text.UARTEx_Wakeup_AddressConfig
                0x00000000       0x2e build/stm32l4xx_hal_uart_ex.o
 .text.HAL_RS485Ex_Init
                0x00000000       0x82 build/stm32l4xx_hal_uart_ex.o
 .text.HAL_UARTEx_EnableClockStopMode
                0x00000000       0x34 build/stm32l4xx_hal_uart_ex.o
 .text.HAL_UARTEx_DisableClockStopMode
                0x00000000       0x34 build/stm32l4xx_hal_uart_ex.o
 .text.HAL_MultiProcessorEx_AddressLength_Set
                0x00000000       0x36 build/stm32l4xx_hal_uart_ex.o
 .text.HAL_UARTEx_StopModeWakeUpSourceConfig
                0x00000000       0x7e build/stm32l4xx_hal_uart_ex.o
 .text.HAL_UARTEx_ReceiveToIdle
                0x00000000      0x16c build/stm32l4xx_hal_uart_ex.o
 .text.HAL_UARTEx_ReceiveToIdle_DMA
                0x00000000       0x58 build/stm32l4xx_hal_uart_ex.o
 .text          0x00000000        0x0 build/system_stm32l4xx.o
 .data          0x00000000        0x0 build/system_stm32l4xx.o
 .bss           0x00000000        0x0 build/system_stm32l4xx.o
 .text.SystemCoreClockUpdate
                0x00000000       0xd8 build/system_stm32l4xx.o
 .text          0x00000000        0x0 build/SPI_FRAM.o
 .data          0x00000000        0x0 build/SPI_FRAM.o
 .bss           0x00000000        0x0 build/SPI_FRAM.o
 .text.check_supported_device
                0x00000000       0x48 build/SPI_FRAM.o
 .rodata._supported_devices
                0x00000000       0x40 build/SPI_FRAM.o
 .text          0x00000000        0x0 build/diskio.o
 .data          0x00000000        0x0 build/diskio.o
 .bss           0x00000000        0x0 build/diskio.o
 .text.get_fattime
                0x00000000        0x4 build/diskio.o
 .text          0x00000000        0x0 build/ff.o
 .data          0x00000000        0x0 build/ff.o
 .bss           0x00000000        0x0 build/ff.o
 .text.get_fileinfo
                0x00000000       0x66 build/ff.o
 .text.putc_init
                0x00000000        0xa build/ff.o
 .text.dir_remove
                0x00000000       0x1c build/ff.o
 .text.dir_read
                0x00000000       0x5e build/ff.o
 .text.f_read   0x00000000      0x1c4 build/ff.o
 .text.putc_bfd
                0x00000000       0x4e build/ff.o
 .text.putc_flush
                0x00000000       0x3a build/ff.o
 .text.f_opendir
                0x00000000       0x8a build/ff.o
 .text.f_closedir
                0x00000000       0x24 build/ff.o
 .text.f_readdir
                0x00000000       0x4e build/ff.o
 .text.f_stat   0x00000000       0x44 build/ff.o
 .text.f_getfree
                0x00000000       0xdc build/ff.o
 .text.f_truncate
                0x00000000       0xac build/ff.o
 .text.f_unlink
                0x00000000       0xb8 build/ff.o
 .text.f_mkdir  0x00000000      0x166 build/ff.o
 .text.f_rename
                0x00000000      0x128 build/ff.o
 .rodata.f_mkfs.str1.4
                0x00000000       0x34 build/ff.o
 .text.f_mkfs   0x00000000      0x684 build/ff.o
 .text.f_gets   0x00000000       0x4c build/ff.o
 .text.f_putc   0x00000000       0x1e build/ff.o
 .text.f_puts   0x00000000       0x24 build/ff.o
 .text.f_printf
                0x00000000      0x232 build/ff.o
 .rodata.cst.9898
                0x00000000        0xe build/ff.o
 .rodata.cst32.9899
                0x00000000        0xe build/ff.o
 .text          0x00000000        0x0 build/ff_gen_drv.o
 .data          0x00000000        0x0 build/ff_gen_drv.o
 .bss           0x00000000        0x0 build/ff_gen_drv.o
 .text.FATFS_GetAttachedDriversNbr
                0x00000000        0xc build/ff_gen_drv.o
 .text          0x00000000        0x0 build/syscall.o
 .data          0x00000000        0x0 build/syscall.o
 .bss           0x00000000        0x0 build/syscall.o
 .debug_info    0x00000000      0xc77 build/syscall.o
 .debug_abbrev  0x00000000      0x1b2 build/syscall.o
 .debug_aranges
                0x00000000       0x18 build/syscall.o
 .debug_line    0x00000000      0x221 build/syscall.o
 .debug_str     0x00000000      0x850 build/syscall.o
 .comment       0x00000000       0x7a build/syscall.o
 .ARM.attributes
                0x00000000       0x39 build/syscall.o
 .text          0x00000000        0x0 build/stm32l4xx_hal_crc.o
 .data          0x00000000        0x0 build/stm32l4xx_hal_crc.o
 .bss           0x00000000        0x0 build/stm32l4xx_hal_crc.o
 .text.CRC_Handle_8
                0x00000000       0x7e build/stm32l4xx_hal_crc.o
 .text.CRC_Handle_16
                0x00000000       0x4e build/stm32l4xx_hal_crc.o
 .text.HAL_CRC_MspInit
                0x00000000        0x2 build/stm32l4xx_hal_crc.o
 .text.HAL_CRC_MspDeInit
                0x00000000        0x2 build/stm32l4xx_hal_crc.o
 .text.HAL_CRC_DeInit
                0x00000000       0x36 build/stm32l4xx_hal_crc.o
 .text.HAL_CRC_Accumulate
                0x00000000       0x42 build/stm32l4xx_hal_crc.o
 .text.HAL_CRC_Calculate
                0x00000000       0x50 build/stm32l4xx_hal_crc.o
 .text.HAL_CRC_GetState
                0x00000000        0x4 build/stm32l4xx_hal_crc.o
 .text          0x00000000        0x0 build/stm32l4xx_hal_crc_ex.o
 .data          0x00000000        0x0 build/stm32l4xx_hal_crc_ex.o
 .bss           0x00000000        0x0 build/stm32l4xx_hal_crc_ex.o
 .text.HAL_CRCEx_Input_Data_Reverse
                0x00000000       0x18 build/stm32l4xx_hal_crc_ex.o
 .text.HAL_CRCEx_Output_Data_Reverse
                0x00000000       0x18 build/stm32l4xx_hal_crc_ex.o
 .text          0x00000000        0x0 build/stm32l4xx_hal_pcd.o
 .data          0x00000000        0x0 build/stm32l4xx_hal_pcd.o
 .bss           0x00000000        0x0 build/stm32l4xx_hal_pcd.o
 .text.HAL_PCD_MspInit
                0x00000000        0x2 build/stm32l4xx_hal_pcd.o
 .text.HAL_PCD_MspDeInit
                0x00000000        0x2 build/stm32l4xx_hal_pcd.o
 .text.HAL_PCD_DeInit
                0x00000000       0x2e build/stm32l4xx_hal_pcd.o
 .text.HAL_PCD_Stop
                0x00000000       0x2a build/stm32l4xx_hal_pcd.o
 .text.HAL_PCD_DataOutStageCallback
                0x00000000        0x2 build/stm32l4xx_hal_pcd.o
 .text.HAL_PCD_DataInStageCallback
                0x00000000        0x2 build/stm32l4xx_hal_pcd.o
 .text.HAL_PCD_SetupStageCallback
                0x00000000        0x2 build/stm32l4xx_hal_pcd.o
 .text.HAL_PCD_SOFCallback
                0x00000000        0x2 build/stm32l4xx_hal_pcd.o
 .text.HAL_PCD_ResetCallback
                0x00000000        0x2 build/stm32l4xx_hal_pcd.o
 .text.HAL_PCD_SuspendCallback
                0x00000000        0x2 build/stm32l4xx_hal_pcd.o
 .text.HAL_PCD_ResumeCallback
                0x00000000        0x2 build/stm32l4xx_hal_pcd.o
 .text.HAL_PCD_ISOOUTIncompleteCallback
                0x00000000        0x2 build/stm32l4xx_hal_pcd.o
 .text.HAL_PCD_ISOINIncompleteCallback
                0x00000000        0x2 build/stm32l4xx_hal_pcd.o
 .text.HAL_PCD_ConnectCallback
                0x00000000        0x2 build/stm32l4xx_hal_pcd.o
 .text.HAL_PCD_DisconnectCallback
                0x00000000        0x2 build/stm32l4xx_hal_pcd.o
 .text.HAL_PCD_DevConnect
                0x00000000       0x24 build/stm32l4xx_hal_pcd.o
 .text.HAL_PCD_DevDisconnect
                0x00000000       0x24 build/stm32l4xx_hal_pcd.o
 .text.HAL_PCD_EP_Abort
                0x00000000       0x34 build/stm32l4xx_hal_pcd.o
 .text.HAL_PCD_ActivateRemoteWakeup
                0x00000000        0xa build/stm32l4xx_hal_pcd.o
 .text.HAL_PCD_DeActivateRemoteWakeup
                0x00000000        0xa build/stm32l4xx_hal_pcd.o
 .text.HAL_PCD_GetState
                0x00000000        0x6 build/stm32l4xx_hal_pcd.o
 .text          0x00000000        0x0 build/stm32l4xx_hal_pcd_ex.o
 .data          0x00000000        0x0 build/stm32l4xx_hal_pcd_ex.o
 .bss           0x00000000        0x0 build/stm32l4xx_hal_pcd_ex.o
 .text.HAL_PCDEx_ActivateBCD
                0x00000000       0x48 build/stm32l4xx_hal_pcd_ex.o
 .text.HAL_PCDEx_DeActivateBCD
                0x00000000       0x1c build/stm32l4xx_hal_pcd_ex.o
 .text.HAL_PCDEx_DeActivateLPM
                0x00000000       0x2c build/stm32l4xx_hal_pcd_ex.o
 .text.HAL_PCDEx_LPM_Callback
                0x00000000        0x2 build/stm32l4xx_hal_pcd_ex.o
 .text.HAL_PCDEx_BCD_Callback
                0x00000000        0x2 build/stm32l4xx_hal_pcd_ex.o
 .text.HAL_PCDEx_BCD_VBUSDetect
                0x00000000       0xd2 build/stm32l4xx_hal_pcd_ex.o
 .text          0x00000000        0x0 build/stm32l4xx_ll_usb.o
 .data          0x00000000        0x0 build/stm32l4xx_ll_usb.o
 .bss           0x00000000        0x0 build/stm32l4xx_ll_usb.o
 .text.USB_EPStopXfer
                0x00000000       0x9e build/stm32l4xx_ll_usb.o
 .text.USB_StopDevice
                0x00000000       0x16 build/stm32l4xx_ll_usb.o
 .text.USB_ReadDevAllOutEpInterrupt
                0x00000000        0x4 build/stm32l4xx_ll_usb.o
 .text.USB_ReadDevAllInEpInterrupt
                0x00000000        0x4 build/stm32l4xx_ll_usb.o
 .text.USB_ReadDevOutEPInterrupt
                0x00000000        0x4 build/stm32l4xx_ll_usb.o
 .text.USB_ReadDevInEPInterrupt
                0x00000000        0x4 build/stm32l4xx_ll_usb.o
 .text.USB_ClearInterrupts
                0x00000000        0x2 build/stm32l4xx_ll_usb.o
 .text.USB_ActivateRemoteWakeup
                0x00000000       0x12 build/stm32l4xx_ll_usb.o
 .text.USB_DeActivateRemoteWakeup
                0x00000000       0x14 build/stm32l4xx_ll_usb.o
 .text          0x00000000        0x0 build/usb_device.o
 .data          0x00000000        0x0 build/usb_device.o
 .bss           0x00000000        0x0 build/usb_device.o
 .text          0x00000000        0x0 build/usbd_desc.o
 .data          0x00000000        0x0 build/usbd_desc.o
 .bss           0x00000000        0x0 build/usbd_desc.o
 .text          0x00000000        0x0 build/usbd_storage_if.o
 .data          0x00000000        0x0 build/usbd_storage_if.o
 .bss           0x00000000        0x0 build/usbd_storage_if.o
 COMMON         0x00000000      0x474 build/usbd_storage_if.o
 .text          0x00000000        0x0 build/usbd_conf.o
 .data          0x00000000        0x0 build/usbd_conf.o
 .bss           0x00000000        0x0 build/usbd_conf.o
 .text.HAL_PCD_MspDeInit
                0x00000000       0x34 build/usbd_conf.o
 .text.HAL_PCD_ISOOUTIncompleteCallback
                0x00000000        0xc build/usbd_conf.o
 .text.HAL_PCD_ISOINIncompleteCallback
                0x00000000        0xc build/usbd_conf.o
 .text.HAL_PCD_ConnectCallback
                0x00000000        0xc build/usbd_conf.o
 .text.HAL_PCD_DisconnectCallback
                0x00000000        0xc build/usbd_conf.o
 .text.USBD_LL_DeInit
                0x00000000       0x1e build/usbd_conf.o
 .text.USBD_LL_Stop
                0x00000000       0x1e build/usbd_conf.o
 .text.USBD_LL_Delay
                0x00000000        0x8 build/usbd_conf.o
 .text          0x00000000        0x0 build/usbd_core.o
 .data          0x00000000        0x0 build/usbd_core.o
 .bss           0x00000000        0x0 build/usbd_core.o
 .text.USBD_DeInit
                0x00000000       0x38 build/usbd_core.o
 .text.USBD_Stop
                0x00000000       0x1a build/usbd_core.o
 .text.USBD_RunTestMode
                0x00000000        0x4 build/usbd_core.o
 .text.USBD_LL_IsoINIncomplete
                0x00000000       0x28 build/usbd_core.o
 .text.USBD_LL_IsoOUTIncomplete
                0x00000000       0x28 build/usbd_core.o
 .text.USBD_LL_DevConnected
                0x00000000        0x4 build/usbd_core.o
 .text.USBD_LL_DevDisconnected
                0x00000000       0x18 build/usbd_core.o
 .text          0x00000000        0x0 build/usbd_ctlreq.o
 .data          0x00000000        0x0 build/usbd_ctlreq.o
 .bss           0x00000000        0x0 build/usbd_ctlreq.o
 .text          0x00000000        0x0 build/usbd_ioreq.o
 .data          0x00000000        0x0 build/usbd_ioreq.o
 .bss           0x00000000        0x0 build/usbd_ioreq.o
 .text.USBD_CtlPrepareRx
                0x00000000       0x1e build/usbd_ioreq.o
 .text.USBD_GetRxCount
                0x00000000        0x8 build/usbd_ioreq.o
 .text          0x00000000        0x0 build/usbd_msc.o
 .data          0x00000000        0x0 build/usbd_msc.o
 .bss           0x00000000        0x0 build/usbd_msc.o
 .text          0x00000000        0x0 build/usbd_msc_bot.o
 .data          0x00000000        0x0 build/usbd_msc_bot.o
 .bss           0x00000000        0x0 build/usbd_msc_bot.o
 .text          0x00000000        0x0 build/usbd_msc_data.o
 .data          0x00000000        0x0 build/usbd_msc_data.o
 .bss           0x00000000        0x0 build/usbd_msc_data.o
 .text          0x00000000        0x0 build/usbd_msc_scsi.o
 .data          0x00000000        0x0 build/usbd_msc_scsi.o
 .bss           0x00000000        0x0 build/usbd_msc_scsi.o
 .text          0x00000000       0x14 build/startup_stm32l412xx.o
 .data          0x00000000        0x0 build/startup_stm32l412xx.o
 .bss           0x00000000        0x0 build/startup_stm32l412xx.o
 .text          0x00000000        0x0 c:/ncs/v1.7.1/toolchain/opt/bin/../lib/gcc/arm-none-eabi/9.2.1/../../../../arm-none-eabi/lib/thumb/v7e-m+fp/hard\libc_nano.a(lib_a-exit.o)
 .data          0x00000000        0x0 c:/ncs/v1.7.1/toolchain/opt/bin/../lib/gcc/arm-none-eabi/9.2.1/../../../../arm-none-eabi/lib/thumb/v7e-m+fp/hard\libc_nano.a(lib_a-exit.o)
 .bss           0x00000000        0x0 c:/ncs/v1.7.1/toolchain/opt/bin/../lib/gcc/arm-none-eabi/9.2.1/../../../../arm-none-eabi/lib/thumb/v7e-m+fp/hard\libc_nano.a(lib_a-exit.o)
 .text.exit     0x00000000       0x28 c:/ncs/v1.7.1/toolchain/opt/bin/../lib/gcc/arm-none-eabi/9.2.1/../../../../arm-none-eabi/lib/thumb/v7e-m+fp/hard\libc_nano.a(lib_a-exit.o)
 .debug_frame   0x00000000       0x28 c:/ncs/v1.7.1/toolchain/opt/bin/../lib/gcc/arm-none-eabi/9.2.1/../../../../arm-none-eabi/lib/thumb/v7e-m+fp/hard\libc_nano.a(lib_a-exit.o)
 .ARM.attributes
                0x00000000       0x34 c:/ncs/v1.7.1/toolchain/opt/bin/../lib/gcc/arm-none-eabi/9.2.1/../../../../arm-none-eabi/lib/thumb/v7e-m+fp/hard\libc_nano.a(lib_a-exit.o)
 .text          0x00000000        0x0 c:/ncs/v1.7.1/toolchain/opt/bin/../lib/gcc/arm-none-eabi/9.2.1/../../../../arm-none-eabi/lib/thumb/v7e-m+fp/hard\libc_nano.a(lib_a-impure.o)
 .data          0x00000000        0x0 c:/ncs/v1.7.1/toolchain/opt/bin/../lib/gcc/arm-none-eabi/9.2.1/../../../../arm-none-eabi/lib/thumb/v7e-m+fp/hard\libc_nano.a(lib_a-impure.o)
 .bss           0x00000000        0x0 c:/ncs/v1.7.1/toolchain/opt/bin/../lib/gcc/arm-none-eabi/9.2.1/../../../../arm-none-eabi/lib/thumb/v7e-m+fp/hard\libc_nano.a(lib_a-impure.o)
 .rodata._global_impure_ptr
                0x00000000        0x4 c:/ncs/v1.7.1/toolchain/opt/bin/../lib/gcc/arm-none-eabi/9.2.1/../../../../arm-none-eabi/lib/thumb/v7e-m+fp/hard\libc_nano.a(lib_a-impure.o)
 .text          0x00000000        0x0 c:/ncs/v1.7.1/toolchain/opt/bin/../lib/gcc/arm-none-eabi/9.2.1/../../../../arm-none-eabi/lib/thumb/v7e-m+fp/hard\libc_nano.a(lib_a-init.o)
 .data          0x00000000        0x0 c:/ncs/v1.7.1/toolchain/opt/bin/../lib/gcc/arm-none-eabi/9.2.1/../../../../arm-none-eabi/lib/thumb/v7e-m+fp/hard\libc_nano.a(lib_a-init.o)
 .bss           0x00000000        0x0 c:/ncs/v1.7.1/toolchain/opt/bin/../lib/gcc/arm-none-eabi/9.2.1/../../../../arm-none-eabi/lib/thumb/v7e-m+fp/hard\libc_nano.a(lib_a-init.o)
 .text          0x00000000        0x0 c:/ncs/v1.7.1/toolchain/opt/bin/../lib/gcc/arm-none-eabi/9.2.1/../../../../arm-none-eabi/lib/thumb/v7e-m+fp/hard\libc_nano.a(lib_a-memset.o)
 .data          0x00000000        0x0 c:/ncs/v1.7.1/toolchain/opt/bin/../lib/gcc/arm-none-eabi/9.2.1/../../../../arm-none-eabi/lib/thumb/v7e-m+fp/hard\libc_nano.a(lib_a-memset.o)
 .bss           0x00000000        0x0 c:/ncs/v1.7.1/toolchain/opt/bin/../lib/gcc/arm-none-eabi/9.2.1/../../../../arm-none-eabi/lib/thumb/v7e-m+fp/hard\libc_nano.a(lib_a-memset.o)
 .text          0x00000000        0x0 c:/ncs/v1.7.1/toolchain/opt/bin/../lib/gcc/arm-none-eabi/9.2.1/../../../../arm-none-eabi/lib/thumb/v7e-m+fp/hard\libc_nano.a(lib_a-sprintf.o)
 .data          0x00000000        0x0 c:/ncs/v1.7.1/toolchain/opt/bin/../lib/gcc/arm-none-eabi/9.2.1/../../../../arm-none-eabi/lib/thumb/v7e-m+fp/hard\libc_nano.a(lib_a-sprintf.o)
 .bss           0x00000000        0x0 c:/ncs/v1.7.1/toolchain/opt/bin/../lib/gcc/arm-none-eabi/9.2.1/../../../../arm-none-eabi/lib/thumb/v7e-m+fp/hard\libc_nano.a(lib_a-sprintf.o)
 .text._sprintf_r
                0x00000000       0x38 c:/ncs/v1.7.1/toolchain/opt/bin/../lib/gcc/arm-none-eabi/9.2.1/../../../../arm-none-eabi/lib/thumb/v7e-m+fp/hard\libc_nano.a(lib_a-sprintf.o)
 .text          0x00000000        0x0 c:/ncs/v1.7.1/toolchain/opt/bin/../lib/gcc/arm-none-eabi/9.2.1/../../../../arm-none-eabi/lib/thumb/v7e-m+fp/hard\libc_nano.a(lib_a-strcat.o)
 .data          0x00000000        0x0 c:/ncs/v1.7.1/toolchain/opt/bin/../lib/gcc/arm-none-eabi/9.2.1/../../../../arm-none-eabi/lib/thumb/v7e-m+fp/hard\libc_nano.a(lib_a-strcat.o)
 .bss           0x00000000        0x0 c:/ncs/v1.7.1/toolchain/opt/bin/../lib/gcc/arm-none-eabi/9.2.1/../../../../arm-none-eabi/lib/thumb/v7e-m+fp/hard\libc_nano.a(lib_a-strcat.o)
 .data          0x00000000        0x0 c:/ncs/v1.7.1/toolchain/opt/bin/../lib/gcc/arm-none-eabi/9.2.1/../../../../arm-none-eabi/lib/thumb/v7e-m+fp/hard\libc_nano.a(lib_a-strlen.o)
 .bss           0x00000000        0x0 c:/ncs/v1.7.1/toolchain/opt/bin/../lib/gcc/arm-none-eabi/9.2.1/../../../../arm-none-eabi/lib/thumb/v7e-m+fp/hard\libc_nano.a(lib_a-strlen.o)
 .text          0x00000000        0x0 c:/ncs/v1.7.1/toolchain/opt/bin/../lib/gcc/arm-none-eabi/9.2.1/../../../../arm-none-eabi/lib/thumb/v7e-m+fp/hard\libc_nano.a(lib_a-strncpy.o)
 .data          0x00000000        0x0 c:/ncs/v1.7.1/toolchain/opt/bin/../lib/gcc/arm-none-eabi/9.2.1/../../../../arm-none-eabi/lib/thumb/v7e-m+fp/hard\libc_nano.a(lib_a-strncpy.o)
 .bss           0x00000000        0x0 c:/ncs/v1.7.1/toolchain/opt/bin/../lib/gcc/arm-none-eabi/9.2.1/../../../../arm-none-eabi/lib/thumb/v7e-m+fp/hard\libc_nano.a(lib_a-strncpy.o)
 .text          0x00000000        0x0 c:/ncs/v1.7.1/toolchain/opt/bin/../lib/gcc/arm-none-eabi/9.2.1/../../../../arm-none-eabi/lib/thumb/v7e-m+fp/hard\libc_nano.a(lib_a-vsnprintf.o)
 .data          0x00000000        0x0 c:/ncs/v1.7.1/toolchain/opt/bin/../lib/gcc/arm-none-eabi/9.2.1/../../../../arm-none-eabi/lib/thumb/v7e-m+fp/hard\libc_nano.a(lib_a-vsnprintf.o)
 .bss           0x00000000        0x0 c:/ncs/v1.7.1/toolchain/opt/bin/../lib/gcc/arm-none-eabi/9.2.1/../../../../arm-none-eabi/lib/thumb/v7e-m+fp/hard\libc_nano.a(lib_a-vsnprintf.o)
 .text          0x00000000        0x0 c:/ncs/v1.7.1/toolchain/opt/bin/../lib/gcc/arm-none-eabi/9.2.1/../../../../arm-none-eabi/lib/thumb/v7e-m+fp/hard\libc_nano.a(lib_a-nano-svfprintf.o)
 .data          0x00000000        0x0 c:/ncs/v1.7.1/toolchain/opt/bin/../lib/gcc/arm-none-eabi/9.2.1/../../../../arm-none-eabi/lib/thumb/v7e-m+fp/hard\libc_nano.a(lib_a-nano-svfprintf.o)
 .bss           0x00000000        0x0 c:/ncs/v1.7.1/toolchain/opt/bin/../lib/gcc/arm-none-eabi/9.2.1/../../../../arm-none-eabi/lib/thumb/v7e-m+fp/hard\libc_nano.a(lib_a-nano-svfprintf.o)
 .text.__ssprint_r
                0x00000000       0xf6 c:/ncs/v1.7.1/toolchain/opt/bin/../lib/gcc/arm-none-eabi/9.2.1/../../../../arm-none-eabi/lib/thumb/v7e-m+fp/hard\libc_nano.a(lib_a-nano-svfprintf.o)
 .text          0x00000000        0x0 c:/ncs/v1.7.1/toolchain/opt/bin/../lib/gcc/arm-none-eabi/9.2.1/../../../../arm-none-eabi/lib/thumb/v7e-m+fp/hard\libc_nano.a(lib_a-nano-vfprintf_i.o)
 .data          0x00000000        0x0 c:/ncs/v1.7.1/toolchain/opt/bin/../lib/gcc/arm-none-eabi/9.2.1/../../../../arm-none-eabi/lib/thumb/v7e-m+fp/hard\libc_nano.a(lib_a-nano-vfprintf_i.o)
 .bss           0x00000000        0x0 c:/ncs/v1.7.1/toolchain/opt/bin/../lib/gcc/arm-none-eabi/9.2.1/../../../../arm-none-eabi/lib/thumb/v7e-m+fp/hard\libc_nano.a(lib_a-nano-vfprintf_i.o)
 .data          0x00000000        0x0 c:/ncs/v1.7.1/toolchain/opt/bin/../lib/gcc/arm-none-eabi/9.2.1/../../../../arm-none-eabi/lib/thumb/v7e-m+fp/hard\libc_nano.a(lib_a-memchr.o)
 .bss           0x00000000        0x0 c:/ncs/v1.7.1/toolchain/opt/bin/../lib/gcc/arm-none-eabi/9.2.1/../../../../arm-none-eabi/lib/thumb/v7e-m+fp/hard\libc_nano.a(lib_a-memchr.o)
 .text          0x00000000        0x0 c:/ncs/v1.7.1/toolchain/opt/bin/../lib/gcc/arm-none-eabi/9.2.1/../../../../arm-none-eabi/lib/thumb/v7e-m+fp/hard\libc_nano.a(lib_a-memcpy-stub.o)
 .data          0x00000000        0x0 c:/ncs/v1.7.1/toolchain/opt/bin/../lib/gcc/arm-none-eabi/9.2.1/../../../../arm-none-eabi/lib/thumb/v7e-m+fp/hard\libc_nano.a(lib_a-memcpy-stub.o)
 .bss           0x00000000        0x0 c:/ncs/v1.7.1/toolchain/opt/bin/../lib/gcc/arm-none-eabi/9.2.1/../../../../arm-none-eabi/lib/thumb/v7e-m+fp/hard\libc_nano.a(lib_a-memcpy-stub.o)
 .text          0x00000000        0x0 c:/ncs/v1.7.1/toolchain/opt/bin/../lib/gcc/arm-none-eabi/9.2.1/../../../../arm-none-eabi/lib/thumb/v7e-m+fp/hard\libc_nano.a(lib_a-memmove.o)
 .data          0x00000000        0x0 c:/ncs/v1.7.1/toolchain/opt/bin/../lib/gcc/arm-none-eabi/9.2.1/../../../../arm-none-eabi/lib/thumb/v7e-m+fp/hard\libc_nano.a(lib_a-memmove.o)
 .bss           0x00000000        0x0 c:/ncs/v1.7.1/toolchain/opt/bin/../lib/gcc/arm-none-eabi/9.2.1/../../../../arm-none-eabi/lib/thumb/v7e-m+fp/hard\libc_nano.a(lib_a-memmove.o)
 .text          0x00000000        0x0 c:/ncs/v1.7.1/toolchain/opt/bin/../lib/gcc/arm-none-eabi/9.2.1/../../../../arm-none-eabi/lib/thumb/v7e-m+fp/hard\libc_nano.a(lib_a-nano-freer.o)
 .data          0x00000000        0x0 c:/ncs/v1.7.1/toolchain/opt/bin/../lib/gcc/arm-none-eabi/9.2.1/../../../../arm-none-eabi/lib/thumb/v7e-m+fp/hard\libc_nano.a(lib_a-nano-freer.o)
 .bss           0x00000000        0x0 c:/ncs/v1.7.1/toolchain/opt/bin/../lib/gcc/arm-none-eabi/9.2.1/../../../../arm-none-eabi/lib/thumb/v7e-m+fp/hard\libc_nano.a(lib_a-nano-freer.o)
 .text          0x00000000        0x0 c:/ncs/v1.7.1/toolchain/opt/bin/../lib/gcc/arm-none-eabi/9.2.1/../../../../arm-none-eabi/lib/thumb/v7e-m+fp/hard\libc_nano.a(lib_a-nano-mallocr.o)
 .data          0x00000000        0x0 c:/ncs/v1.7.1/toolchain/opt/bin/../lib/gcc/arm-none-eabi/9.2.1/../../../../arm-none-eabi/lib/thumb/v7e-m+fp/hard\libc_nano.a(lib_a-nano-mallocr.o)
 .bss           0x00000000        0x0 c:/ncs/v1.7.1/toolchain/opt/bin/../lib/gcc/arm-none-eabi/9.2.1/../../../../arm-none-eabi/lib/thumb/v7e-m+fp/hard\libc_nano.a(lib_a-nano-mallocr.o)
 .text          0x00000000        0x0 c:/ncs/v1.7.1/toolchain/opt/bin/../lib/gcc/arm-none-eabi/9.2.1/../../../../arm-none-eabi/lib/thumb/v7e-m+fp/hard\libc_nano.a(lib_a-nano-reallocr.o)
 .data          0x00000000        0x0 c:/ncs/v1.7.1/toolchain/opt/bin/../lib/gcc/arm-none-eabi/9.2.1/../../../../arm-none-eabi/lib/thumb/v7e-m+fp/hard\libc_nano.a(lib_a-nano-reallocr.o)
 .bss           0x00000000        0x0 c:/ncs/v1.7.1/toolchain/opt/bin/../lib/gcc/arm-none-eabi/9.2.1/../../../../arm-none-eabi/lib/thumb/v7e-m+fp/hard\libc_nano.a(lib_a-nano-reallocr.o)
 .text          0x00000000        0x0 c:/ncs/v1.7.1/toolchain/opt/bin/../lib/gcc/arm-none-eabi/9.2.1/../../../../arm-none-eabi/lib/thumb/v7e-m+fp/hard\libc_nano.a(lib_a-sbrkr.o)
 .data          0x00000000        0x0 c:/ncs/v1.7.1/toolchain/opt/bin/../lib/gcc/arm-none-eabi/9.2.1/../../../../arm-none-eabi/lib/thumb/v7e-m+fp/hard\libc_nano.a(lib_a-sbrkr.o)
 .bss           0x00000000        0x0 c:/ncs/v1.7.1/toolchain/opt/bin/../lib/gcc/arm-none-eabi/9.2.1/../../../../arm-none-eabi/lib/thumb/v7e-m+fp/hard\libc_nano.a(lib_a-sbrkr.o)
 .text          0x00000000        0x0 c:/ncs/v1.7.1/toolchain/opt/bin/../lib/gcc/arm-none-eabi/9.2.1/../../../../arm-none-eabi/lib/thumb/v7e-m+fp/hard\libc_nano.a(lib_a-mlock.o)
 .data          0x00000000        0x0 c:/ncs/v1.7.1/toolchain/opt/bin/../lib/gcc/arm-none-eabi/9.2.1/../../../../arm-none-eabi/lib/thumb/v7e-m+fp/hard\libc_nano.a(lib_a-mlock.o)
 .bss           0x00000000        0x0 c:/ncs/v1.7.1/toolchain/opt/bin/../lib/gcc/arm-none-eabi/9.2.1/../../../../arm-none-eabi/lib/thumb/v7e-m+fp/hard\libc_nano.a(lib_a-mlock.o)
 .text          0x00000000        0x0 c:/ncs/v1.7.1/toolchain/opt/bin/../lib/gcc/arm-none-eabi/9.2.1/../../../../arm-none-eabi/lib/thumb/v7e-m+fp/hard\libc_nano.a(lib_a-nano-msizer.o)
 .data          0x00000000        0x0 c:/ncs/v1.7.1/toolchain/opt/bin/../lib/gcc/arm-none-eabi/9.2.1/../../../../arm-none-eabi/lib/thumb/v7e-m+fp/hard\libc_nano.a(lib_a-nano-msizer.o)
 .bss           0x00000000        0x0 c:/ncs/v1.7.1/toolchain/opt/bin/../lib/gcc/arm-none-eabi/9.2.1/../../../../arm-none-eabi/lib/thumb/v7e-m+fp/hard\libc_nano.a(lib_a-nano-msizer.o)
 .text          0x00000000        0x0 c:/ncs/v1.7.1/toolchain/opt/bin/../lib/gcc/arm-none-eabi/9.2.1/../../../../arm-none-eabi/lib/thumb/v7e-m+fp/hard\libc_nano.a(lib_a-reent.o)
 .data          0x00000000        0x0 c:/ncs/v1.7.1/toolchain/opt/bin/../lib/gcc/arm-none-eabi/9.2.1/../../../../arm-none-eabi/lib/thumb/v7e-m+fp/hard\libc_nano.a(lib_a-reent.o)
 .bss           0x00000000        0x0 c:/ncs/v1.7.1/toolchain/opt/bin/../lib/gcc/arm-none-eabi/9.2.1/../../../../arm-none-eabi/lib/thumb/v7e-m+fp/hard\libc_nano.a(lib_a-reent.o)
 .text.cleanup_glue
                0x00000000       0x1a c:/ncs/v1.7.1/toolchain/opt/bin/../lib/gcc/arm-none-eabi/9.2.1/../../../../arm-none-eabi/lib/thumb/v7e-m+fp/hard\libc_nano.a(lib_a-reent.o)
 .text._reclaim_reent
                0x00000000       0xb8 c:/ncs/v1.7.1/toolchain/opt/bin/../lib/gcc/arm-none-eabi/9.2.1/../../../../arm-none-eabi/lib/thumb/v7e-m+fp/hard\libc_nano.a(lib_a-reent.o)
 .text          0x00000000        0x0 c:/ncs/v1.7.1/toolchain/opt/bin/../lib/gcc/arm-none-eabi/9.2.1/../../../../arm-none-eabi/lib/thumb/v7e-m+fp/hard\libc_nano.a(lib_a-lock.o)
 .data          0x00000000        0x0 c:/ncs/v1.7.1/toolchain/opt/bin/../lib/gcc/arm-none-eabi/9.2.1/../../../../arm-none-eabi/lib/thumb/v7e-m+fp/hard\libc_nano.a(lib_a-lock.o)
 .bss           0x00000000        0x0 c:/ncs/v1.7.1/toolchain/opt/bin/../lib/gcc/arm-none-eabi/9.2.1/../../../../arm-none-eabi/lib/thumb/v7e-m+fp/hard\libc_nano.a(lib_a-lock.o)
 .text.__retarget_lock_init
                0x00000000        0x2 c:/ncs/v1.7.1/toolchain/opt/bin/../lib/gcc/arm-none-eabi/9.2.1/../../../../arm-none-eabi/lib/thumb/v7e-m+fp/hard\libc_nano.a(lib_a-lock.o)
 .text.__retarget_lock_init_recursive
                0x00000000        0x2 c:/ncs/v1.7.1/toolchain/opt/bin/../lib/gcc/arm-none-eabi/9.2.1/../../../../arm-none-eabi/lib/thumb/v7e-m+fp/hard\libc_nano.a(lib_a-lock.o)
 .text.__retarget_lock_close
                0x00000000        0x2 c:/ncs/v1.7.1/toolchain/opt/bin/../lib/gcc/arm-none-eabi/9.2.1/../../../../arm-none-eabi/lib/thumb/v7e-m+fp/hard\libc_nano.a(lib_a-lock.o)
 .text.__retarget_lock_close_recursive
                0x00000000        0x2 c:/ncs/v1.7.1/toolchain/opt/bin/../lib/gcc/arm-none-eabi/9.2.1/../../../../arm-none-eabi/lib/thumb/v7e-m+fp/hard\libc_nano.a(lib_a-lock.o)
 .text.__retarget_lock_acquire
                0x00000000        0x2 c:/ncs/v1.7.1/toolchain/opt/bin/../lib/gcc/arm-none-eabi/9.2.1/../../../../arm-none-eabi/lib/thumb/v7e-m+fp/hard\libc_nano.a(lib_a-lock.o)
 .text.__retarget_lock_try_acquire
                0x00000000        0x4 c:/ncs/v1.7.1/toolchain/opt/bin/../lib/gcc/arm-none-eabi/9.2.1/../../../../arm-none-eabi/lib/thumb/v7e-m+fp/hard\libc_nano.a(lib_a-lock.o)
 .text.__retarget_lock_try_acquire_recursive
                0x00000000        0x4 c:/ncs/v1.7.1/toolchain/opt/bin/../lib/gcc/arm-none-eabi/9.2.1/../../../../arm-none-eabi/lib/thumb/v7e-m+fp/hard\libc_nano.a(lib_a-lock.o)
 .text.__retarget_lock_release
                0x00000000        0x2 c:/ncs/v1.7.1/toolchain/opt/bin/../lib/gcc/arm-none-eabi/9.2.1/../../../../arm-none-eabi/lib/thumb/v7e-m+fp/hard\libc_nano.a(lib_a-lock.o)
 .text          0x00000000        0x0 c:/ncs/v1.7.1/toolchain/opt/bin/../lib/gcc/arm-none-eabi/9.2.1/../../../../arm-none-eabi/lib/thumb/v7e-m+fp/hard\libnosys.a(sbrk.o)
 .data          0x00000000        0x0 c:/ncs/v1.7.1/toolchain/opt/bin/../lib/gcc/arm-none-eabi/9.2.1/../../../../arm-none-eabi/lib/thumb/v7e-m+fp/hard\libnosys.a(sbrk.o)
 .bss           0x00000000        0x0 c:/ncs/v1.7.1/toolchain/opt/bin/../lib/gcc/arm-none-eabi/9.2.1/../../../../arm-none-eabi/lib/thumb/v7e-m+fp/hard\libnosys.a(sbrk.o)
 .text          0x00000000        0x0 c:/ncs/v1.7.1/toolchain/opt/bin/../lib/gcc/arm-none-eabi/9.2.1/../../../../arm-none-eabi/lib/thumb/v7e-m+fp/hard\libnosys.a(_exit.o)
 .data          0x00000000        0x0 c:/ncs/v1.7.1/toolchain/opt/bin/../lib/gcc/arm-none-eabi/9.2.1/../../../../arm-none-eabi/lib/thumb/v7e-m+fp/hard\libnosys.a(_exit.o)
 .bss           0x00000000        0x0 c:/ncs/v1.7.1/toolchain/opt/bin/../lib/gcc/arm-none-eabi/9.2.1/../../../../arm-none-eabi/lib/thumb/v7e-m+fp/hard\libnosys.a(_exit.o)
 .text._exit    0x00000000        0x4 c:/ncs/v1.7.1/toolchain/opt/bin/../lib/gcc/arm-none-eabi/9.2.1/../../../../arm-none-eabi/lib/thumb/v7e-m+fp/hard\libnosys.a(_exit.o)
 .debug_frame   0x00000000       0x20 c:/ncs/v1.7.1/toolchain/opt/bin/../lib/gcc/arm-none-eabi/9.2.1/../../../../arm-none-eabi/lib/thumb/v7e-m+fp/hard\libnosys.a(_exit.o)
 .ARM.attributes
                0x00000000       0x34 c:/ncs/v1.7.1/toolchain/opt/bin/../lib/gcc/arm-none-eabi/9.2.1/../../../../arm-none-eabi/lib/thumb/v7e-m+fp/hard\libnosys.a(_exit.o)
 .data          0x00000000        0x0 c:/ncs/v1.7.1/toolchain/opt/bin/../lib/gcc/arm-none-eabi/9.2.1/thumb/v7e-m+fp/hard\libgcc.a(_aeabi_uldivmod.o)
 .bss           0x00000000        0x0 c:/ncs/v1.7.1/toolchain/opt/bin/../lib/gcc/arm-none-eabi/9.2.1/thumb/v7e-m+fp/hard\libgcc.a(_aeabi_uldivmod.o)
 .data          0x00000000        0x0 c:/ncs/v1.7.1/toolchain/opt/bin/../lib/gcc/arm-none-eabi/9.2.1/thumb/v7e-m+fp/hard\libgcc.a(_udivmoddi4.o)
 .bss           0x00000000        0x0 c:/ncs/v1.7.1/toolchain/opt/bin/../lib/gcc/arm-none-eabi/9.2.1/thumb/v7e-m+fp/hard\libgcc.a(_udivmoddi4.o)
 .ARM.extab     0x00000000        0x0 c:/ncs/v1.7.1/toolchain/opt/bin/../lib/gcc/arm-none-eabi/9.2.1/thumb/v7e-m+fp/hard\libgcc.a(_udivmoddi4.o)
 .data          0x00000000        0x0 c:/ncs/v1.7.1/toolchain/opt/bin/../lib/gcc/arm-none-eabi/9.2.1/thumb/v7e-m+fp/hard\libgcc.a(_dvmd_tls.o)
 .bss           0x00000000        0x0 c:/ncs/v1.7.1/toolchain/opt/bin/../lib/gcc/arm-none-eabi/9.2.1/thumb/v7e-m+fp/hard\libgcc.a(_dvmd_tls.o)
 .text          0x00000000        0x0 c:/ncs/v1.7.1/toolchain/opt/bin/../lib/gcc/arm-none-eabi/9.2.1/thumb/v7e-m+fp/hard/crtend.o
 .data          0x00000000        0x0 c:/ncs/v1.7.1/toolchain/opt/bin/../lib/gcc/arm-none-eabi/9.2.1/thumb/v7e-m+fp/hard/crtend.o
 .bss           0x00000000        0x0 c:/ncs/v1.7.1/toolchain/opt/bin/../lib/gcc/arm-none-eabi/9.2.1/thumb/v7e-m+fp/hard/crtend.o
 .eh_frame      0x00000000        0x4 c:/ncs/v1.7.1/toolchain/opt/bin/../lib/gcc/arm-none-eabi/9.2.1/thumb/v7e-m+fp/hard/crtend.o
 .ARM.attributes
                0x00000000       0x32 c:/ncs/v1.7.1/toolchain/opt/bin/../lib/gcc/arm-none-eabi/9.2.1/thumb/v7e-m+fp/hard/crtend.o
 .text          0x00000000        0x0 c:/ncs/v1.7.1/toolchain/opt/bin/../lib/gcc/arm-none-eabi/9.2.1/thumb/v7e-m+fp/hard/crtn.o
 .data          0x00000000        0x0 c:/ncs/v1.7.1/toolchain/opt/bin/../lib/gcc/arm-none-eabi/9.2.1/thumb/v7e-m+fp/hard/crtn.o
 .bss           0x00000000        0x0 c:/ncs/v1.7.1/toolchain/opt/bin/../lib/gcc/arm-none-eabi/9.2.1/thumb/v7e-m+fp/hard/crtn.o

Memory Configuration

Name             Origin             Length             Attributes
RAM              0x20000000         0x0000a000         xrw
RAM2             0x10000000         0x00002000         xrw
FLASH            0x08000000         0x00020000         xr
*default*        0x00000000         0xffffffff

Linker script and memory map

LOAD c:/ncs/v1.7.1/toolchain/opt/bin/../lib/gcc/arm-none-eabi/9.2.1/thumb/v7e-m+fp/hard/crti.o
LOAD c:/ncs/v1.7.1/toolchain/opt/bin/../lib/gcc/arm-none-eabi/9.2.1/thumb/v7e-m+fp/hard/crtbegin.o
LOAD c:/ncs/v1.7.1/toolchain/opt/bin/../lib/gcc/arm-none-eabi/9.2.1/../../../../arm-none-eabi/lib/thumb/v7e-m+fp/hard/crt0.o
LOAD build/main.o
LOAD build/stm32l4xx_it.o
LOAD build/stm32l4xx_hal_msp.o
LOAD build/user_diskio.o
LOAD build/user_diskio_spi.o
LOAD build/fatfs.o
LOAD build/stm32l4xx_hal.o
LOAD build/stm32l4xx_hal_i2c.o
LOAD build/stm32l4xx_hal_i2c_ex.o
LOAD build/stm32l4xx_hal_rcc.o
LOAD build/stm32l4xx_hal_rcc_ex.o
LOAD build/stm32l4xx_hal_flash.o
LOAD build/stm32l4xx_hal_flash_ex.o
LOAD build/stm32l4xx_hal_flash_ramfunc.o
LOAD build/stm32l4xx_hal_gpio.o
LOAD build/stm32l4xx_hal_dma.o
LOAD build/stm32l4xx_hal_dma_ex.o
LOAD build/stm32l4xx_hal_pwr.o
LOAD build/stm32l4xx_hal_pwr_ex.o
LOAD build/stm32l4xx_hal_cortex.o
LOAD build/stm32l4xx_hal_exti.o
LOAD build/stm32l4xx_hal_spi.o
LOAD build/stm32l4xx_hal_spi_ex.o
LOAD build/stm32l4xx_hal_tim.o
LOAD build/stm32l4xx_hal_tim_ex.o
LOAD build/stm32l4xx_hal_uart.o
LOAD build/stm32l4xx_hal_uart_ex.o
LOAD build/system_stm32l4xx.o
LOAD build/SPI_FRAM.o
LOAD build/diskio.o
LOAD build/ff.o
LOAD build/ff_gen_drv.o
LOAD build/syscall.o
LOAD build/stm32l4xx_hal_crc.o
LOAD build/stm32l4xx_hal_crc_ex.o
LOAD build/stm32l4xx_hal_pcd.o
LOAD build/stm32l4xx_hal_pcd_ex.o
LOAD build/stm32l4xx_ll_usb.o
LOAD build/usb_device.o
LOAD build/usbd_desc.o
LOAD build/usbd_storage_if.o
LOAD build/usbd_conf.o
LOAD build/usbd_core.o
LOAD build/usbd_ctlreq.o
LOAD build/usbd_ioreq.o
LOAD build/usbd_msc.o
LOAD build/usbd_msc_bot.o
LOAD build/usbd_msc_data.o
LOAD build/usbd_msc_scsi.o
LOAD build/startup_stm32l412xx.o
LOAD c:/ncs/v1.7.1/toolchain/opt/bin/../lib/gcc/arm-none-eabi/9.2.1/../../../../arm-none-eabi/lib/thumb/v7e-m+fp/hard\libc_nano.a
LOAD c:/ncs/v1.7.1/toolchain/opt/bin/../lib/gcc/arm-none-eabi/9.2.1/../../../../arm-none-eabi/lib/thumb/v7e-m+fp/hard\libm.a
LOAD c:/ncs/v1.7.1/toolchain/opt/bin/../lib/gcc/arm-none-eabi/9.2.1/../../../../arm-none-eabi/lib/thumb/v7e-m+fp/hard\libnosys.a
START GROUP
LOAD c:/ncs/v1.7.1/toolchain/opt/bin/../lib/gcc/arm-none-eabi/9.2.1/thumb/v7e-m+fp/hard\libgcc.a
LOAD c:/ncs/v1.7.1/toolchain/opt/bin/../lib/gcc/arm-none-eabi/9.2.1/../../../../arm-none-eabi/lib/thumb/v7e-m+fp/hard\libc_nano.a
END GROUP
START GROUP
LOAD c:/ncs/v1.7.1/toolchain/opt/bin/../lib/gcc/arm-none-eabi/9.2.1/thumb/v7e-m+fp/hard\libgcc.a
LOAD c:/ncs/v1.7.1/toolchain/opt/bin/../lib/gcc/arm-none-eabi/9.2.1/../../../../arm-none-eabi/lib/thumb/v7e-m+fp/hard\libc_nano.a
END GROUP
LOAD c:/ncs/v1.7.1/toolchain/opt/bin/../lib/gcc/arm-none-eabi/9.2.1/thumb/v7e-m+fp/hard/crtend.o
LOAD c:/ncs/v1.7.1/toolchain/opt/bin/../lib/gcc/arm-none-eabi/9.2.1/thumb/v7e-m+fp/hard/crtn.o
                0x2000a000                _estack = (ORIGIN (RAM) + LENGTH (RAM))
                0x00000200                _Min_Heap_Size = 0x200
                0x00000400                _Min_Stack_Size = 0x400

.isr_vector     0x08000000      0x190
                0x08000000                . = ALIGN (0x8)
 *(.isr_vector)
 .isr_vector    0x08000000      0x18c build/startup_stm32l412xx.o
                0x08000000                g_pfnVectors
                0x08000190                . = ALIGN (0x8)
 *fill*         0x0800018c        0x4 

.text           0x08000190     0xa658
                0x08000190                . = ALIGN (0x8)
 *(.text)
 .text          0x08000190       0x40 c:/ncs/v1.7.1/toolchain/opt/bin/../lib/gcc/arm-none-eabi/9.2.1/thumb/v7e-m+fp/hard/crtbegin.o
 .text          0x080001d0       0x10 c:/ncs/v1.7.1/toolchain/opt/bin/../lib/gcc/arm-none-eabi/9.2.1/../../../../arm-none-eabi/lib/thumb/v7e-m+fp/hard\libc_nano.a(lib_a-strlen.o)
                0x080001d0                strlen
 .text          0x080001e0       0xa0 c:/ncs/v1.7.1/toolchain/opt/bin/../lib/gcc/arm-none-eabi/9.2.1/../../../../arm-none-eabi/lib/thumb/v7e-m+fp/hard\libc_nano.a(lib_a-memchr.o)
                0x080001e0                memchr
 .text          0x08000280       0x30 c:/ncs/v1.7.1/toolchain/opt/bin/../lib/gcc/arm-none-eabi/9.2.1/thumb/v7e-m+fp/hard\libgcc.a(_aeabi_uldivmod.o)
                0x08000280                __aeabi_uldivmod
 .text          0x080002b0      0x2c4 c:/ncs/v1.7.1/toolchain/opt/bin/../lib/gcc/arm-none-eabi/9.2.1/thumb/v7e-m+fp/hard\libgcc.a(_udivmoddi4.o)
                0x080002b0                __udivmoddi4
 .text          0x08000574        0x4 c:/ncs/v1.7.1/toolchain/opt/bin/../lib/gcc/arm-none-eabi/9.2.1/thumb/v7e-m+fp/hard\libgcc.a(_dvmd_tls.o)
                0x08000574                __aeabi_idiv0
                0x08000574                __aeabi_ldiv0
 *(.text*)
 .text.__NVIC_SystemReset
                0x08000578       0x24 build/main.o
 .text.MX_GPIO_Init
                0x0800059c       0xc4 build/main.o
 .text.turn_off_spi_FRAM
                0x08000660       0x44 build/main.o
 .text.turn_off_spi_SD
                0x080006a4       0x44 build/main.o
 .text.myprintf
                0x080006e8       0x40 build/main.o
                0x080006e8                myprintf
 .text.USB_init
                0x08000728       0x3c build/main.o
                0x08000728                USB_init
 .text.HAL_UARTEx_RxEventCallback
                0x08000764       0x70 build/main.o
                0x08000764                HAL_UARTEx_RxEventCallback
 .text.Error_Handler
                0x080007d4        0x4 build/main.o
                0x080007d4                Error_Handler
 .text.MX_SPI1_Init
                0x080007d8       0x4c build/main.o
 .text.MX_SPI2_Init
                0x08000824       0x48 build/main.o
 .text.newLog   0x0800086c      0x2a8 build/main.o
                0x0800086c                newLog
 .text.appendFile
                0x08000b14      0x144 build/main.o
                0x08000b14                appendFile
 .text.buffer_sync
                0x08000c58       0xe8 build/main.o
                0x08000c58                buffer_sync
 .text.MX_USART2_UART_Init
                0x08000d40       0x38 build/main.o
 .text.MX_CRC_Init
                0x08000d78       0x2c build/main.o
 .text.SystemClock_Config
                0x08000da4       0x72 build/main.o
                0x08000da4                SystemClock_Config
 *fill*         0x08000e16        0x2 
 .text.Stop_Mode_Entry
                0x08000e18       0x6c build/main.o
                0x08000e18                Stop_Mode_Entry
 .text.appendDATA
                0x08000e84      0x1b8 build/main.o
                0x08000e84                appendDATA
 .text.main     0x0800103c       0xf8 build/main.o
                0x0800103c                main
 .text.NMI_Handler
                0x08001134        0x2 build/stm32l4xx_it.o
                0x08001134                NMI_Handler
 .text.HardFault_Handler
                0x08001136        0x2 build/stm32l4xx_it.o
                0x08001136                HardFault_Handler
 .text.MemManage_Handler
                0x08001138        0x2 build/stm32l4xx_it.o
                0x08001138                MemManage_Handler
 .text.BusFault_Handler
                0x0800113a        0x2 build/stm32l4xx_it.o
                0x0800113a                BusFault_Handler
 .text.UsageFault_Handler
                0x0800113c        0x2 build/stm32l4xx_it.o
                0x0800113c                UsageFault_Handler
 .text.SVC_Handler
                0x0800113e        0x2 build/stm32l4xx_it.o
                0x0800113e                SVC_Handler
 .text.DebugMon_Handler
                0x08001140        0x2 build/stm32l4xx_it.o
                0x08001140                DebugMon_Handler
 .text.PendSV_Handler
                0x08001142        0x2 build/stm32l4xx_it.o
                0x08001142                PendSV_Handler
 .text.SysTick_Handler
                0x08001144        0x8 build/stm32l4xx_it.o
                0x08001144                SysTick_Handler
 .text.USART2_IRQHandler
                0x0800114c       0x10 build/stm32l4xx_it.o
                0x0800114c                USART2_IRQHandler
 .text.USB_IRQHandler
                0x0800115c       0x10 build/stm32l4xx_it.o
                0x0800115c                USB_IRQHandler
 .text.HAL_MspInit
                0x0800116c       0x30 build/stm32l4xx_hal_msp.o
                0x0800116c                HAL_MspInit
 .text.HAL_CRC_MspInit
                0x0800119c       0x2c build/stm32l4xx_hal_msp.o
                0x0800119c                HAL_CRC_MspInit
 .text.HAL_SPI_MspInit
                0x080011c8       0xc0 build/stm32l4xx_hal_msp.o
                0x080011c8                HAL_SPI_MspInit
 .text.HAL_SPI_MspDeInit
                0x08001288       0x50 build/stm32l4xx_hal_msp.o
                0x08001288                HAL_SPI_MspDeInit
 .text.HAL_UART_MspInit
                0x080012d8       0x9c build/stm32l4xx_hal_msp.o
                0x080012d8                HAL_UART_MspInit
 .text.USER_initialize
                0x08001374        0xa build/user_diskio.o
                0x08001374                USER_initialize
 .text.USER_status
                0x0800137e        0xa build/user_diskio.o
                0x0800137e                USER_status
 .text.USER_read
                0x08001388        0xa build/user_diskio.o
                0x08001388                USER_read
 .text.USER_write
                0x08001392        0xa build/user_diskio.o
                0x08001392                USER_write
 .text.USER_ioctl
                0x0800139c        0xa build/user_diskio.o
                0x0800139c                USER_ioctl
 *fill*         0x080013a6        0x2 
 .text.xchg_spi
                0x080013a8       0x2c build/user_diskio_spi.o
 .text.wait_ready
                0x080013d4       0x2a build/user_diskio_spi.o
 .text.rcvr_spi_multi
                0x080013fe       0x1a build/user_diskio_spi.o
 .text.xmit_spi_multi
                0x08001418       0x18 build/user_diskio_spi.o
 .text.xmit_datablock
                0x08001430       0x4c build/user_diskio_spi.o
 .text.despiselect
                0x0800147c       0x1c build/user_diskio_spi.o
 .text.spiselect
                0x08001498       0x30 build/user_diskio_spi.o
 .text.send_cmd
                0x080014c8       0x8c build/user_diskio_spi.o
 .text.SPI_Timer_On
                0x08001554       0x1c build/user_diskio_spi.o
                0x08001554                SPI_Timer_On
 .text.SPI_Timer_Status
                0x08001570       0x24 build/user_diskio_spi.o
                0x08001570                SPI_Timer_Status
 .text.rcvr_datablock
                0x08001594       0x40 build/user_diskio_spi.o
 .text.USER_SPI_initialize
                0x080015d4      0x168 build/user_diskio_spi.o
                0x080015d4                USER_SPI_initialize
 .text.USER_SPI_status
                0x0800173c       0x14 build/user_diskio_spi.o
                0x0800173c                USER_SPI_status
 .text.USER_SPI_read
                0x08001750       0x8c build/user_diskio_spi.o
                0x08001750                USER_SPI_read
 .text.USER_SPI_write
                0x080017dc       0xb0 build/user_diskio_spi.o
                0x080017dc                USER_SPI_write
 .text.USER_SPI_ioctl
                0x0800188c      0x224 build/user_diskio_spi.o
                0x0800188c                USER_SPI_ioctl
 .text.MX_FATFS_Init
                0x08001ab0       0x1c build/fatfs.o
                0x08001ab0                MX_FATFS_Init
 .text.get_fattime
                0x08001acc        0x4 build/fatfs.o
                0x08001acc                get_fattime
 .text.HAL_InitTick
                0x08001ad0       0x50 build/stm32l4xx_hal.o
                0x08001ad0                HAL_InitTick
 .text.HAL_Init
                0x08001b20       0x1e build/stm32l4xx_hal.o
                0x08001b20                HAL_Init
 *fill*         0x08001b3e        0x2 
 .text.HAL_IncTick
                0x08001b40       0x18 build/stm32l4xx_hal.o
                0x08001b40                HAL_IncTick
 .text.HAL_GetTick
                0x08001b58        0xc build/stm32l4xx_hal.o
                0x08001b58                HAL_GetTick
 .text.HAL_Delay
                0x08001b64       0x28 build/stm32l4xx_hal.o
                0x08001b64                HAL_Delay
 .text.HAL_SuspendTick
                0x08001b8c       0x10 build/stm32l4xx_hal.o
                0x08001b8c                HAL_SuspendTick
 .text.HAL_ResumeTick
                0x08001b9c       0x10 build/stm32l4xx_hal.o
                0x08001b9c                HAL_ResumeTick
 .text.HAL_DBGMCU_DisableDBGSleepMode
                0x08001bac       0x10 build/stm32l4xx_hal.o
                0x08001bac                HAL_DBGMCU_DisableDBGSleepMode
 .text.HAL_DBGMCU_DisableDBGStopMode
                0x08001bbc       0x10 build/stm32l4xx_hal.o
                0x08001bbc                HAL_DBGMCU_DisableDBGStopMode
 .text.HAL_DBGMCU_DisableDBGStandbyMode
                0x08001bcc       0x10 build/stm32l4xx_hal.o
                0x08001bcc                HAL_DBGMCU_DisableDBGStandbyMode
 .text.RCC_SetFlashLatencyFromMSIRange
                0x08001bdc       0x90 build/stm32l4xx_hal_rcc.o
 .text.HAL_RCC_GetSysClockFreq
                0x08001c6c       0xb4 build/stm32l4xx_hal_rcc.o
                0x08001c6c                HAL_RCC_GetSysClockFreq
 .text.HAL_RCC_OscConfig
                0x08001d20      0x6dc build/stm32l4xx_hal_rcc.o
                0x08001d20                HAL_RCC_OscConfig
 .text.HAL_RCC_ClockConfig
                0x080023fc      0x188 build/stm32l4xx_hal_rcc.o
                0x080023fc                HAL_RCC_ClockConfig
 .text.HAL_RCC_GetHCLKFreq
                0x08002584        0xc build/stm32l4xx_hal_rcc.o
                0x08002584                HAL_RCC_GetHCLKFreq
 .text.HAL_RCC_GetPCLK1Freq
                0x08002590       0x24 build/stm32l4xx_hal_rcc.o
                0x08002590                HAL_RCC_GetPCLK1Freq
 .text.HAL_RCC_GetPCLK2Freq
                0x080025b4       0x24 build/stm32l4xx_hal_rcc.o
                0x080025b4                HAL_RCC_GetPCLK2Freq
 .text.HAL_RCCEx_PeriphCLKConfig
                0x080025d8      0x234 build/stm32l4xx_hal_rcc_ex.o
                0x080025d8                HAL_RCCEx_PeriphCLKConfig
 .text.HAL_GPIO_Init
                0x0800280c      0x194 build/stm32l4xx_hal_gpio.o
                0x0800280c                HAL_GPIO_Init
 .text.HAL_GPIO_DeInit
                0x080029a0       0xfc build/stm32l4xx_hal_gpio.o
                0x080029a0                HAL_GPIO_DeInit
 .text.HAL_GPIO_ReadPin
                0x08002a9c        0xe build/stm32l4xx_hal_gpio.o
                0x08002a9c                HAL_GPIO_ReadPin
 .text.HAL_GPIO_WritePin
                0x08002aaa        0xa build/stm32l4xx_hal_gpio.o
                0x08002aaa                HAL_GPIO_WritePin
 .text.HAL_DMA_Abort
                0x08002ab4       0x4a build/stm32l4xx_hal_dma.o
                0x08002ab4                HAL_DMA_Abort
 .text.HAL_DMA_Abort_IT
                0x08002afe       0x50 build/stm32l4xx_hal_dma.o
                0x08002afe                HAL_DMA_Abort_IT
 *fill*         0x08002b4e        0x2 
 .text.HAL_PWREx_GetVoltageRange
                0x08002b50       0x10 build/stm32l4xx_hal_pwr_ex.o
                0x08002b50                HAL_PWREx_GetVoltageRange
 .text.HAL_PWREx_ControlVoltageScaling
                0x08002b60       0x90 build/stm32l4xx_hal_pwr_ex.o
                0x08002b60                HAL_PWREx_ControlVoltageScaling
 .text.HAL_PWREx_EnableVddUSB
                0x08002bf0       0x10 build/stm32l4xx_hal_pwr_ex.o
                0x08002bf0                HAL_PWREx_EnableVddUSB
 .text.HAL_PWREx_EnterSTOP1Mode
                0x08002c00       0x3c build/stm32l4xx_hal_pwr_ex.o
                0x08002c00                HAL_PWREx_EnterSTOP1Mode
 .text.HAL_NVIC_SetPriorityGrouping
                0x08002c3c       0x24 build/stm32l4xx_hal_cortex.o
                0x08002c3c                HAL_NVIC_SetPriorityGrouping
 .text.HAL_NVIC_SetPriority
                0x08002c60       0x68 build/stm32l4xx_hal_cortex.o
                0x08002c60                HAL_NVIC_SetPriority
 .text.HAL_NVIC_EnableIRQ
                0x08002cc8       0x1c build/stm32l4xx_hal_cortex.o
                0x08002cc8                HAL_NVIC_EnableIRQ
 .text.HAL_SYSTICK_Config
                0x08002ce4       0x2c build/stm32l4xx_hal_cortex.o
                0x08002ce4                HAL_SYSTICK_Config
 .text.SPI_WaitFlagStateUntilTimeout
                0x08002d10       0xd0 build/stm32l4xx_hal_spi.o
 .text.SPI_WaitFifoStateUntilTimeout
                0x08002de0       0xf4 build/stm32l4xx_hal_spi.o
 .text.SPI_EndRxTxTransaction
                0x08002ed4       0x62 build/stm32l4xx_hal_spi.o
 .text.SPI_EndRxTransaction
                0x08002f36       0x82 build/stm32l4xx_hal_spi.o
 .text.HAL_SPI_Init
                0x08002fb8       0xde build/stm32l4xx_hal_spi.o
                0x08002fb8                HAL_SPI_Init
 .text.HAL_SPI_DeInit
                0x08003096       0x2c build/stm32l4xx_hal_spi.o
                0x08003096                HAL_SPI_DeInit
 .text.HAL_SPI_Transmit
                0x080030c2      0x1f8 build/stm32l4xx_hal_spi.o
                0x080030c2                HAL_SPI_Transmit
 .text.HAL_SPI_TransmitReceive
                0x080032ba      0x2de build/stm32l4xx_hal_spi.o
                0x080032ba                HAL_SPI_TransmitReceive
 .text.HAL_SPI_Receive
                0x08003598      0x1a2 build/stm32l4xx_hal_spi.o
                0x08003598                HAL_SPI_Receive
 .text.UART_EndRxTransfer
                0x0800373a       0x50 build/stm32l4xx_hal_uart.o
 .text.HAL_UART_TxCpltCallback
                0x0800378a        0x2 build/stm32l4xx_hal_uart.o
                0x0800378a                HAL_UART_TxCpltCallback
 .text.UART_EndTransmit_IT
                0x0800378c       0x22 build/stm32l4xx_hal_uart.o
 .text.HAL_UART_RxCpltCallback
                0x080037ae        0x2 build/stm32l4xx_hal_uart.o
                0x080037ae                HAL_UART_RxCpltCallback
 .text.HAL_UART_ErrorCallback
                0x080037b0        0x2 build/stm32l4xx_hal_uart.o
                0x080037b0                HAL_UART_ErrorCallback
 .text.UART_DMAAbortOnError
                0x080037b2       0x14 build/stm32l4xx_hal_uart.o
 *fill*         0x080037c6        0x2 
 .text.HAL_UART_IRQHandler
                0x080037c8      0x2e4 build/stm32l4xx_hal_uart.o
                0x080037c8                HAL_UART_IRQHandler
 .text.UART_RxISR_8BIT
                0x08003aac       0xb0 build/stm32l4xx_hal_uart.o
 .text.UART_RxISR_16BIT
                0x08003b5c       0xae build/stm32l4xx_hal_uart.o
 *fill*         0x08003c0a        0x2 
 .text.UART_SetConfig
                0x08003c0c      0x29c build/stm32l4xx_hal_uart.o
                0x08003c0c                UART_SetConfig
 .text.UART_AdvFeatureConfig
                0x08003ea8       0xca build/stm32l4xx_hal_uart.o
                0x08003ea8                UART_AdvFeatureConfig
 .text.UART_WaitOnFlagUntilTimeout
                0x08003f72       0xd0 build/stm32l4xx_hal_uart.o
                0x08003f72                UART_WaitOnFlagUntilTimeout
 .text.HAL_UART_Transmit
                0x08004042       0xd8 build/stm32l4xx_hal_uart.o
                0x08004042                HAL_UART_Transmit
 .text.UART_CheckIdleState
                0x0800411a       0x70 build/stm32l4xx_hal_uart.o
                0x0800411a                UART_CheckIdleState
 .text.HAL_UART_Init
                0x0800418a       0x62 build/stm32l4xx_hal_uart.o
                0x0800418a                HAL_UART_Init
 .text.UART_Start_Receive_IT
                0x080041ec       0xd8 build/stm32l4xx_hal_uart.o
                0x080041ec                UART_Start_Receive_IT
 .text.HAL_UARTEx_WakeupCallback
                0x080042c4        0x2 build/stm32l4xx_hal_uart_ex.o
                0x080042c4                HAL_UARTEx_WakeupCallback
 .text.HAL_UARTEx_EnableStopMode
                0x080042c6       0x2e build/stm32l4xx_hal_uart_ex.o
                0x080042c6                HAL_UARTEx_EnableStopMode
 .text.HAL_UARTEx_DisableStopMode
                0x080042f4       0x2e build/stm32l4xx_hal_uart_ex.o
                0x080042f4                HAL_UARTEx_DisableStopMode
 .text.HAL_UARTEx_ReceiveToIdle_IT
                0x08004322       0x58 build/stm32l4xx_hal_uart_ex.o
                0x08004322                HAL_UARTEx_ReceiveToIdle_IT
 *fill*         0x0800437a        0x2 
 .text.SystemInit
                0x0800437c       0x14 build/system_stm32l4xx.o
                0x0800437c                SystemInit
 .text.FRAM_writeEnable
                0x08004390       0x44 build/SPI_FRAM.o
                0x08004390                FRAM_writeEnable
 .text.FRAM_sleepEnable
                0x080043d4       0x5c build/SPI_FRAM.o
                0x080043d4                FRAM_sleepEnable
 .text.FRAM_write8
                0x08004430       0x88 build/SPI_FRAM.o
                0x08004430                FRAM_write8
 .text.FRAM_write
                0x080044b8       0x36 build/SPI_FRAM.o
                0x080044b8                FRAM_write
 *fill*         0x080044ee        0x2 
 .text.FRAM_read8
                0x080044f0       0x94 build/SPI_FRAM.o
                0x080044f0                FRAM_read8
 .text.FRAM_read
                0x08004584       0x3c build/SPI_FRAM.o
                0x08004584                FRAM_read
 .text.FRAM_getID
                0x080045c0       0x80 build/SPI_FRAM.o
                0x080045c0                FRAM_getID
 .text.setAddressSize
                0x08004640        0xc build/SPI_FRAM.o
                0x08004640                setAddressSize
 .text.FRAM_begin
                0x0800464c       0x20 build/SPI_FRAM.o
                0x0800464c                FRAM_begin
 .text.disk_status
                0x0800466c       0x18 build/diskio.o
                0x0800466c                disk_status
 .text.disk_initialize
                0x08004684       0x28 build/diskio.o
                0x08004684                disk_initialize
 .text.disk_read
                0x080046ac       0x18 build/diskio.o
                0x080046ac                disk_read
 .text.disk_write
                0x080046c4       0x18 build/diskio.o
                0x080046c4                disk_write
 .text.disk_ioctl
                0x080046dc       0x18 build/diskio.o
                0x080046dc                disk_ioctl
 .text.ld_word  0x080046f4        0xa build/ff.o
 .text.ld_dword
                0x080046fe       0x16 build/ff.o
 .text.st_word  0x08004714        0x8 build/ff.o
 .text.st_dword
                0x0800471c       0x14 build/ff.o
 .text.mem_cpy  0x08004730       0x18 build/ff.o
 .text.mem_set  0x08004748        0xa build/ff.o
 .text.mem_cmp  0x08004752       0x1c build/ff.o
 .text.chk_chr  0x0800476e       0x10 build/ff.o
 *fill*         0x0800477e        0x2 
 .text.chk_lock
                0x08004780       0x74 build/ff.o
 .text.enq_lock
                0x080047f4       0x20 build/ff.o
 .text.inc_lock
                0x08004814       0xa4 build/ff.o
 .text.dec_lock
                0x080048b8       0x40 build/ff.o
 .text.clear_lock
                0x080048f8       0x3c build/ff.o
 .text.clust2sect
                0x08004934       0x18 build/ff.o
 .text.clmt_clust
                0x0800494c       0x22 build/ff.o
 .text.ld_clust
                0x0800496e       0x26 build/ff.o
 .text.st_clust
                0x08004994       0x26 build/ff.o
 *fill*         0x080049ba        0x2 
 .text.create_name
                0x080049bc       0xcc build/ff.o
 .text.get_ldnumber
                0x08004a88       0x54 build/ff.o
 .text.validate
                0x08004adc       0x46 build/ff.o
 .text.sync_window
                0x08004b22       0x52 build/ff.o
 .text.move_window
                0x08004b74       0x36 build/ff.o
 *fill*         0x08004baa        0x2 
 .text.check_fs
                0x08004bac       0x78 build/ff.o
 .text.find_volume
                0x08004c24      0x300 build/ff.o
 .text.put_fat  0x08004f24      0x10e build/ff.o
 .text.get_fat  0x08005032       0xd0 build/ff.o
 .text.dir_sdi  0x08005102       0xac build/ff.o
 .text.create_chain
                0x080051ae       0xcc build/ff.o
 .text.remove_chain
                0x0800527a       0x7e build/ff.o
 .text.dir_next
                0x080052f8      0x108 build/ff.o
 .text.dir_find
                0x08005400       0x5a build/ff.o
 .text.follow_path
                0x0800545a       0x8e build/ff.o
 .text.dir_alloc
                0x080054e8       0x50 build/ff.o
 .text.dir_register
                0x08005538       0x3e build/ff.o
 *fill*         0x08005576        0x2 
 .text.sync_fs  0x08005578       0x8c build/ff.o
 .text.f_mount  0x08005604       0x5c build/ff.o
                0x08005604                f_mount
 .text.f_open   0x08005660      0x226 build/ff.o
                0x08005660                f_open
 .text.f_write  0x08005886      0x200 build/ff.o
                0x08005886                f_write
 .text.f_sync   0x08005a86       0x98 build/ff.o
                0x08005a86                f_sync
 .text.f_close  0x08005b1e       0x2a build/ff.o
                0x08005b1e                f_close
 .text.f_lseek  0x08005b48      0x298 build/ff.o
                0x08005b48                f_lseek
 .text.FATFS_LinkDriverEx
                0x08005de0       0x48 build/ff_gen_drv.o
                0x08005de0                FATFS_LinkDriverEx
 .text.FATFS_LinkDriver
                0x08005e28        0xa build/ff_gen_drv.o
                0x08005e28                FATFS_LinkDriver
 *fill*         0x08005e32        0x2 
 .text.FATFS_UnLinkDriverEx
                0x08005e34       0x3c build/ff_gen_drv.o
                0x08005e34                FATFS_UnLinkDriverEx
 .text.FATFS_UnLinkDriver
                0x08005e70        0xa build/ff_gen_drv.o
                0x08005e70                FATFS_UnLinkDriver
 *fill*         0x08005e7a        0x2 
 .text.HAL_CRC_Init
                0x08005e7c       0x80 build/stm32l4xx_hal_crc.o
                0x08005e7c                HAL_CRC_Init
 .text.HAL_CRCEx_Polynomial_Set
                0x08005efc       0x6e build/stm32l4xx_hal_crc_ex.o
                0x08005efc                HAL_CRCEx_Polynomial_Set
 .text.HAL_PCD_EP_DB_Receive
                0x08005f6a      0x10e build/stm32l4xx_hal_pcd.o
 .text.HAL_PCD_Init
                0x08006078      0x126 build/stm32l4xx_hal_pcd.o
                0x08006078                HAL_PCD_Init
 .text.HAL_PCD_Start
                0x0800619e       0x2a build/stm32l4xx_hal_pcd.o
                0x0800619e                HAL_PCD_Start
 .text.HAL_PCD_EP_DB_Transmit
                0x080061c8      0x410 build/stm32l4xx_hal_pcd.o
 .text.PCD_EP_ISR_Handler
                0x080065d8      0x54a build/stm32l4xx_hal_pcd.o
 .text.HAL_PCD_SetAddress
                0x08006b22       0x28 build/stm32l4xx_hal_pcd.o
                0x08006b22                HAL_PCD_SetAddress
 .text.HAL_PCD_IRQHandler
                0x08006b4a      0x1b2 build/stm32l4xx_hal_pcd.o
                0x08006b4a                HAL_PCD_IRQHandler
 .text.HAL_PCD_EP_Open
                0x08006cfc       0x84 build/stm32l4xx_hal_pcd.o
                0x08006cfc                HAL_PCD_EP_Open
 .text.HAL_PCD_EP_Close
                0x08006d80       0x6a build/stm32l4xx_hal_pcd.o
                0x08006d80                HAL_PCD_EP_Close
 .text.HAL_PCD_EP_Receive
                0x08006dea       0x46 build/stm32l4xx_hal_pcd.o
                0x08006dea                HAL_PCD_EP_Receive
 .text.HAL_PCD_EP_GetRxCount
                0x08006e30       0x12 build/stm32l4xx_hal_pcd.o
                0x08006e30                HAL_PCD_EP_GetRxCount
 .text.HAL_PCD_EP_Transmit
                0x08006e42       0x4a build/stm32l4xx_hal_pcd.o
                0x08006e42                HAL_PCD_EP_Transmit
 .text.HAL_PCD_EP_SetStall
                0x08006e8c       0x84 build/stm32l4xx_hal_pcd.o
                0x08006e8c                HAL_PCD_EP_SetStall
 .text.HAL_PCD_EP_ClrStall
                0x08006f10       0x82 build/stm32l4xx_hal_pcd.o
                0x08006f10                HAL_PCD_EP_ClrStall
 .text.HAL_PCD_EP_Flush
                0x08006f92       0x36 build/stm32l4xx_hal_pcd.o
                0x08006f92                HAL_PCD_EP_Flush
 .text.HAL_PCDEx_PMAConfig
                0x08006fc8       0x3c build/stm32l4xx_hal_pcd_ex.o
                0x08006fc8                HAL_PCDEx_PMAConfig
 .text.HAL_PCDEx_ActivateLPM
                0x08007004       0x2c build/stm32l4xx_hal_pcd_ex.o
                0x08007004                HAL_PCDEx_ActivateLPM
 .text.USB_CoreInit
                0x08007030        0xe build/stm32l4xx_ll_usb.o
                0x08007030                USB_CoreInit
 .text.USB_EnableGlobalInt
                0x0800703e       0x12 build/stm32l4xx_ll_usb.o
                0x0800703e                USB_EnableGlobalInt
 .text.USB_DisableGlobalInt
                0x08007050       0x14 build/stm32l4xx_ll_usb.o
                0x08007050                USB_DisableGlobalInt
 .text.USB_SetCurrentMode
                0x08007064        0x4 build/stm32l4xx_ll_usb.o
                0x08007064                USB_SetCurrentMode
 .text.USB_DevInit
                0x08007068       0x28 build/stm32l4xx_ll_usb.o
                0x08007068                USB_DevInit
 .text.USB_FlushTxFifo
                0x08007090        0x4 build/stm32l4xx_ll_usb.o
                0x08007090                USB_FlushTxFifo
 .text.USB_FlushRxFifo
                0x08007094        0x4 build/stm32l4xx_ll_usb.o
                0x08007094                USB_FlushRxFifo
 .text.USB_ActivateEndpoint
                0x08007098      0x386 build/stm32l4xx_ll_usb.o
                0x08007098                USB_ActivateEndpoint
 .text.USB_DeactivateEndpoint
                0x0800741e      0x1d6 build/stm32l4xx_ll_usb.o
                0x0800741e                USB_DeactivateEndpoint
 .text.USB_EPSetStall
                0x080075f4       0x4a build/stm32l4xx_ll_usb.o
                0x080075f4                USB_EPSetStall
 .text.USB_EPClearStall
                0x0800763e       0xa2 build/stm32l4xx_ll_usb.o
                0x0800763e                USB_EPClearStall
 .text.USB_SetDevAddress
                0x080076e0        0xc build/stm32l4xx_ll_usb.o
                0x080076e0                USB_SetDevAddress
 .text.USB_DevConnect
                0x080076ec       0x16 build/stm32l4xx_ll_usb.o
                0x080076ec                USB_DevConnect
 .text.USB_DevDisconnect
                0x08007702       0x10 build/stm32l4xx_ll_usb.o
                0x08007702                USB_DevDisconnect
 .text.USB_ReadInterrupts
                0x08007712        0x8 build/stm32l4xx_ll_usb.o
                0x08007712                USB_ReadInterrupts
 .text.USB_EP0_OutStart
                0x0800771a        0x4 build/stm32l4xx_ll_usb.o
                0x0800771a                USB_EP0_OutStart
 .text.USB_WritePMA
                0x0800771e       0x26 build/stm32l4xx_ll_usb.o
                0x0800771e                USB_WritePMA
 .text.USB_EPStartXfer
                0x08007744      0x760 build/stm32l4xx_ll_usb.o
                0x08007744                USB_EPStartXfer
 .text.USB_ReadPMA
                0x08007ea4       0x2e build/stm32l4xx_ll_usb.o
                0x08007ea4                USB_ReadPMA
 *fill*         0x08007ed2        0x2 
 .text.MX_USB_DEVICE_Init
                0x08007ed4       0x54 build/usb_device.o
                0x08007ed4                MX_USB_DEVICE_Init
 .text.USBD_FS_DeviceDescriptor
                0x08007f28        0xc build/usbd_desc.o
                0x08007f28                USBD_FS_DeviceDescriptor
 .text.USBD_FS_LangIDStrDescriptor
                0x08007f34        0xc build/usbd_desc.o
                0x08007f34                USBD_FS_LangIDStrDescriptor
 .text.USBD_FS_USR_BOSDescriptor
                0x08007f40        0xc build/usbd_desc.o
                0x08007f40                USBD_FS_USR_BOSDescriptor
 .text.IntToUnicode
                0x08007f4c       0x38 build/usbd_desc.o
 .text.Get_SerialNum
                0x08007f84       0x34 build/usbd_desc.o
 .text.USBD_FS_SerialStrDescriptor
                0x08007fb8       0x14 build/usbd_desc.o
                0x08007fb8                USBD_FS_SerialStrDescriptor
 .text.USBD_FS_ProductStrDescriptor
                0x08007fcc       0x24 build/usbd_desc.o
                0x08007fcc                USBD_FS_ProductStrDescriptor
 .text.USBD_FS_ManufacturerStrDescriptor
                0x08007ff0       0x1c build/usbd_desc.o
                0x08007ff0                USBD_FS_ManufacturerStrDescriptor
 .text.USBD_FS_ConfigStrDescriptor
                0x0800800c       0x24 build/usbd_desc.o
                0x0800800c                USBD_FS_ConfigStrDescriptor
 .text.USBD_FS_InterfaceStrDescriptor
                0x08008030       0x24 build/usbd_desc.o
                0x08008030                USBD_FS_InterfaceStrDescriptor
 .text.STORAGE_GetCapacity_FS
                0x08008054       0x10 build/usbd_storage_if.o
 .text.STORAGE_IsWriteProtected_FS
                0x08008064        0x4 build/usbd_storage_if.o
 .text.STORAGE_GetMaxLun_FS
                0x08008068        0x4 build/usbd_storage_if.o
 .text.STORAGE_Write_FS
                0x0800806c       0x12 build/usbd_storage_if.o
 .text.STORAGE_Read_FS
                0x0800807e       0x12 build/usbd_storage_if.o
 .text.STORAGE_IsReady_FS
                0x08008090       0x12 build/usbd_storage_if.o
 .text.STORAGE_Init_FS
                0x080080a2        0xc build/usbd_storage_if.o
 .text.SystemClockConfig_Resume
                0x080080ae        0x8 build/usbd_conf.o
 *fill*         0x080080b6        0x2 
 .text.HAL_PCD_MspInit
                0x080080b8       0xa0 build/usbd_conf.o
                0x080080b8                HAL_PCD_MspInit
 .text.HAL_PCD_SetupStageCallback
                0x08008158       0x10 build/usbd_conf.o
                0x08008158                HAL_PCD_SetupStageCallback
 .text.HAL_PCD_DataOutStageCallback
                0x08008168       0x18 build/usbd_conf.o
                0x08008168                HAL_PCD_DataOutStageCallback
 .text.HAL_PCD_DataInStageCallback
                0x08008180       0x16 build/usbd_conf.o
                0x08008180                HAL_PCD_DataInStageCallback
 .text.HAL_PCD_SOFCallback
                0x08008196        0xc build/usbd_conf.o
                0x08008196                HAL_PCD_SOFCallback
 .text.HAL_PCD_ResetCallback
                0x080081a2       0x24 build/usbd_conf.o
                0x080081a2                HAL_PCD_ResetCallback
 *fill*         0x080081c6        0x2 
 .text.HAL_PCD_SuspendCallback
                0x080081c8       0x20 build/usbd_conf.o
                0x080081c8                HAL_PCD_SuspendCallback
 .text.HAL_PCD_ResumeCallback
                0x080081e8       0x28 build/usbd_conf.o
                0x080081e8                HAL_PCD_ResumeCallback
 .text.USBD_LL_Init
                0x08008210       0x7c build/usbd_conf.o
                0x08008210                USBD_LL_Init
 .text.USBD_LL_Start
                0x0800828c       0x1e build/usbd_conf.o
                0x0800828c                USBD_LL_Start
 .text.USBD_LL_OpenEP
                0x080082aa       0x24 build/usbd_conf.o
                0x080082aa                USBD_LL_OpenEP
 .text.USBD_LL_CloseEP
                0x080082ce       0x1e build/usbd_conf.o
                0x080082ce                USBD_LL_CloseEP
 .text.USBD_LL_FlushEP
                0x080082ec       0x1e build/usbd_conf.o
                0x080082ec                USBD_LL_FlushEP
 .text.USBD_LL_StallEP
                0x0800830a       0x1e build/usbd_conf.o
                0x0800830a                USBD_LL_StallEP
 .text.USBD_LL_ClearStallEP
                0x08008328       0x1e build/usbd_conf.o
                0x08008328                USBD_LL_ClearStallEP
 .text.USBD_LL_IsStallEP
                0x08008346       0x2e build/usbd_conf.o
                0x08008346                USBD_LL_IsStallEP
 .text.USBD_LL_SetUSBAddress
                0x08008374       0x1e build/usbd_conf.o
                0x08008374                USBD_LL_SetUSBAddress
 .text.USBD_LL_Transmit
                0x08008392       0x1e build/usbd_conf.o
                0x08008392                USBD_LL_Transmit
 .text.USBD_LL_PrepareReceive
                0x080083b0       0x1e build/usbd_conf.o
                0x080083b0                USBD_LL_PrepareReceive
 .text.USBD_LL_GetRxDataSize
                0x080083ce        0xc build/usbd_conf.o
                0x080083ce                USBD_LL_GetRxDataSize
 *fill*         0x080083da        0x2 
 .text.HAL_PCDEx_LPM_Callback
                0x080083dc       0x48 build/usbd_conf.o
                0x080083dc                HAL_PCDEx_LPM_Callback
 .text.USBD_static_malloc
                0x08008424        0x8 build/usbd_conf.o
                0x08008424                USBD_static_malloc
 .text.USBD_static_free
                0x0800842c        0x2 build/usbd_conf.o
                0x0800842c                USBD_static_free
 .text.USBD_Init
                0x0800842e       0x2e build/usbd_core.o
                0x0800842e                USBD_Init
 .text.USBD_RegisterClass
                0x0800845c       0x2e build/usbd_core.o
                0x0800845c                USBD_RegisterClass
 .text.USBD_Start
                0x0800848a        0x8 build/usbd_core.o
                0x0800848a                USBD_Start
 .text.USBD_SetClassConfig
                0x08008492       0x12 build/usbd_core.o
                0x08008492                USBD_SetClassConfig
 .text.USBD_ClrClassConfig
                0x080084a4       0x10 build/usbd_core.o
                0x080084a4                USBD_ClrClassConfig
 .text.USBD_LL_SetupStage
                0x080084b4       0x58 build/usbd_core.o
                0x080084b4                USBD_LL_SetupStage
 .text.USBD_LL_DataOutStage
                0x0800850c       0x78 build/usbd_core.o
                0x0800850c                USBD_LL_DataOutStage
 .text.USBD_LL_DataInStage
                0x08008584       0xbe build/usbd_core.o
                0x08008584                USBD_LL_DataInStage
 .text.USBD_LL_Reset
                0x08008642       0x5a build/usbd_core.o
                0x08008642                USBD_LL_Reset
 .text.USBD_LL_SetSpeed
                0x0800869c        0x6 build/usbd_core.o
                0x0800869c                USBD_LL_SetSpeed
 .text.USBD_LL_Suspend
                0x080086a2       0x14 build/usbd_core.o
                0x080086a2                USBD_LL_Suspend
 .text.USBD_LL_Resume
                0x080086b6       0x1a build/usbd_core.o
                0x080086b6                USBD_LL_Resume
 .text.USBD_LL_SOF
                0x080086d0       0x28 build/usbd_core.o
                0x080086d0                USBD_LL_SOF
 .text.USBD_GetLen
                0x080086f8       0x12 build/usbd_ctlreq.o
 .text.USBD_SetFeature
                0x0800870a       0x14 build/usbd_ctlreq.o
 .text.USBD_ParseSetupRequest
                0x0800871e       0x28 build/usbd_ctlreq.o
                0x0800871e                USBD_ParseSetupRequest
 .text.USBD_CtlError
                0x08008746       0x14 build/usbd_ctlreq.o
                0x08008746                USBD_CtlError
 .text.USBD_GetDescriptor
                0x0800875a      0x1ac build/usbd_ctlreq.o
 .text.USBD_SetAddress
                0x08008906       0x50 build/usbd_ctlreq.o
 *fill*         0x08008956        0x2 
 .text.USBD_SetConfig
                0x08008958       0xc8 build/usbd_ctlreq.o
 .text.USBD_GetConfig
                0x08008a20       0x40 build/usbd_ctlreq.o
 .text.USBD_GetStatus
                0x08008a60       0x38 build/usbd_ctlreq.o
 .text.USBD_ClrFeature
                0x08008a98       0x26 build/usbd_ctlreq.o
 .text.USBD_StdDevReq
                0x08008abe       0x70 build/usbd_ctlreq.o
                0x08008abe                USBD_StdDevReq
 .text.USBD_StdItfReq
                0x08008b2e       0x68 build/usbd_ctlreq.o
                0x08008b2e                USBD_StdItfReq
 .text.USBD_StdEPReq
                0x08008b96      0x1ec build/usbd_ctlreq.o
                0x08008b96                USBD_StdEPReq
 .text.USBD_GetString
                0x08008d82       0x36 build/usbd_ctlreq.o
                0x08008d82                USBD_GetString
 .text.USBD_CtlSendData
                0x08008db8       0x1a build/usbd_ioreq.o
                0x08008db8                USBD_CtlSendData
 .text.USBD_CtlContinueSendData
                0x08008dd2       0x10 build/usbd_ioreq.o
                0x08008dd2                USBD_CtlContinueSendData
 .text.USBD_CtlContinueRx
                0x08008de2       0x10 build/usbd_ioreq.o
                0x08008de2                USBD_CtlContinueRx
 .text.USBD_CtlSendStatus
                0x08008df2       0x16 build/usbd_ioreq.o
                0x08008df2                USBD_CtlSendStatus
 .text.USBD_CtlReceiveStatus
                0x08008e08       0x16 build/usbd_ioreq.o
                0x08008e08                USBD_CtlReceiveStatus
 *fill*         0x08008e1e        0x2 
 .text.USBD_MSC_GetHSCfgDesc
                0x08008e20        0xc build/usbd_msc.o
                0x08008e20                USBD_MSC_GetHSCfgDesc
 .text.USBD_MSC_GetFSCfgDesc
                0x08008e2c        0xc build/usbd_msc.o
                0x08008e2c                USBD_MSC_GetFSCfgDesc
 .text.USBD_MSC_GetOtherSpeedCfgDesc
                0x08008e38        0xc build/usbd_msc.o
                0x08008e38                USBD_MSC_GetOtherSpeedCfgDesc
 .text.USBD_MSC_GetDeviceQualifierDescriptor
                0x08008e44        0xc build/usbd_msc.o
                0x08008e44                USBD_MSC_GetDeviceQualifierDescriptor
 .text.USBD_MSC_Init
                0x08008e50       0x70 build/usbd_msc.o
                0x08008e50                USBD_MSC_Init
 .text.USBD_MSC_DeInit
                0x08008ec0       0x36 build/usbd_msc.o
                0x08008ec0                USBD_MSC_DeInit
 .text.USBD_MSC_Setup
                0x08008ef6      0x134 build/usbd_msc.o
                0x08008ef6                USBD_MSC_Setup
 .text.USBD_MSC_DataIn
                0x0800902a        0xa build/usbd_msc.o
                0x0800902a                USBD_MSC_DataIn
 .text.USBD_MSC_DataOut
                0x08009034        0xa build/usbd_msc.o
                0x08009034                USBD_MSC_DataOut
 .text.USBD_MSC_RegisterStorage
                0x0800903e        0xe build/usbd_msc.o
                0x0800903e                USBD_MSC_RegisterStorage
 .text.MSC_BOT_SendData
                0x0800904c       0x30 build/usbd_msc_bot.o
 .text.MSC_BOT_Abort
                0x0800907c       0x44 build/usbd_msc_bot.o
 .text.MSC_BOT_Init
                0x080090c0       0x44 build/usbd_msc_bot.o
                0x080090c0                MSC_BOT_Init
 .text.MSC_BOT_Reset
                0x08009104       0x30 build/usbd_msc_bot.o
                0x08009104                MSC_BOT_Reset
 .text.MSC_BOT_DeInit
                0x08009134        0xc build/usbd_msc_bot.o
                0x08009134                MSC_BOT_DeInit
 .text.MSC_BOT_SendCSW
                0x08009140       0x38 build/usbd_msc_bot.o
                0x08009140                MSC_BOT_SendCSW
 .text.MSC_BOT_DataIn
                0x08009178       0x3e build/usbd_msc_bot.o
                0x08009178                MSC_BOT_DataIn
 *fill*         0x080091b6        0x2 
 .text.MSC_BOT_CBW_Decode
                0x080091b8       0xac build/usbd_msc_bot.o
 .text.MSC_BOT_DataOut
                0x08009264       0x36 build/usbd_msc_bot.o
                0x08009264                MSC_BOT_DataOut
 .text.MSC_BOT_CplClrFeature
                0x0800929a       0x34 build/usbd_msc_bot.o
                0x0800929a                MSC_BOT_CplClrFeature
 .text.SCSI_AllowPreventRemovable
                0x080092ce       0x22 build/usbd_msc_scsi.o
 .text.SCSI_UpdateBotData
                0x080092f0       0x24 build/usbd_msc_scsi.o
 .text.SCSI_ModeSense6
                0x08009314       0x28 build/usbd_msc_scsi.o
 .text.SCSI_ModeSense10
                0x0800933c       0x28 build/usbd_msc_scsi.o
 .text.SCSI_SenseCode
                0x08009364       0x3a build/usbd_msc_scsi.o
                0x08009364                SCSI_SenseCode
 .text.SCSI_TestUnitReady
                0x0800939e       0x6c build/usbd_msc_scsi.o
 .text.SCSI_RequestSense
                0x0800940a       0x8c build/usbd_msc_scsi.o
 *fill*         0x08009496        0x2 
 .text.SCSI_Inquiry
                0x08009498       0x94 build/usbd_msc_scsi.o
 .text.SCSI_StartStopUnit
                0x0800952c       0x5a build/usbd_msc_scsi.o
 .text.SCSI_ReadFormatCapacity
                0x08009586       0x8a build/usbd_msc_scsi.o
 .text.SCSI_ReadCapacity10
                0x08009610       0x70 build/usbd_msc_scsi.o
 .text.SCSI_ReadCapacity16
                0x08009680       0xb6 build/usbd_msc_scsi.o
 .text.SCSI_CheckAddressRange
                0x08009736       0x2a build/usbd_msc_scsi.o
 .text.SCSI_ProcessRead
                0x08009760       0xa0 build/usbd_msc_scsi.o
 .text.SCSI_Read10
                0x08009800       0xdc build/usbd_msc_scsi.o
 .text.SCSI_Read12
                0x080098dc       0xea build/usbd_msc_scsi.o
 .text.SCSI_ProcessWrite
                0x080099c6       0xb0 build/usbd_msc_scsi.o
 .text.SCSI_Write10
                0x08009a76      0x118 build/usbd_msc_scsi.o
 .text.SCSI_Write12
                0x08009b8e      0x12e build/usbd_msc_scsi.o
 .text.SCSI_Verify10
                0x08009cbc       0x40 build/usbd_msc_scsi.o
 .text.SCSI_ProcessCmd
                0x08009cfc       0xf2 build/usbd_msc_scsi.o
                0x08009cfc                SCSI_ProcessCmd
 *fill*         0x08009dee        0x2 
 .text.Reset_Handler
                0x08009df0       0x50 build/startup_stm32l412xx.o
                0x08009df0                Reset_Handler
 .text.Default_Handler
                0x08009e40        0x2 build/startup_stm32l412xx.o
                0x08009e40                RTC_Alarm_IRQHandler
                0x08009e40                EXTI2_IRQHandler
                0x08009e40                TIM1_CC_IRQHandler
                0x08009e40                TSC_IRQHandler
                0x08009e40                TIM6_IRQHandler
                0x08009e40                TAMP_STAMP_IRQHandler
                0x08009e40                EXTI3_IRQHandler
                0x08009e40                LPTIM2_IRQHandler
                0x08009e40                I2C3_ER_IRQHandler
                0x08009e40                EXTI0_IRQHandler
                0x08009e40                I2C2_EV_IRQHandler
                0x08009e40                FPU_IRQHandler
                0x08009e40                TIM1_UP_TIM16_IRQHandler
                0x08009e40                ADC1_2_IRQHandler
                0x08009e40                SPI1_IRQHandler
                0x08009e40                DMA2_Channel2_IRQHandler
                0x08009e40                DMA1_Channel4_IRQHandler
                0x08009e40                USART3_IRQHandler
                0x08009e40                DMA1_Channel7_IRQHandler
                0x08009e40                DMA2_Channel1_IRQHandler
                0x08009e40                QUADSPI_IRQHandler
                0x08009e40                I2C1_EV_IRQHandler
                0x08009e40                DMA1_Channel6_IRQHandler
                0x08009e40                DMA2_Channel4_IRQHandler
                0x08009e40                RCC_IRQHandler
                0x08009e40                TIM1_TRG_COM_IRQHandler
                0x08009e40                DMA1_Channel1_IRQHandler
                0x08009e40                Default_Handler
                0x08009e40                DMA2_Channel7_IRQHandler
                0x08009e40                EXTI15_10_IRQHandler
                0x08009e40                I2C3_EV_IRQHandler
                0x08009e40                EXTI9_5_IRQHandler
                0x08009e40                RTC_WKUP_IRQHandler
                0x08009e40                PVD_PVM_IRQHandler
                0x08009e40                SPI2_IRQHandler
                0x08009e40                DMA2_Channel5_IRQHandler
                0x08009e40                CRS_IRQHandler
                0x08009e40                DMA1_Channel5_IRQHandler
                0x08009e40                EXTI4_IRQHandler
                0x08009e40                RNG_IRQHandler
                0x08009e40                DMA1_Channel3_IRQHandler
                0x08009e40                COMP_IRQHandler
                0x08009e40                WWDG_IRQHandler
                0x08009e40                LPUART1_IRQHandler
                0x08009e40                DMA2_Channel6_IRQHandler
                0x08009e40                TIM2_IRQHandler
                0x08009e40                EXTI1_IRQHandler
                0x08009e40                I2C2_ER_IRQHandler
                0x08009e40                DMA1_Channel2_IRQHandler
                0x08009e40                FLASH_IRQHandler
                0x08009e40                USART1_IRQHandler
                0x08009e40                I2C1_ER_IRQHandler
                0x08009e40                LPTIM1_IRQHandler
                0x08009e40                DMA2_Channel3_IRQHandler
                0x08009e40                TIM1_BRK_TIM15_IRQHandler
 *fill*         0x08009e42        0x2 
 .text.__libc_init_array
                0x08009e44       0x48 c:/ncs/v1.7.1/toolchain/opt/bin/../lib/gcc/arm-none-eabi/9.2.1/../../../../arm-none-eabi/lib/thumb/v7e-m+fp/hard\libc_nano.a(lib_a-init.o)
                0x08009e44                __libc_init_array
 .text.memset   0x08009e8c       0x10 c:/ncs/v1.7.1/toolchain/opt/bin/../lib/gcc/arm-none-eabi/9.2.1/../../../../arm-none-eabi/lib/thumb/v7e-m+fp/hard\libc_nano.a(lib_a-memset.o)
                0x08009e8c                memset
 .text.sprintf  0x08009e9c       0x40 c:/ncs/v1.7.1/toolchain/opt/bin/../lib/gcc/arm-none-eabi/9.2.1/../../../../arm-none-eabi/lib/thumb/v7e-m+fp/hard\libc_nano.a(lib_a-sprintf.o)
                0x08009e9c                siprintf
                0x08009e9c                sprintf
 .text.strcat   0x08009edc       0x1e c:/ncs/v1.7.1/toolchain/opt/bin/../lib/gcc/arm-none-eabi/9.2.1/../../../../arm-none-eabi/lib/thumb/v7e-m+fp/hard\libc_nano.a(lib_a-strcat.o)
                0x08009edc                strcat
 .text.strncpy  0x08009efa       0x26 c:/ncs/v1.7.1/toolchain/opt/bin/../lib/gcc/arm-none-eabi/9.2.1/../../../../arm-none-eabi/lib/thumb/v7e-m+fp/hard\libc_nano.a(lib_a-strncpy.o)
                0x08009efa                strncpy
 .text._vsnprintf_r
                0x08009f20       0x58 c:/ncs/v1.7.1/toolchain/opt/bin/../lib/gcc/arm-none-eabi/9.2.1/../../../../arm-none-eabi/lib/thumb/v7e-m+fp/hard\libc_nano.a(lib_a-vsnprintf.o)
                0x08009f20                _vsniprintf_r
                0x08009f20                _vsnprintf_r
 .text.vsnprintf
                0x08009f78       0x1c c:/ncs/v1.7.1/toolchain/opt/bin/../lib/gcc/arm-none-eabi/9.2.1/../../../../arm-none-eabi/lib/thumb/v7e-m+fp/hard\libc_nano.a(lib_a-vsnprintf.o)
                0x08009f78                vsniprintf
                0x08009f78                vsnprintf
 .text.__ssputs_r
                0x08009f94       0xb6 c:/ncs/v1.7.1/toolchain/opt/bin/../lib/gcc/arm-none-eabi/9.2.1/../../../../arm-none-eabi/lib/thumb/v7e-m+fp/hard\libc_nano.a(lib_a-nano-svfprintf.o)
                0x08009f94                __ssputs_r
 *fill*         0x0800a04a        0x2 
 .text._svfprintf_r
                0x0800a04c      0x200 c:/ncs/v1.7.1/toolchain/opt/bin/../lib/gcc/arm-none-eabi/9.2.1/../../../../arm-none-eabi/lib/thumb/v7e-m+fp/hard\libc_nano.a(lib_a-nano-svfprintf.o)
                0x0800a04c                _svfiprintf_r
                0x0800a04c                _svfprintf_r
 .text._printf_common
                0x0800a24c       0xda c:/ncs/v1.7.1/toolchain/opt/bin/../lib/gcc/arm-none-eabi/9.2.1/../../../../arm-none-eabi/lib/thumb/v7e-m+fp/hard\libc_nano.a(lib_a-nano-vfprintf_i.o)
                0x0800a24c                _printf_common
 *fill*         0x0800a326        0x2 
 .text._printf_i
                0x0800a328      0x24c c:/ncs/v1.7.1/toolchain/opt/bin/../lib/gcc/arm-none-eabi/9.2.1/../../../../arm-none-eabi/lib/thumb/v7e-m+fp/hard\libc_nano.a(lib_a-nano-vfprintf_i.o)
                0x0800a328                _printf_i
 .text.memcpy   0x0800a574       0x1c c:/ncs/v1.7.1/toolchain/opt/bin/../lib/gcc/arm-none-eabi/9.2.1/../../../../arm-none-eabi/lib/thumb/v7e-m+fp/hard\libc_nano.a(lib_a-memcpy-stub.o)
                0x0800a574                memcpy
 .text.memmove  0x0800a590       0x34 c:/ncs/v1.7.1/toolchain/opt/bin/../lib/gcc/arm-none-eabi/9.2.1/../../../../arm-none-eabi/lib/thumb/v7e-m+fp/hard\libc_nano.a(lib_a-memmove.o)
                0x0800a590                memmove
 .text._free_r  0x0800a5c4       0xa0 c:/ncs/v1.7.1/toolchain/opt/bin/../lib/gcc/arm-none-eabi/9.2.1/../../../../arm-none-eabi/lib/thumb/v7e-m+fp/hard\libc_nano.a(lib_a-nano-freer.o)
                0x0800a5c4                _free_r
 .text._malloc_r
                0x0800a664       0xb4 c:/ncs/v1.7.1/toolchain/opt/bin/../lib/gcc/arm-none-eabi/9.2.1/../../../../arm-none-eabi/lib/thumb/v7e-m+fp/hard\libc_nano.a(lib_a-nano-mallocr.o)
                0x0800a664                _malloc_r
 .text._realloc_r
                0x0800a718       0x4c c:/ncs/v1.7.1/toolchain/opt/bin/../lib/gcc/arm-none-eabi/9.2.1/../../../../arm-none-eabi/lib/thumb/v7e-m+fp/hard\libc_nano.a(lib_a-nano-reallocr.o)
                0x0800a718                _realloc_r
 .text._sbrk_r  0x0800a764       0x20 c:/ncs/v1.7.1/toolchain/opt/bin/../lib/gcc/arm-none-eabi/9.2.1/../../../../arm-none-eabi/lib/thumb/v7e-m+fp/hard\libc_nano.a(lib_a-sbrkr.o)
                0x0800a764                _sbrk_r
 .text.__malloc_lock
                0x0800a784        0xc c:/ncs/v1.7.1/toolchain/opt/bin/../lib/gcc/arm-none-eabi/9.2.1/../../../../arm-none-eabi/lib/thumb/v7e-m+fp/hard\libc_nano.a(lib_a-mlock.o)
                0x0800a784                __malloc_lock
 .text.__malloc_unlock
                0x0800a790        0xc c:/ncs/v1.7.1/toolchain/opt/bin/../lib/gcc/arm-none-eabi/9.2.1/../../../../arm-none-eabi/lib/thumb/v7e-m+fp/hard\libc_nano.a(lib_a-mlock.o)
                0x0800a790                __malloc_unlock
 .text._malloc_usable_size_r
                0x0800a79c       0x10 c:/ncs/v1.7.1/toolchain/opt/bin/../lib/gcc/arm-none-eabi/9.2.1/../../../../arm-none-eabi/lib/thumb/v7e-m+fp/hard\libc_nano.a(lib_a-nano-msizer.o)
                0x0800a79c                _malloc_usable_size_r
 .text.__retarget_lock_acquire_recursive
                0x0800a7ac        0x2 c:/ncs/v1.7.1/toolchain/opt/bin/../lib/gcc/arm-none-eabi/9.2.1/../../../../arm-none-eabi/lib/thumb/v7e-m+fp/hard\libc_nano.a(lib_a-lock.o)
                0x0800a7ac                __retarget_lock_acquire_recursive
 .text.__retarget_lock_release_recursive
                0x0800a7ae        0x2 c:/ncs/v1.7.1/toolchain/opt/bin/../lib/gcc/arm-none-eabi/9.2.1/../../../../arm-none-eabi/lib/thumb/v7e-m+fp/hard\libc_nano.a(lib_a-lock.o)
                0x0800a7ae                __retarget_lock_release_recursive
 .text._sbrk    0x0800a7b0       0x1c c:/ncs/v1.7.1/toolchain/opt/bin/../lib/gcc/arm-none-eabi/9.2.1/../../../../arm-none-eabi/lib/thumb/v7e-m+fp/hard\libnosys.a(sbrk.o)
                0x0800a7b0                _sbrk
 *(.glue_7)
 .glue_7        0x0800a7cc        0x0 linker stubs
 *(.glue_7t)
 .glue_7t       0x0800a7cc        0x0 linker stubs
 *(.eh_frame)
 .eh_frame      0x0800a7cc        0x0 c:/ncs/v1.7.1/toolchain/opt/bin/../lib/gcc/arm-none-eabi/9.2.1/thumb/v7e-m+fp/hard/crtbegin.o
 *(.init)
 .init          0x0800a7cc        0x4 c:/ncs/v1.7.1/toolchain/opt/bin/../lib/gcc/arm-none-eabi/9.2.1/thumb/v7e-m+fp/hard/crti.o
                0x0800a7cc                _init
 .init          0x0800a7d0        0x8 c:/ncs/v1.7.1/toolchain/opt/bin/../lib/gcc/arm-none-eabi/9.2.1/thumb/v7e-m+fp/hard/crtn.o
 *(.fini)
 .fini          0x0800a7d8        0x4 c:/ncs/v1.7.1/toolchain/opt/bin/../lib/gcc/arm-none-eabi/9.2.1/thumb/v7e-m+fp/hard/crti.o
                0x0800a7d8                _fini
 .fini          0x0800a7dc        0x8 c:/ncs/v1.7.1/toolchain/opt/bin/../lib/gcc/arm-none-eabi/9.2.1/thumb/v7e-m+fp/hard/crtn.o
                0x0800a7e8                . = ALIGN (0x8)
 *fill*         0x0800a7e4        0x4 
                0x0800a7e8                _etext = .

.vfp11_veneer   0x0800a7e8        0x0
 .vfp11_veneer  0x0800a7e8        0x0 linker stubs

.v4_bx          0x0800a7e8        0x0
 .v4_bx         0x0800a7e8        0x0 linker stubs

.iplt           0x0800a7e8        0x0
 .iplt          0x0800a7e8        0x0 c:/ncs/v1.7.1/toolchain/opt/bin/../lib/gcc/arm-none-eabi/9.2.1/thumb/v7e-m+fp/hard/crtbegin.o

.rodata         0x0800a7e8      0x578
                0x0800a7e8                . = ALIGN (0x8)
 *(.rodata)
 *(.rodata*)
 .rodata.newLog.str1.4
                0x0800a7e8      0x18a build/main.o
 *fill*         0x0800a972        0x2 
 .rodata.appendFile.str1.4
                0x0800a974       0x67 build/main.o
 *fill*         0x0800a9db        0x1 
 .rodata.buffer_sync.str1.4
                0x0800a9dc       0x71 build/main.o
 *fill*         0x0800aa4d        0x3 
 .rodata.appendDATA.str1.4
                0x0800aa50       0xd2 build/main.o
 *fill*         0x0800ab22        0x2 
 .rodata.main.str1.4
                0x0800ab24       0xc1 build/main.o
 *fill*         0x0800abe5        0x3 
 .rodata.AHBPrescTable
                0x0800abe8       0x10 build/system_stm32l4xx.o
                0x0800abe8                AHBPrescTable
 .rodata.APBPrescTable
                0x0800abf8        0x8 build/system_stm32l4xx.o
                0x0800abf8                APBPrescTable
 .rodata.MSIRangeTable
                0x0800ac00       0x30 build/system_stm32l4xx.o
                0x0800ac00                MSIRangeTable
 .rodata.create_name.str1.4
                0x0800ac30        0xf build/ff.o
 *fill*         0x0800ac3f        0x1 
 .rodata.ExCvt  0x0800ac40       0x80 build/ff.o
 .rodata.USBD_FS_ProductStrDescriptor.str1.4
                0x0800acc0       0x13 build/usbd_desc.o
 *fill*         0x0800acd3        0x1 
 .rodata.USBD_FS_ManufacturerStrDescriptor.str1.4
                0x0800acd4       0x13 build/usbd_desc.o
 *fill*         0x0800ace7        0x1 
 .rodata.USBD_FS_ConfigStrDescriptor.str1.4
                0x0800ace8        0xb build/usbd_desc.o
 *fill*         0x0800acf3        0x1 
 .rodata.USBD_FS_InterfaceStrDescriptor.str1.4
                0x0800acf4        0xe build/usbd_desc.o
 *fill*         0x0800ad02        0x2 
 .rodata.STORAGE_Inquirydata_FS
                0x0800ad04       0x24 build/usbd_storage_if.o
                0x0800ad04                STORAGE_Inquirydata_FS
 .rodata._svfprintf_r.str1.1
                0x0800ad28       0x11 c:/ncs/v1.7.1/toolchain/opt/bin/../lib/gcc/arm-none-eabi/9.2.1/../../../../arm-none-eabi/lib/thumb/v7e-m+fp/hard\libc_nano.a(lib_a-nano-svfprintf.o)
 .rodata._printf_i.str1.1
                0x0800ad39       0x22 c:/ncs/v1.7.1/toolchain/opt/bin/../lib/gcc/arm-none-eabi/9.2.1/../../../../arm-none-eabi/lib/thumb/v7e-m+fp/hard\libc_nano.a(lib_a-nano-vfprintf_i.o)
                0x0800ad60                . = ALIGN (0x8)
 *fill*         0x0800ad5b        0x5 

.ARM.extab      0x0800ad60        0x0
                0x0800ad60                . = ALIGN (0x8)
 *(.ARM.extab* .gnu.linkonce.armextab.*)
                0x0800ad60                . = ALIGN (0x8)

.ARM            0x0800ad60        0x8
                0x0800ad60                . = ALIGN (0x8)
                0x0800ad60                __exidx_start = .
 *(.ARM.exidx*)
 .ARM.exidx     0x0800ad60        0x8 c:/ncs/v1.7.1/toolchain/opt/bin/../lib/gcc/arm-none-eabi/9.2.1/thumb/v7e-m+fp/hard\libgcc.a(_udivmoddi4.o)
                0x0800ad68                __exidx_end = .
                0x0800ad68                . = ALIGN (0x8)

.rel.dyn        0x0800ad68        0x0
 .rel.iplt      0x0800ad68        0x0 c:/ncs/v1.7.1/toolchain/opt/bin/../lib/gcc/arm-none-eabi/9.2.1/thumb/v7e-m+fp/hard/crtbegin.o

.preinit_array  0x0800ad68        0x0
                0x0800ad68                . = ALIGN (0x8)
                0x0800ad68                PROVIDE (__preinit_array_start = .)
 *(.preinit_array*)
                0x0800ad68                PROVIDE (__preinit_array_end = .)
                0x0800ad68                . = ALIGN (0x8)

.init_array     0x0800ad68        0x8
                0x0800ad68                . = ALIGN (0x8)
                0x0800ad68                PROVIDE (__init_array_start = .)
 *(SORT_BY_NAME(.init_array.*))
 *(.init_array*)
 .init_array    0x0800ad68        0x4 c:/ncs/v1.7.1/toolchain/opt/bin/../lib/gcc/arm-none-eabi/9.2.1/thumb/v7e-m+fp/hard/crtbegin.o
                0x0800ad6c                PROVIDE (__init_array_end = .)
                0x0800ad70                . = ALIGN (0x8)
 *fill*         0x0800ad6c        0x4 

.fini_array     0x0800ad70        0x8
                0x0800ad70                . = ALIGN (0x8)
                [!provide]                PROVIDE (__fini_array_start = .)
 *(SORT_BY_NAME(.fini_array.*))
 *(.fini_array*)
 .fini_array    0x0800ad70        0x4 c:/ncs/v1.7.1/toolchain/opt/bin/../lib/gcc/arm-none-eabi/9.2.1/thumb/v7e-m+fp/hard/crtbegin.o
                [!provide]                PROVIDE (__fini_array_end = .)
                0x0800ad78                . = ALIGN (0x8)
 *fill*         0x0800ad74        0x4 
                0x0800ad78                _sidata = LOADADDR (.data)

.data           0x20000000      0x1f8 load address 0x0800ad78
                0x20000000                . = ALIGN (0x8)
                0x20000000                _sdata = .
 *(.data)
 *(.data*)
 .data.BOARD_POWER_UP
                0x20000000        0x1 build/main.o
                0x20000000                BOARD_POWER_UP
 *fill*         0x20000001        0x3 
 .data.LOCATION_BUFFER_ITERATOR
                0x20000004        0x4 build/main.o
                0x20000004                LOCATION_BUFFER_ITERATOR
 .data.RESET_FLAG
                0x20000008        0x1 build/main.o
                0x20000008                RESET_FLAG
 *fill*         0x20000009        0x3 
 .data.USER_Driver
                0x2000000c       0x14 build/user_diskio.o
                0x2000000c                USER_Driver
 .data.Stat     0x20000020        0x1 build/user_diskio_spi.o
 .data.uwTickFreq
                0x20000021        0x1 build/stm32l4xx_hal.o
                0x20000021                uwTickFreq
 *fill*         0x20000022        0x2 
 .data.uwTickPrio
                0x20000024        0x4 build/stm32l4xx_hal.o
                0x20000024                uwTickPrio
 .data.SystemCoreClock
                0x20000028        0x4 build/system_stm32l4xx.o
                0x20000028                SystemCoreClock
 .data.FS_Desc  0x2000002c       0x20 build/usbd_desc.o
                0x2000002c                FS_Desc
 .data.USBD_FS_BOSDesc
                0x2000004c        0xc build/usbd_desc.o
                0x2000004c                USBD_FS_BOSDesc
 .data.USBD_FS_DeviceDesc
                0x20000058       0x12 build/usbd_desc.o
                0x20000058                USBD_FS_DeviceDesc
 *fill*         0x2000006a        0x2 
 .data.USBD_LangIDDesc
                0x2000006c        0x4 build/usbd_desc.o
                0x2000006c                USBD_LangIDDesc
 .data.USBD_StringSerial
                0x20000070       0x1a build/usbd_desc.o
                0x20000070                USBD_StringSerial
 *fill*         0x2000008a        0x2 
 .data.USBD_Storage_Interface_fops_FS
                0x2000008c       0x20 build/usbd_storage_if.o
                0x2000008c                USBD_Storage_Interface_fops_FS
 .data.USBD_MSC
                0x200000ac       0x38 build/usbd_msc.o
                0x200000ac                USBD_MSC
 .data.USBD_MSC_CfgFSDesc
                0x200000e4       0x20 build/usbd_msc.o
 .data.USBD_MSC_CfgHSDesc
                0x20000104       0x20 build/usbd_msc.o
 .data.USBD_MSC_DeviceQualifierDesc
                0x20000124        0xa build/usbd_msc.o
 *fill*         0x2000012e        0x2 
 .data.USBD_MSC_OtherSpeedCfgDesc
                0x20000130       0x20 build/usbd_msc.o
 .data.MSC_Mode_Sense10_data
                0x20000150       0x1b build/usbd_msc_data.o
                0x20000150                MSC_Mode_Sense10_data
 *fill*         0x2000016b        0x1 
 .data.MSC_Mode_Sense6_data
                0x2000016c       0x17 build/usbd_msc_data.o
                0x2000016c                MSC_Mode_Sense6_data
 *fill*         0x20000183        0x1 
 .data.MSC_Page00_Inquiry_Data
                0x20000184        0x6 build/usbd_msc_data.o
                0x20000184                MSC_Page00_Inquiry_Data
 *fill*         0x2000018a        0x2 
 .data.MSC_Page80_Inquiry_Data
                0x2000018c        0x8 build/usbd_msc_data.o
                0x2000018c                MSC_Page80_Inquiry_Data
 .data._impure_ptr
                0x20000194        0x4 c:/ncs/v1.7.1/toolchain/opt/bin/../lib/gcc/arm-none-eabi/9.2.1/../../../../arm-none-eabi/lib/thumb/v7e-m+fp/hard\libc_nano.a(lib_a-impure.o)
                0x20000194                _impure_ptr
 .data.impure_data
                0x20000198       0x60 c:/ncs/v1.7.1/toolchain/opt/bin/../lib/gcc/arm-none-eabi/9.2.1/../../../../arm-none-eabi/lib/thumb/v7e-m+fp/hard\libc_nano.a(lib_a-impure.o)
                0x200001f8                . = ALIGN (0x8)
                0x200001f8                _edata = .

.igot.plt       0x200001f8        0x0 load address 0x0800af70
 .igot.plt      0x200001f8        0x0 c:/ncs/v1.7.1/toolchain/opt/bin/../lib/gcc/arm-none-eabi/9.2.1/thumb/v7e-m+fp/hard/crtbegin.o
                0x200001f8                . = ALIGN (0x4)

.bss            0x200001f8     0x3b78 load address 0x0800af70
                0x200001f8                _sbss = .
                0x200001f8                __bss_start__ = _sbss
 *(.bss)
 .bss           0x200001f8       0x1c c:/ncs/v1.7.1/toolchain/opt/bin/../lib/gcc/arm-none-eabi/9.2.1/thumb/v7e-m+fp/hard/crtbegin.o
 *(.bss*)
 .bss.RX_BACKUP_Flag
                0x20000214        0x1 build/main.o
                0x20000214                RX_BACKUP_Flag
 .bss.RX_Flag   0x20000215        0x1 build/main.o
                0x20000215                RX_Flag
 .bss.SD_Flag   0x20000216        0x1 build/main.o
                0x20000216                SD_Flag
 .bss.SD_MOUNT_FAIL
                0x20000217        0x1 build/main.o
                0x20000217                SD_MOUNT_FAIL
 .bss.USB_Flag  0x20000218        0x1 build/main.o
                0x20000218                USB_Flag
 *fill*         0x20000219        0x3 
 .bss.buffer.10706
                0x2000021c      0x1f4 build/main.o
 .bss.newFileName
                0x20000410        0xd build/main.o
 .bss.CardType  0x2000041d        0x1 build/user_diskio_spi.o
 *fill*         0x2000041e        0x2 
 .bss.FatFs     0x20000420        0x4 build/ff.o
 .bss.Files     0x20000424       0x20 build/ff.o
 .bss.Fsid      0x20000444        0x2 build/ff.o
 *fill*         0x20000446        0x2 
 .bss.disk      0x20000448        0xc build/ff_gen_drv.o
                0x20000448                disk
 .bss.mem.10775
                0x20000454      0x278 build/usbd_conf.o
 .bss.cfgidx.10575
                0x200006cc        0x1 build/usbd_ctlreq.o
 *fill*         0x200006cd        0x3 
 .bss.__malloc_free_list
                0x200006d0        0x4 c:/ncs/v1.7.1/toolchain/opt/bin/../lib/gcc/arm-none-eabi/9.2.1/../../../../arm-none-eabi/lib/thumb/v7e-m+fp/hard\libc_nano.a(lib_a-nano-mallocr.o)
                0x200006d0                __malloc_free_list
 .bss.__malloc_sbrk_start
                0x200006d4        0x4 c:/ncs/v1.7.1/toolchain/opt/bin/../lib/gcc/arm-none-eabi/9.2.1/../../../../arm-none-eabi/lib/thumb/v7e-m+fp/hard\libc_nano.a(lib_a-nano-mallocr.o)
                0x200006d4                __malloc_sbrk_start
 .bss.heap_end.5507
                0x200006d8        0x4 c:/ncs/v1.7.1/toolchain/opt/bin/../lib/gcc/arm-none-eabi/9.2.1/../../../../arm-none-eabi/lib/thumb/v7e-m+fp/hard\libnosys.a(sbrk.o)
 *(COMMON)
 COMMON         0x200006dc     0x2a40 build/main.o
                0x200006dc                hspi2
                0x20000740                FatFs
                0x20000970                hcrc
                0x20000994                newFile
                0x20000bc4                Rx_data
                0x20001bc4                wakeup
                0x20001bcc                FATPATH
                0x20001bd0                hspi1
                0x20001c34                huart2
                0x20001cb8                Rx_back_up
                0x20002cb8                fres
                0x20002cbc                fil
                0x20002eec                workingFile
 COMMON         0x2000311c        0x8 build/user_diskio_spi.o
                0x2000311c                spiTimerTickStart
                0x20003120                spiTimerTickDelay
 COMMON         0x20003124      0x468 build/fatfs.o
                0x20003124                USERPath
                0x20003128                retUSER
                0x2000312c                USERFile
                0x2000335c                USERFatFS
 COMMON         0x2000358c        0x4 build/stm32l4xx_hal.o
                0x2000358c                uwTick
 COMMON         0x20003590        0x1 build/SPI_FRAM.o
                0x20003590                spi_fram
 *fill*         0x20003591        0x3 
 COMMON         0x20003594      0x2d0 build/usb_device.o
                0x20003594                hUsbDeviceFS
 COMMON         0x20003864      0x200 build/usbd_desc.o
                0x20003864                USBD_StrDesc
 COMMON         0x20003a64      0x2fc build/usbd_conf.o
                0x20003a64                hpcd_USB_FS
 COMMON         0x20003d60        0x4 c:/ncs/v1.7.1/toolchain/opt/bin/../lib/gcc/arm-none-eabi/9.2.1/../../../../arm-none-eabi/lib/thumb/v7e-m+fp/hard\libc_nano.a(lib_a-reent.o)
                0x20003d60                errno
 COMMON         0x20003d64        0x9 c:/ncs/v1.7.1/toolchain/opt/bin/../lib/gcc/arm-none-eabi/9.2.1/../../../../arm-none-eabi/lib/thumb/v7e-m+fp/hard\libc_nano.a(lib_a-lock.o)
                0x20003d64                __lock___atexit_recursive_mutex
                0x20003d65                __lock___arc4random_mutex
                0x20003d66                __lock___env_recursive_mutex
                0x20003d67                __lock___sinit_recursive_mutex
                0x20003d68                __lock___malloc_recursive_mutex
                0x20003d69                __lock___at_quick_exit_mutex
                0x20003d6a                __lock___dd_hash_mutex
                0x20003d6b                __lock___tz_mutex
                0x20003d6c                __lock___sfp_recursive_mutex
                0x20003d70                . = ALIGN (0x4)
 *fill*         0x20003d6d        0x3 
                0x20003d70                _ebss = .
                0x20003d70                __bss_end__ = _ebss

._user_heap_stack
                0x20003d70      0x600 load address 0x0800af70
                0x20003d70                . = ALIGN (0x8)
                0x20003d70                PROVIDE (end = .)
                [!provide]                PROVIDE (_end = .)
                0x20003f70                . = (. + _Min_Heap_Size)
 *fill*         0x20003d70      0x200 
                0x20004370                . = (. + _Min_Stack_Size)
 *fill*         0x20003f70      0x400 
                0x20004370                . = ALIGN (0x8)

/DISCARD/
 libc.a(*)
 libm.a(*)
 libgcc.a(*)

.ARM.attributes
                0x00000000       0x30
 *(.ARM.attributes)
 .ARM.attributes
                0x00000000       0x1e c:/ncs/v1.7.1/toolchain/opt/bin/../lib/gcc/arm-none-eabi/9.2.1/thumb/v7e-m+fp/hard/crti.o
 .ARM.attributes
                0x0000001e       0x34 c:/ncs/v1.7.1/toolchain/opt/bin/../lib/gcc/arm-none-eabi/9.2.1/thumb/v7e-m+fp/hard/crtbegin.o
 .ARM.attributes
                0x00000052       0x34 build/main.o
 .ARM.attributes
                0x00000086       0x34 build/stm32l4xx_it.o
 .ARM.attributes
                0x000000ba       0x34 build/stm32l4xx_hal_msp.o
 .ARM.attributes
                0x000000ee       0x34 build/user_diskio.o
 .ARM.attributes
                0x00000122       0x34 build/user_diskio_spi.o
 .ARM.attributes
                0x00000156       0x34 build/fatfs.o
 .ARM.attributes
                0x0000018a       0x34 build/stm32l4xx_hal.o
 .ARM.attributes
                0x000001be       0x34 build/stm32l4xx_hal_rcc.o
 .ARM.attributes
                0x000001f2       0x34 build/stm32l4xx_hal_rcc_ex.o
 .ARM.attributes
                0x00000226       0x34 build/stm32l4xx_hal_gpio.o
 .ARM.attributes
                0x0000025a       0x34 build/stm32l4xx_hal_dma.o
 .ARM.attributes
                0x0000028e       0x34 build/stm32l4xx_hal_pwr_ex.o
 .ARM.attributes
                0x000002c2       0x34 build/stm32l4xx_hal_cortex.o
 .ARM.attributes
                0x000002f6       0x34 build/stm32l4xx_hal_spi.o
 .ARM.attributes
                0x0000032a       0x34 build/stm32l4xx_hal_uart.o
 .ARM.attributes
                0x0000035e       0x34 build/stm32l4xx_hal_uart_ex.o
 .ARM.attributes
                0x00000392       0x34 build/system_stm32l4xx.o
 .ARM.attributes
                0x000003c6       0x34 build/SPI_FRAM.o
 .ARM.attributes
                0x000003fa       0x34 build/diskio.o
 .ARM.attributes
                0x0000042e       0x34 build/ff.o
 .ARM.attributes
                0x00000462       0x34 build/ff_gen_drv.o
 .ARM.attributes
                0x00000496       0x34 build/stm32l4xx_hal_crc.o
 .ARM.attributes
                0x000004ca       0x34 build/stm32l4xx_hal_crc_ex.o
 .ARM.attributes
                0x000004fe       0x34 build/stm32l4xx_hal_pcd.o
 .ARM.attributes
                0x00000532       0x34 build/stm32l4xx_hal_pcd_ex.o
 .ARM.attributes
                0x00000566       0x34 build/stm32l4xx_ll_usb.o
 .ARM.attributes
                0x0000059a       0x34 build/usb_device.o
 .ARM.attributes
                0x000005ce       0x34 build/usbd_desc.o
 .ARM.attributes
                0x00000602       0x34 build/usbd_storage_if.o
 .ARM.attributes
                0x00000636       0x34 build/usbd_conf.o
 .ARM.attributes
                0x0000066a       0x34 build/usbd_core.o
 .ARM.attributes
                0x0000069e       0x34 build/usbd_ctlreq.o
 .ARM.attributes
                0x000006d2       0x34 build/usbd_ioreq.o
 .ARM.attributes
                0x00000706       0x34 build/usbd_msc.o
 .ARM.attributes
                0x0000073a       0x34 build/usbd_msc_bot.o
 .ARM.attributes
                0x0000076e       0x39 build/usbd_msc_data.o
 .ARM.attributes
                0x000007a7       0x34 build/usbd_msc_scsi.o
 .ARM.attributes
                0x000007db       0x21 build/startup_stm32l412xx.o
 .ARM.attributes
                0x000007fc       0x32 c:/ncs/v1.7.1/toolchain/opt/bin/../lib/gcc/arm-none-eabi/9.2.1/../../../../arm-none-eabi/lib/thumb/v7e-m+fp/hard\libc_nano.a(lib_a-impure.o)
 .ARM.attributes
                0x0000082e       0x34 c:/ncs/v1.7.1/toolchain/opt/bin/../lib/gcc/arm-none-eabi/9.2.1/../../../../arm-none-eabi/lib/thumb/v7e-m+fp/hard\libc_nano.a(lib_a-init.o)
 .ARM.attributes
                0x00000862       0x34 c:/ncs/v1.7.1/toolchain/opt/bin/../lib/gcc/arm-none-eabi/9.2.1/../../../../arm-none-eabi/lib/thumb/v7e-m+fp/hard\libc_nano.a(lib_a-memset.o)
 .ARM.attributes
                0x00000896       0x34 c:/ncs/v1.7.1/toolchain/opt/bin/../lib/gcc/arm-none-eabi/9.2.1/../../../../arm-none-eabi/lib/thumb/v7e-m+fp/hard\libc_nano.a(lib_a-sprintf.o)
 .ARM.attributes
                0x000008ca       0x34 c:/ncs/v1.7.1/toolchain/opt/bin/../lib/gcc/arm-none-eabi/9.2.1/../../../../arm-none-eabi/lib/thumb/v7e-m+fp/hard\libc_nano.a(lib_a-strcat.o)
 .ARM.attributes
                0x000008fe       0x17 c:/ncs/v1.7.1/toolchain/opt/bin/../lib/gcc/arm-none-eabi/9.2.1/../../../../arm-none-eabi/lib/thumb/v7e-m+fp/hard\libc_nano.a(lib_a-strlen.o)
 .ARM.attributes
                0x00000915       0x34 c:/ncs/v1.7.1/toolchain/opt/bin/../lib/gcc/arm-none-eabi/9.2.1/../../../../arm-none-eabi/lib/thumb/v7e-m+fp/hard\libc_nano.a(lib_a-strncpy.o)
 .ARM.attributes
                0x00000949       0x34 c:/ncs/v1.7.1/toolchain/opt/bin/../lib/gcc/arm-none-eabi/9.2.1/../../../../arm-none-eabi/lib/thumb/v7e-m+fp/hard\libc_nano.a(lib_a-vsnprintf.o)
 .ARM.attributes
                0x0000097d       0x34 c:/ncs/v1.7.1/toolchain/opt/bin/../lib/gcc/arm-none-eabi/9.2.1/../../../../arm-none-eabi/lib/thumb/v7e-m+fp/hard\libc_nano.a(lib_a-nano-svfprintf.o)
 .ARM.attributes
                0x000009b1       0x34 c:/ncs/v1.7.1/toolchain/opt/bin/../lib/gcc/arm-none-eabi/9.2.1/../../../../arm-none-eabi/lib/thumb/v7e-m+fp/hard\libc_nano.a(lib_a-nano-vfprintf_i.o)
 .ARM.attributes
                0x000009e5       0x1c c:/ncs/v1.7.1/toolchain/opt/bin/../lib/gcc/arm-none-eabi/9.2.1/../../../../arm-none-eabi/lib/thumb/v7e-m+fp/hard\libc_nano.a(lib_a-memchr.o)
 .ARM.attributes
                0x00000a01       0x34 c:/ncs/v1.7.1/toolchain/opt/bin/../lib/gcc/arm-none-eabi/9.2.1/../../../../arm-none-eabi/lib/thumb/v7e-m+fp/hard\libc_nano.a(lib_a-memcpy-stub.o)
 .ARM.attributes
                0x00000a35       0x34 c:/ncs/v1.7.1/toolchain/opt/bin/../lib/gcc/arm-none-eabi/9.2.1/../../../../arm-none-eabi/lib/thumb/v7e-m+fp/hard\libc_nano.a(lib_a-memmove.o)
 .ARM.attributes
                0x00000a69       0x34 c:/ncs/v1.7.1/toolchain/opt/bin/../lib/gcc/arm-none-eabi/9.2.1/../../../../arm-none-eabi/lib/thumb/v7e-m+fp/hard\libc_nano.a(lib_a-nano-freer.o)
 .ARM.attributes
                0x00000a9d       0x34 c:/ncs/v1.7.1/toolchain/opt/bin/../lib/gcc/arm-none-eabi/9.2.1/../../../../arm-none-eabi/lib/thumb/v7e-m+fp/hard\libc_nano.a(lib_a-nano-mallocr.o)
 .ARM.attributes
                0x00000ad1       0x34 c:/ncs/v1.7.1/toolchain/opt/bin/../lib/gcc/arm-none-eabi/9.2.1/../../../../arm-none-eabi/lib/thumb/v7e-m+fp/hard\libc_nano.a(lib_a-nano-reallocr.o)
 .ARM.attributes
                0x00000b05       0x34 c:/ncs/v1.7.1/toolchain/opt/bin/../lib/gcc/arm-none-eabi/9.2.1/../../../../arm-none-eabi/lib/thumb/v7e-m+fp/hard\libc_nano.a(lib_a-sbrkr.o)
 .ARM.attributes
                0x00000b39       0x34 c:/ncs/v1.7.1/toolchain/opt/bin/../lib/gcc/arm-none-eabi/9.2.1/../../../../arm-none-eabi/lib/thumb/v7e-m+fp/hard\libc_nano.a(lib_a-mlock.o)
 .ARM.attributes
                0x00000b6d       0x34 c:/ncs/v1.7.1/toolchain/opt/bin/../lib/gcc/arm-none-eabi/9.2.1/../../../../arm-none-eabi/lib/thumb/v7e-m+fp/hard\libc_nano.a(lib_a-nano-msizer.o)
 .ARM.attributes
                0x00000ba1       0x34 c:/ncs/v1.7.1/toolchain/opt/bin/../lib/gcc/arm-none-eabi/9.2.1/../../../../arm-none-eabi/lib/thumb/v7e-m+fp/hard\libc_nano.a(lib_a-reent.o)
 .ARM.attributes
                0x00000bd5       0x34 c:/ncs/v1.7.1/toolchain/opt/bin/../lib/gcc/arm-none-eabi/9.2.1/../../../../arm-none-eabi/lib/thumb/v7e-m+fp/hard\libc_nano.a(lib_a-lock.o)
 .ARM.attributes
                0x00000c09       0x34 c:/ncs/v1.7.1/toolchain/opt/bin/../lib/gcc/arm-none-eabi/9.2.1/../../../../arm-none-eabi/lib/thumb/v7e-m+fp/hard\libnosys.a(sbrk.o)
 .ARM.attributes
                0x00000c3d       0x1e c:/ncs/v1.7.1/toolchain/opt/bin/../lib/gcc/arm-none-eabi/9.2.1/thumb/v7e-m+fp/hard\libgcc.a(_aeabi_uldivmod.o)
 .ARM.attributes
                0x00000c5b       0x34 c:/ncs/v1.7.1/toolchain/opt/bin/../lib/gcc/arm-none-eabi/9.2.1/thumb/v7e-m+fp/hard\libgcc.a(_udivmoddi4.o)
 .ARM.attributes
                0x00000c8f       0x1e c:/ncs/v1.7.1/toolchain/opt/bin/../lib/gcc/arm-none-eabi/9.2.1/thumb/v7e-m+fp/hard\libgcc.a(_dvmd_tls.o)
 .ARM.attributes
                0x00000cad       0x1e c:/ncs/v1.7.1/toolchain/opt/bin/../lib/gcc/arm-none-eabi/9.2.1/thumb/v7e-m+fp/hard/crtn.o
OUTPUT(build/SD_Logger_Test.elf elf32-littlearm)

.debug_info     0x00000000    0x3c69b
 .debug_info    0x00000000     0x46cc build/main.o
 .debug_info    0x000046cc     0x1016 build/stm32l4xx_it.o
 .debug_info    0x000056e2     0x180f build/stm32l4xx_hal_msp.o
 .debug_info    0x00006ef1     0x10b7 build/user_diskio.o
 .debug_info    0x00007fa8     0x1fc5 build/user_diskio_spi.o
 .debug_info    0x00009f6d     0x1146 build/fatfs.o
 .debug_info    0x0000b0b3      0xd31 build/stm32l4xx_hal.o
 .debug_info    0x0000bde4     0x1239 build/stm32l4xx_hal_rcc.o
 .debug_info    0x0000d01d     0x12a2 build/stm32l4xx_hal_rcc_ex.o
 .debug_info    0x0000e2bf      0xb7b build/stm32l4xx_hal_gpio.o
 .debug_info    0x0000ee3a      0xb22 build/stm32l4xx_hal_dma.o
 .debug_info    0x0000f95c      0xdb7 build/stm32l4xx_hal_pwr_ex.o
 .debug_info    0x00010713     0x1313 build/stm32l4xx_hal_cortex.o
 .debug_info    0x00011a26     0x2520 build/stm32l4xx_hal_spi.o
 .debug_info    0x00013f46     0x55f5 build/stm32l4xx_hal_uart.o
 .debug_info    0x0001953b     0x133b build/stm32l4xx_hal_uart_ex.o
 .debug_info    0x0001a876      0x848 build/system_stm32l4xx.o
 .debug_info    0x0001b0be     0x1a3b build/SPI_FRAM.o
 .debug_info    0x0001caf9     0x10d8 build/diskio.o
 .debug_info    0x0001dbd1     0x52be build/ff.o
 .debug_info    0x00022e8f     0x1025 build/ff_gen_drv.o
 .debug_info    0x00023eb4      0x8ae build/stm32l4xx_hal_crc.o
 .debug_info    0x00024762      0x5fb build/stm32l4xx_hal_crc_ex.o
 .debug_info    0x00024d5d     0x1fea build/stm32l4xx_hal_pcd.o
 .debug_info    0x00026d47      0xd08 build/stm32l4xx_hal_pcd_ex.o
 .debug_info    0x00027a4f     0x1fce build/stm32l4xx_ll_usb.o
 .debug_info    0x00029a1d     0x13f5 build/usb_device.o
 .debug_info    0x0002ae12     0x128e build/usbd_desc.o
 .debug_info    0x0002c0a0     0x19ee build/usbd_storage_if.o
 .debug_info    0x0002da8e     0x2f2e build/usbd_conf.o
 .debug_info    0x000309bc     0x1b0d build/usbd_core.o
 .debug_info    0x000324c9     0x1fba build/usbd_ctlreq.o
 .debug_info    0x00034483     0x14f1 build/usbd_ioreq.o
 .debug_info    0x00035974     0x1bf7 build/usbd_msc.o
 .debug_info    0x0003756b     0x1c1a build/usbd_msc_bot.o
 .debug_info    0x00039185      0xd27 build/usbd_msc_data.o
 .debug_info    0x00039eac     0x27cd build/usbd_msc_scsi.o
 .debug_info    0x0003c679       0x22 build/startup_stm32l412xx.o

.debug_abbrev   0x00000000     0x6667
 .debug_abbrev  0x00000000      0x4b0 build/main.o
 .debug_abbrev  0x000004b0      0x192 build/stm32l4xx_it.o
 .debug_abbrev  0x00000642      0x274 build/stm32l4xx_hal_msp.o
 .debug_abbrev  0x000008b6      0x272 build/user_diskio.o
 .debug_abbrev  0x00000b28      0x3b0 build/user_diskio_spi.o
 .debug_abbrev  0x00000ed8      0x251 build/fatfs.o
 .debug_abbrev  0x00001129      0x24d build/stm32l4xx_hal.o
 .debug_abbrev  0x00001376      0x28e build/stm32l4xx_hal_rcc.o
 .debug_abbrev  0x00001604      0x27e build/stm32l4xx_hal_rcc_ex.o
 .debug_abbrev  0x00001882      0x24f build/stm32l4xx_hal_gpio.o
 .debug_abbrev  0x00001ad1      0x27a build/stm32l4xx_hal_dma.o
 .debug_abbrev  0x00001d4b      0x247 build/stm32l4xx_hal_pwr_ex.o
 .debug_abbrev  0x00001f92      0x3a8 build/stm32l4xx_hal_cortex.o
 .debug_abbrev  0x0000233a      0x2a4 build/stm32l4xx_hal_spi.o
 .debug_abbrev  0x000025de      0x340 build/stm32l4xx_hal_uart.o
 .debug_abbrev  0x0000291e      0x30c build/stm32l4xx_hal_uart_ex.o
 .debug_abbrev  0x00002c2a      0x16a build/system_stm32l4xx.o
 .debug_abbrev  0x00002d94      0x356 build/SPI_FRAM.o
 .debug_abbrev  0x000030ea      0x294 build/diskio.o
 .debug_abbrev  0x0000337e      0x397 build/ff.o
 .debug_abbrev  0x00003715      0x2b7 build/ff_gen_drv.o
 .debug_abbrev  0x000039cc      0x21e build/stm32l4xx_hal_crc.o
 .debug_abbrev  0x00003bea      0x172 build/stm32l4xx_hal_crc_ex.o
 .debug_abbrev  0x00003d5c      0x2f5 build/stm32l4xx_hal_pcd.o
 .debug_abbrev  0x00004051      0x213 build/stm32l4xx_hal_pcd_ex.o
 .debug_abbrev  0x00004264      0x277 build/stm32l4xx_ll_usb.o
 .debug_abbrev  0x000044db      0x239 build/usb_device.o
 .debug_abbrev  0x00004714      0x2dd build/usbd_desc.o
 .debug_abbrev  0x000049f1      0x33d build/usbd_storage_if.o
 .debug_abbrev  0x00004d2e      0x3a6 build/usbd_conf.o
 .debug_abbrev  0x000050d4      0x331 build/usbd_core.o
 .debug_abbrev  0x00005405      0x41c build/usbd_ctlreq.o
 .debug_abbrev  0x00005821      0x23a build/usbd_ioreq.o
 .debug_abbrev  0x00005a5b      0x33f build/usbd_msc.o
 .debug_abbrev  0x00005d9a      0x344 build/usbd_msc_bot.o
 .debug_abbrev  0x000060de      0x1c1 build/usbd_msc_data.o
 .debug_abbrev  0x0000629f      0x3b6 build/usbd_msc_scsi.o
 .debug_abbrev  0x00006655       0x12 build/startup_stm32l412xx.o

.debug_loc      0x00000000    0x1fc01
 .debug_loc     0x00000000      0x805 build/main.o
 .debug_loc     0x00000805       0x60 build/stm32l4xx_it.o
 .debug_loc     0x00000865      0x27e build/stm32l4xx_hal_msp.o
 .debug_loc     0x00000ae3      0x281 build/user_diskio.o
 .debug_loc     0x00000d64      0xead build/user_diskio_spi.o
 .debug_loc     0x00001c11       0x20 build/fatfs.o
 .debug_loc     0x00001c31      0x26d build/stm32l4xx_hal.o
 .debug_loc     0x00001e9e      0xa43 build/stm32l4xx_hal_rcc.o
 .debug_loc     0x000028e1      0xfcc build/stm32l4xx_hal_rcc_ex.o
 .debug_loc     0x000038ad      0x3f4 build/stm32l4xx_hal_gpio.o
 .debug_loc     0x00003ca1      0x94e build/stm32l4xx_hal_dma.o
 .debug_loc     0x000045ef      0x857 build/stm32l4xx_hal_pwr_ex.o
 .debug_loc     0x00004e46      0x7d4 build/stm32l4xx_hal_cortex.o
 .debug_loc     0x0000561a     0x2781 build/stm32l4xx_hal_spi.o
 .debug_loc     0x00007d9b     0x52f0 build/stm32l4xx_hal_uart.o
 .debug_loc     0x0000d08b      0xd5f build/stm32l4xx_hal_uart_ex.o
 .debug_loc     0x0000ddea      0x100 build/system_stm32l4xx.o
 .debug_loc     0x0000deea      0x608 build/SPI_FRAM.o
 .debug_loc     0x0000e4f2      0x323 build/diskio.o
 .debug_loc     0x0000e815     0x5cd0 build/ff.o
 .debug_loc     0x000144e5      0x311 build/ff_gen_drv.o
 .debug_loc     0x000147f6      0x6d8 build/stm32l4xx_hal_crc.o
 .debug_loc     0x00014ece      0x1e1 build/stm32l4xx_hal_crc_ex.o
 .debug_loc     0x000150af     0x1988 build/stm32l4xx_hal_pcd.o
 .debug_loc     0x00016a37      0x2a2 build/stm32l4xx_hal_pcd_ex.o
 .debug_loc     0x00016cd9     0x1ae2 build/stm32l4xx_ll_usb.o
 .debug_loc     0x000187bb       0x20 build/usb_device.o
 .debug_loc     0x000187db      0x4a0 build/usbd_desc.o
 .debug_loc     0x00018c7b      0x2bb build/usbd_storage_if.o
 .debug_loc     0x00018f36     0x1177 build/usbd_conf.o
 .debug_loc     0x0001a0ad      0xdea build/usbd_core.o
 .debug_loc     0x0001ae97     0x18eb build/usbd_ctlreq.o
 .debug_loc     0x0001c782      0x398 build/usbd_ioreq.o
 .debug_loc     0x0001cb1a      0x702 build/usbd_msc.o
 .debug_loc     0x0001d21c      0x65b build/usbd_msc_bot.o
 .debug_loc     0x0001d877     0x238a build/usbd_msc_scsi.o

.debug_aranges  0x00000000     0x17a8
 .debug_aranges
                0x00000000       0xb8 build/main.o
 .debug_aranges
                0x000000b8       0x70 build/stm32l4xx_it.o
 .debug_aranges
                0x00000128       0x50 build/stm32l4xx_hal_msp.o
 .debug_aranges
                0x00000178       0x40 build/user_diskio.o
 .debug_aranges
                0x000001b8       0x98 build/user_diskio_spi.o
 .debug_aranges
                0x00000250       0x28 build/fatfs.o
 .debug_aranges
                0x00000278      0x108 build/stm32l4xx_hal.o
 .debug_aranges
                0x00000380       0x90 build/stm32l4xx_hal_rcc.o
 .debug_aranges
                0x00000410       0xd0 build/stm32l4xx_hal_rcc_ex.o
 .debug_aranges
                0x000004e0       0x58 build/stm32l4xx_hal_gpio.o
 .debug_aranges
                0x00000538       0x80 build/stm32l4xx_hal_dma.o
 .debug_aranges
                0x000005b8      0x148 build/stm32l4xx_hal_pwr_ex.o
 .debug_aranges
                0x00000700       0xa8 build/stm32l4xx_hal_cortex.o
 .debug_aranges
                0x000007a8      0x1d8 build/stm32l4xx_hal_spi.o
 .debug_aranges
                0x00000980      0x228 build/stm32l4xx_hal_uart.o
 .debug_aranges
                0x00000ba8       0x78 build/stm32l4xx_hal_uart_ex.o
 .debug_aranges
                0x00000c20       0x28 build/system_stm32l4xx.o
 .debug_aranges
                0x00000c48       0x68 build/SPI_FRAM.o
 .debug_aranges
                0x00000cb0       0x48 build/diskio.o
 .debug_aranges
                0x00000cf8      0x208 build/ff.o
 .debug_aranges
                0x00000f00       0x40 build/ff_gen_drv.o
 .debug_aranges
                0x00000f40       0x60 build/stm32l4xx_hal_crc.o
 .debug_aranges
                0x00000fa0       0x30 build/stm32l4xx_hal_crc_ex.o
 .debug_aranges
                0x00000fd0      0x138 build/stm32l4xx_hal_pcd.o
 .debug_aranges
                0x00001108       0x58 build/stm32l4xx_hal_pcd_ex.o
 .debug_aranges
                0x00001160       0xf8 build/stm32l4xx_ll_usb.o
 .debug_aranges
                0x00001258       0x20 build/usb_device.o
 .debug_aranges
                0x00001278       0x68 build/usbd_desc.o
 .debug_aranges
                0x000012e0       0x50 build/usbd_storage_if.o
 .debug_aranges
                0x00001330      0x118 build/usbd_conf.o
 .debug_aranges
                0x00001448       0xb8 build/usbd_core.o
 .debug_aranges
                0x00001500       0x88 build/usbd_ctlreq.o
 .debug_aranges
                0x00001588       0x50 build/usbd_ioreq.o
 .debug_aranges
                0x000015d8       0x68 build/usbd_msc.o
 .debug_aranges
                0x00001640       0x68 build/usbd_msc_bot.o
 .debug_aranges
                0x000016a8       0x18 build/usbd_msc_data.o
 .debug_aranges
                0x000016c0       0xc0 build/usbd_msc_scsi.o
 .debug_aranges
                0x00001780       0x28 build/startup_stm32l412xx.o

.debug_ranges   0x00000000     0x1990
 .debug_ranges  0x00000000       0xf8 build/main.o
 .debug_ranges  0x000000f8       0x60 build/stm32l4xx_it.o
 .debug_ranges  0x00000158       0x40 build/stm32l4xx_hal_msp.o
 .debug_ranges  0x00000198       0x30 build/user_diskio.o
 .debug_ranges  0x000001c8       0x88 build/user_diskio_spi.o
 .debug_ranges  0x00000250       0x18 build/fatfs.o
 .debug_ranges  0x00000268       0xf8 build/stm32l4xx_hal.o
 .debug_ranges  0x00000360       0xb8 build/stm32l4xx_hal_rcc.o
 .debug_ranges  0x00000418       0xd8 build/stm32l4xx_hal_rcc_ex.o
 .debug_ranges  0x000004f0       0x48 build/stm32l4xx_hal_gpio.o
 .debug_ranges  0x00000538       0x70 build/stm32l4xx_hal_dma.o
 .debug_ranges  0x000005a8      0x138 build/stm32l4xx_hal_pwr_ex.o
 .debug_ranges  0x000006e0       0xf8 build/stm32l4xx_hal_cortex.o
 .debug_ranges  0x000007d8      0x1c8 build/stm32l4xx_hal_spi.o
 .debug_ranges  0x000009a0      0x230 build/stm32l4xx_hal_uart.o
 .debug_ranges  0x00000bd0       0x68 build/stm32l4xx_hal_uart_ex.o
 .debug_ranges  0x00000c38       0x18 build/system_stm32l4xx.o
 .debug_ranges  0x00000c50       0x70 build/SPI_FRAM.o
 .debug_ranges  0x00000cc0       0x38 build/diskio.o
 .debug_ranges  0x00000cf8      0x1f8 build/ff.o
 .debug_ranges  0x00000ef0       0x30 build/ff_gen_drv.o
 .debug_ranges  0x00000f20       0x50 build/stm32l4xx_hal_crc.o
 .debug_ranges  0x00000f70       0x20 build/stm32l4xx_hal_crc_ex.o
 .debug_ranges  0x00000f90      0x208 build/stm32l4xx_hal_pcd.o
 .debug_ranges  0x00001198       0x48 build/stm32l4xx_hal_pcd_ex.o
 .debug_ranges  0x000011e0      0x320 build/stm32l4xx_ll_usb.o
 .debug_ranges  0x00001500       0x10 build/usb_device.o
 .debug_ranges  0x00001510       0x58 build/usbd_desc.o
 .debug_ranges  0x00001568       0x40 build/usbd_storage_if.o
 .debug_ranges  0x000015a8      0x108 build/usbd_conf.o
 .debug_ranges  0x000016b0       0xa8 build/usbd_core.o
 .debug_ranges  0x00001758       0x78 build/usbd_ctlreq.o
 .debug_ranges  0x000017d0       0x40 build/usbd_ioreq.o
 .debug_ranges  0x00001810       0x58 build/usbd_msc.o
 .debug_ranges  0x00001868       0x58 build/usbd_msc_bot.o
 .debug_ranges  0x000018c0       0xb0 build/usbd_msc_scsi.o
 .debug_ranges  0x00001970       0x20 build/startup_stm32l412xx.o

.debug_line     0x00000000    0x1dffd
 .debug_line    0x00000000      0xfa1 build/main.o
 .debug_line    0x00000fa1      0x33b build/stm32l4xx_it.o
 .debug_line    0x000012dc      0x4a5 build/stm32l4xx_hal_msp.o
 .debug_line    0x00001781      0x325 build/user_diskio.o
 .debug_line    0x00001aa6      0xcb5 build/user_diskio_spi.o
 .debug_line    0x0000275b      0x2e8 build/fatfs.o
 .debug_line    0x00002a43      0x5d5 build/stm32l4xx_hal.o
 .debug_line    0x00003018      0xfc6 build/stm32l4xx_hal_rcc.o
 .debug_line    0x00003fde      0xe05 build/stm32l4xx_hal_rcc_ex.o
 .debug_line    0x00004de3      0x6ab build/stm32l4xx_hal_gpio.o
 .debug_line    0x0000548e      0xa5b build/stm32l4xx_hal_dma.o
 .debug_line    0x00005ee9      0x96f build/stm32l4xx_hal_pwr_ex.o
 .debug_line    0x00006858      0x799 build/stm32l4xx_hal_cortex.o
 .debug_line    0x00006ff1     0x2901 build/stm32l4xx_hal_spi.o
 .debug_line    0x000098f2     0x5257 build/stm32l4xx_hal_uart.o
 .debug_line    0x0000eb49      0xb93 build/stm32l4xx_hal_uart_ex.o
 .debug_line    0x0000f6dc      0x2c9 build/system_stm32l4xx.o
 .debug_line    0x0000f9a5      0x64a build/SPI_FRAM.o
 .debug_line    0x0000ffef      0x382 build/diskio.o
 .debug_line    0x00010371     0x4286 build/ff.o
 .debug_line    0x000145f7      0x3c4 build/ff_gen_drv.o
 .debug_line    0x000149bb      0x65c build/stm32l4xx_hal_crc.o
 .debug_line    0x00015017      0x2d1 build/stm32l4xx_hal_crc_ex.o
 .debug_line    0x000152e8     0x19c6 build/stm32l4xx_hal_pcd.o
 .debug_line    0x00016cae      0x443 build/stm32l4xx_hal_pcd_ex.o
 .debug_line    0x000170f1     0x19bd build/stm32l4xx_ll_usb.o
 .debug_line    0x00018aae      0x356 build/usb_device.o
 .debug_line    0x00018e04      0x4c5 build/usbd_desc.o
 .debug_line    0x000192c9      0x43c build/usbd_storage_if.o
 .debug_line    0x00019705      0xa33 build/usbd_conf.o
 .debug_line    0x0001a138      0x9a3 build/usbd_core.o
 .debug_line    0x0001aadb      0xdfe build/usbd_ctlreq.o
 .debug_line    0x0001b8d9      0x3ef build/usbd_ioreq.o
 .debug_line    0x0001bcc8      0x6ce build/usbd_msc.o
 .debug_line    0x0001c396      0x6e3 build/usbd_msc_bot.o
 .debug_line    0x0001ca79      0x2b3 build/usbd_msc_data.o
 .debug_line    0x0001cd2c     0x125b build/usbd_msc_scsi.o
 .debug_line    0x0001df87       0x76 build/startup_stm32l412xx.o

.debug_str      0x00000000     0x6aeb
 .debug_str     0x00000000     0x1d34 build/main.o
                               0x1f61 (size before relaxing)
 .debug_str     0x00001d34      0x3e7 build/stm32l4xx_it.o
                                0xc58 (size before relaxing)
 .debug_str     0x0000211b      0x5a4 build/stm32l4xx_hal_msp.o
                               0x128a (size before relaxing)
 .debug_str     0x000026bf       0xb8 build/user_diskio.o
                                0x98b (size before relaxing)
 .debug_str     0x00002777      0x12e build/user_diskio_spi.o
                                0xe2f (size before relaxing)
 .debug_str     0x000028a5       0x2f build/fatfs.o
                                0xa08 (size before relaxing)
 .debug_str     0x000028d4      0x2c3 build/stm32l4xx_hal.o
                                0xce2 (size before relaxing)
 .debug_str     0x00002b97      0x2b5 build/stm32l4xx_hal_rcc.o
                                0xaae (size before relaxing)
 .debug_str     0x00002e4c      0x433 build/stm32l4xx_hal_rcc_ex.o
                                0xce5 (size before relaxing)
 .debug_str     0x0000327f       0xc4 build/stm32l4xx_hal_gpio.o
                                0x7df (size before relaxing)
 .debug_str     0x00003343      0x25e build/stm32l4xx_hal_dma.o
                                0x8af (size before relaxing)
 .debug_str     0x000035a1      0x490 build/stm32l4xx_hal_pwr_ex.o
                                0xa92 (size before relaxing)
 .debug_str     0x00003a31      0x401 build/stm32l4xx_hal_cortex.o
                                0xd56 (size before relaxing)
 .debug_str     0x00003e32      0x534 build/stm32l4xx_hal_spi.o
                                0xe2b (size before relaxing)
 .debug_str     0x00004366      0x736 build/stm32l4xx_hal_uart.o
                               0x122e (size before relaxing)
 .debug_str     0x00004a9c      0x15c build/stm32l4xx_hal_uart_ex.o
                                0xb62 (size before relaxing)
 .debug_str     0x00004bf8       0x3d build/system_stm32l4xx.o
                                0x631 (size before relaxing)
 .debug_str     0x00004c35      0x10a build/SPI_FRAM.o
                                0xe24 (size before relaxing)
 .debug_str     0x00004d3f       0x4f build/diskio.o
                                0x933 (size before relaxing)
 .debug_str     0x00004d8e      0x37e build/ff.o
                                0xebb (size before relaxing)
 .debug_str     0x0000510c       0x7b build/ff_gen_drv.o
                                0x984 (size before relaxing)
 .debug_str     0x00005187       0xc8 build/stm32l4xx_hal_crc.o
                                0x6fa (size before relaxing)
 .debug_str     0x0000524f       0xa1 build/stm32l4xx_hal_crc_ex.o
                                0x6b4 (size before relaxing)
 .debug_str     0x000052f0      0x590 build/stm32l4xx_hal_pcd.o
                                0xda4 (size before relaxing)
 .debug_str     0x00005880      0x196 build/stm32l4xx_hal_pcd_ex.o
                                0xa00 (size before relaxing)
 .debug_str     0x00005a16      0x131 build/stm32l4xx_ll_usb.o
                                0x9d4 (size before relaxing)
 .debug_str     0x00005b47      0x116 build/usb_device.o
                                0xd43 (size before relaxing)
 .debug_str     0x00005c5d      0x1ab build/usbd_desc.o
                                0xb10 (size before relaxing)
 .debug_str     0x00005e08      0x138 build/usbd_storage_if.o
                               0x1060 (size before relaxing)
 .debug_str     0x00005f40      0x27b build/usbd_conf.o
                               0x1c41 (size before relaxing)
 .debug_str     0x000061bb      0x13e build/usbd_core.o
                                0xef5 (size before relaxing)
 .debug_str     0x000062f9      0x109 build/usbd_ctlreq.o
                                0xe47 (size before relaxing)
 .debug_str     0x00006402       0x60 build/usbd_ioreq.o
                                0xd3c (size before relaxing)
 .debug_str     0x00006462      0x35c build/usbd_msc.o
                               0x10a4 (size before relaxing)
 .debug_str     0x000067be       0xb1 build/usbd_msc_bot.o
                                0xf94 (size before relaxing)
 .debug_str     0x0000686f       0xa1 build/usbd_msc_data.o
                                0x8be (size before relaxing)
 .debug_str     0x00006910      0x1b7 build/usbd_msc_scsi.o
                               0x1080 (size before relaxing)
 .debug_str     0x00006ac7       0x24 build/startup_stm32l412xx.o
                                 0x6a (size before relaxing)

.comment        0x00000000       0x79
 .comment       0x00000000       0x79 build/main.o
                                 0x7a (size before relaxing)
 .comment       0x00000079       0x7a build/stm32l4xx_it.o
 .comment       0x00000079       0x7a build/stm32l4xx_hal_msp.o
 .comment       0x00000079       0x7a build/user_diskio.o
 .comment       0x00000079       0x7a build/user_diskio_spi.o
 .comment       0x00000079       0x7a build/fatfs.o
 .comment       0x00000079       0x7a build/stm32l4xx_hal.o
 .comment       0x00000079       0x7a build/stm32l4xx_hal_rcc.o
 .comment       0x00000079       0x7a build/stm32l4xx_hal_rcc_ex.o
 .comment       0x00000079       0x7a build/stm32l4xx_hal_gpio.o
 .comment       0x00000079       0x7a build/stm32l4xx_hal_dma.o
 .comment       0x00000079       0x7a build/stm32l4xx_hal_pwr_ex.o
 .comment       0x00000079       0x7a build/stm32l4xx_hal_cortex.o
 .comment       0x00000079       0x7a build/stm32l4xx_hal_spi.o
 .comment       0x00000079       0x7a build/stm32l4xx_hal_uart.o
 .comment       0x00000079       0x7a build/stm32l4xx_hal_uart_ex.o
 .comment       0x00000079       0x7a build/system_stm32l4xx.o
 .comment       0x00000079       0x7a build/SPI_FRAM.o
 .comment       0x00000079       0x7a build/diskio.o
 .comment       0x00000079       0x7a build/ff.o
 .comment       0x00000079       0x7a build/ff_gen_drv.o
 .comment       0x00000079       0x7a build/stm32l4xx_hal_crc.o
 .comment       0x00000079       0x7a build/stm32l4xx_hal_crc_ex.o
 .comment       0x00000079       0x7a build/stm32l4xx_hal_pcd.o
 .comment       0x00000079       0x7a build/stm32l4xx_hal_pcd_ex.o
 .comment       0x00000079       0x7a build/stm32l4xx_ll_usb.o
 .comment       0x00000079       0x7a build/usb_device.o
 .comment       0x00000079       0x7a build/usbd_desc.o
 .comment       0x00000079       0x7a build/usbd_storage_if.o
 .comment       0x00000079       0x7a build/usbd_conf.o
 .comment       0x00000079       0x7a build/usbd_core.o
 .comment       0x00000079       0x7a build/usbd_ctlreq.o
 .comment       0x00000079       0x7a build/usbd_ioreq.o
 .comment       0x00000079       0x7a build/usbd_msc.o
 .comment       0x00000079       0x7a build/usbd_msc_bot.o
 .comment       0x00000079       0x7a build/usbd_msc_data.o
 .comment       0x00000079       0x7a build/usbd_msc_scsi.o

.debug_frame    0x00000000     0x4b48
 .debug_frame   0x00000000      0x28c build/main.o
 .debug_frame   0x0000028c       0xe4 build/stm32l4xx_it.o
 .debug_frame   0x00000370       0xcc build/stm32l4xx_hal_msp.o
 .debug_frame   0x0000043c       0x9c build/user_diskio.o
 .debug_frame   0x000004d8      0x260 build/user_diskio_spi.o
 .debug_frame   0x00000738       0x3c build/fatfs.o
 .debug_frame   0x00000774      0x230 build/stm32l4xx_hal.o
 .debug_frame   0x000009a4      0x1d0 build/stm32l4xx_hal_rcc.o
 .debug_frame   0x00000b74      0x200 build/stm32l4xx_hal_rcc_ex.o
 .debug_frame   0x00000d74       0xec build/stm32l4xx_hal_gpio.o
 .debug_frame   0x00000e60      0x180 build/stm32l4xx_hal_dma.o
 .debug_frame   0x00000fe0      0x294 build/stm32l4xx_hal_pwr_ex.o
 .debug_frame   0x00001274      0x16c build/stm32l4xx_hal_cortex.o
 .debug_frame   0x000013e0      0x68c build/stm32l4xx_hal_spi.o
 .debug_frame   0x00001a6c      0x6b8 build/stm32l4xx_hal_uart.o
 .debug_frame   0x00002124      0x174 build/stm32l4xx_hal_uart_ex.o
 .debug_frame   0x00002298       0x30 build/system_stm32l4xx.o
 .debug_frame   0x000022c8      0x160 build/SPI_FRAM.o
 .debug_frame   0x00002428       0xb4 build/diskio.o
 .debug_frame   0x000024dc      0x934 build/ff.o
 .debug_frame   0x00002e10       0x90 build/ff_gen_drv.o
 .debug_frame   0x00002ea0      0x120 build/stm32l4xx_hal_crc.o
 .debug_frame   0x00002fc0       0x50 build/stm32l4xx_hal_crc_ex.o
 .debug_frame   0x00003010      0x3b4 build/stm32l4xx_hal_pcd.o
 .debug_frame   0x000033c4       0xa0 build/stm32l4xx_hal_pcd_ex.o
 .debug_frame   0x00003464      0x240 build/stm32l4xx_ll_usb.o
 .debug_frame   0x000036a4       0x2c build/usb_device.o
 .debug_frame   0x000036d0      0x10c build/usbd_desc.o
 .debug_frame   0x000037dc       0xb0 build/usbd_storage_if.o
 .debug_frame   0x0000388c      0x378 build/usbd_conf.o
 .debug_frame   0x00003c04      0x25c build/usbd_core.o
 .debug_frame   0x00003e60      0x1b8 build/usbd_ctlreq.o
 .debug_frame   0x00004018       0xd4 build/usbd_ioreq.o
 .debug_frame   0x000040ec      0x108 build/usbd_msc.o
 .debug_frame   0x000041f4      0x140 build/usbd_msc_bot.o
 .debug_frame   0x00004334      0x2d4 build/usbd_msc_scsi.o
 .debug_frame   0x00004608       0x2c c:/ncs/v1.7.1/toolchain/opt/bin/../lib/gcc/arm-none-eabi/9.2.1/../../../../arm-none-eabi/lib/thumb/v7e-m+fp/hard\libc_nano.a(lib_a-init.o)
 .debug_frame   0x00004634       0x20 c:/ncs/v1.7.1/toolchain/opt/bin/../lib/gcc/arm-none-eabi/9.2.1/../../../../arm-none-eabi/lib/thumb/v7e-m+fp/hard\libc_nano.a(lib_a-memset.o)
 .debug_frame   0x00004654       0x6c c:/ncs/v1.7.1/toolchain/opt/bin/../lib/gcc/arm-none-eabi/9.2.1/../../../../arm-none-eabi/lib/thumb/v7e-m+fp/hard\libc_nano.a(lib_a-sprintf.o)
 .debug_frame   0x000046c0       0x28 c:/ncs/v1.7.1/toolchain/opt/bin/../lib/gcc/arm-none-eabi/9.2.1/../../../../arm-none-eabi/lib/thumb/v7e-m+fp/hard\libc_nano.a(lib_a-strcat.o)
 .debug_frame   0x000046e8       0x28 c:/ncs/v1.7.1/toolchain/opt/bin/../lib/gcc/arm-none-eabi/9.2.1/../../../../arm-none-eabi/lib/thumb/v7e-m+fp/hard\libc_nano.a(lib_a-strncpy.o)
 .debug_frame   0x00004710       0x4c c:/ncs/v1.7.1/toolchain/opt/bin/../lib/gcc/arm-none-eabi/9.2.1/../../../../arm-none-eabi/lib/thumb/v7e-m+fp/hard\libc_nano.a(lib_a-vsnprintf.o)
 .debug_frame   0x0000475c       0x90 c:/ncs/v1.7.1/toolchain/opt/bin/../lib/gcc/arm-none-eabi/9.2.1/../../../../arm-none-eabi/lib/thumb/v7e-m+fp/hard\libc_nano.a(lib_a-nano-svfprintf.o)
 .debug_frame   0x000047ec       0x60 c:/ncs/v1.7.1/toolchain/opt/bin/../lib/gcc/arm-none-eabi/9.2.1/../../../../arm-none-eabi/lib/thumb/v7e-m+fp/hard\libc_nano.a(lib_a-nano-vfprintf_i.o)
 .debug_frame   0x0000484c       0x28 c:/ncs/v1.7.1/toolchain/opt/bin/../lib/gcc/arm-none-eabi/9.2.1/../../../../arm-none-eabi/lib/thumb/v7e-m+fp/hard\libc_nano.a(lib_a-memcpy-stub.o)
 .debug_frame   0x00004874       0x28 c:/ncs/v1.7.1/toolchain/opt/bin/../lib/gcc/arm-none-eabi/9.2.1/../../../../arm-none-eabi/lib/thumb/v7e-m+fp/hard\libc_nano.a(lib_a-memmove.o)
 .debug_frame   0x0000489c       0x38 c:/ncs/v1.7.1/toolchain/opt/bin/../lib/gcc/arm-none-eabi/9.2.1/../../../../arm-none-eabi/lib/thumb/v7e-m+fp/hard\libc_nano.a(lib_a-nano-freer.o)
 .debug_frame   0x000048d4       0x30 c:/ncs/v1.7.1/toolchain/opt/bin/../lib/gcc/arm-none-eabi/9.2.1/../../../../arm-none-eabi/lib/thumb/v7e-m+fp/hard\libc_nano.a(lib_a-nano-mallocr.o)
 .debug_frame   0x00004904       0x3c c:/ncs/v1.7.1/toolchain/opt/bin/../lib/gcc/arm-none-eabi/9.2.1/../../../../arm-none-eabi/lib/thumb/v7e-m+fp/hard\libc_nano.a(lib_a-nano-reallocr.o)
 .debug_frame   0x00004940       0x2c c:/ncs/v1.7.1/toolchain/opt/bin/../lib/gcc/arm-none-eabi/9.2.1/../../../../arm-none-eabi/lib/thumb/v7e-m+fp/hard\libc_nano.a(lib_a-sbrkr.o)
 .debug_frame   0x0000496c       0x30 c:/ncs/v1.7.1/toolchain/opt/bin/../lib/gcc/arm-none-eabi/9.2.1/../../../../arm-none-eabi/lib/thumb/v7e-m+fp/hard\libc_nano.a(lib_a-mlock.o)
 .debug_frame   0x0000499c       0x20 c:/ncs/v1.7.1/toolchain/opt/bin/../lib/gcc/arm-none-eabi/9.2.1/../../../../arm-none-eabi/lib/thumb/v7e-m+fp/hard\libc_nano.a(lib_a-nano-msizer.o)
 .debug_frame   0x000049bc       0x5c c:/ncs/v1.7.1/toolchain/opt/bin/../lib/gcc/arm-none-eabi/9.2.1/../../../../arm-none-eabi/lib/thumb/v7e-m+fp/hard\libc_nano.a(lib_a-reent.o)
 .debug_frame   0x00004a18       0xb0 c:/ncs/v1.7.1/toolchain/opt/bin/../lib/gcc/arm-none-eabi/9.2.1/../../../../arm-none-eabi/lib/thumb/v7e-m+fp/hard\libc_nano.a(lib_a-lock.o)
 .debug_frame   0x00004ac8       0x20 c:/ncs/v1.7.1/toolchain/opt/bin/../lib/gcc/arm-none-eabi/9.2.1/../../../../arm-none-eabi/lib/thumb/v7e-m+fp/hard\libnosys.a(sbrk.o)
 .debug_frame   0x00004ae8       0x2c c:/ncs/v1.7.1/toolchain/opt/bin/../lib/gcc/arm-none-eabi/9.2.1/thumb/v7e-m+fp/hard\libgcc.a(_aeabi_uldivmod.o)
 .debug_frame   0x00004b14       0x34 c:/ncs/v1.7.1/toolchain/opt/bin/../lib/gcc/arm-none-eabi/9.2.1/thumb/v7e-m+fp/hard\libgcc.a(_udivmoddi4.o)

Cross Reference Table

Symbol                                            File
ADC1_2_IRQHandler                                 build/startup_stm32l412xx.o
AHBPrescTable                                     build/system_stm32l4xx.o
                                                  build/stm32l4xx_hal_rcc.o
APBPrescTable                                     build/system_stm32l4xx.o
                                                  build/stm32l4xx_hal_rcc.o
BOARD_POWER_UP                                    build/main.o
BUFFER_NEAR_FULL_                                 build/main.o
BusFault_Handler                                  build/stm32l4xx_it.o
COMP_IRQHandler                                   build/startup_stm32l412xx.o
CRS_IRQHandler                                    build/startup_stm32l412xx.o
DMA1_Channel1_IRQHandler                          build/startup_stm32l412xx.o
DMA1_Channel2_IRQHandler                          build/startup_stm32l412xx.o
DMA1_Channel3_IRQHandler                          build/startup_stm32l412xx.o
DMA1_Channel4_IRQHandler                          build/startup_stm32l412xx.o
DMA1_Channel5_IRQHandler                          build/startup_stm32l412xx.o
DMA1_Channel6_IRQHandler                          build/startup_stm32l412xx.o
DMA1_Channel7_IRQHandler                          build/startup_stm32l412xx.o
DMA2_Channel1_IRQHandler                          build/startup_stm32l412xx.o
DMA2_Channel2_IRQHandler                          build/startup_stm32l412xx.o
DMA2_Channel3_IRQHandler                          build/startup_stm32l412xx.o
DMA2_Channel4_IRQHandler                          build/startup_stm32l412xx.o
DMA2_Channel5_IRQHandler                          build/startup_stm32l412xx.o
DMA2_Channel6_IRQHandler                          build/startup_stm32l412xx.o
DMA2_Channel7_IRQHandler                          build/startup_stm32l412xx.o
DebugMon_Handler                                  build/stm32l4xx_it.o
Default_Handler                                   build/startup_stm32l412xx.o
EXTI0_IRQHandler                                  build/startup_stm32l412xx.o
EXTI15_10_IRQHandler                              build/startup_stm32l412xx.o
EXTI1_IRQHandler                                  build/startup_stm32l412xx.o
EXTI2_IRQHandler                                  build/startup_stm32l412xx.o
EXTI3_IRQHandler                                  build/startup_stm32l412xx.o
EXTI4_IRQHandler                                  build/startup_stm32l412xx.o
EXTI9_5_IRQHandler                                build/startup_stm32l412xx.o
Error_Handler                                     build/main.o
                                                  build/usbd_conf.o
                                                  build/usb_device.o
                                                  build/stm32l4xx_hal_msp.o
FATFS_GetAttachedDriversNbr                       build/ff_gen_drv.o
FATFS_LinkDriver                                  build/ff_gen_drv.o
                                                  build/fatfs.o
FATFS_LinkDriverEx                                build/ff_gen_drv.o
FATFS_UnLinkDriver                                build/ff_gen_drv.o
                                                  build/main.o
FATFS_UnLinkDriverEx                              build/ff_gen_drv.o
FATPATH                                           build/main.o
FLASH_FlushCaches                                 build/stm32l4xx_hal_flash_ex.o
                                                  build/stm32l4xx_hal_flash.o
FLASH_IRQHandler                                  build/startup_stm32l412xx.o
FLASH_PageErase                                   build/stm32l4xx_hal_flash_ex.o
                                                  build/stm32l4xx_hal_flash.o
FLASH_WaitForLastOperation                        build/stm32l4xx_hal_flash.o
                                                  build/stm32l4xx_hal_flash_ex.o
FPU_IRQHandler                                    build/startup_stm32l412xx.o
FRAM_begin                                        build/SPI_FRAM.o
                                                  build/main.o
FRAM_getID                                        build/SPI_FRAM.o
                                                  build/main.o
FRAM_read                                         build/SPI_FRAM.o
                                                  build/main.o
FRAM_read8                                        build/SPI_FRAM.o
                                                  build/main.o
FRAM_sleepEnable                                  build/SPI_FRAM.o
                                                  build/main.o
FRAM_write                                        build/SPI_FRAM.o
                                                  build/main.o
FRAM_write8                                       build/SPI_FRAM.o
                                                  build/main.o
FRAM_writeEnable                                  build/SPI_FRAM.o
                                                  build/main.o
FS_Desc                                           build/usbd_desc.o
                                                  build/usb_device.o
FatFs                                             build/main.o
HAL_CRCEx_Input_Data_Reverse                      build/stm32l4xx_hal_crc_ex.o
HAL_CRCEx_Output_Data_Reverse                     build/stm32l4xx_hal_crc_ex.o
HAL_CRCEx_Polynomial_Set                          build/stm32l4xx_hal_crc_ex.o
                                                  build/stm32l4xx_hal_crc.o
HAL_CRC_Accumulate                                build/stm32l4xx_hal_crc.o
HAL_CRC_Calculate                                 build/stm32l4xx_hal_crc.o
HAL_CRC_DeInit                                    build/stm32l4xx_hal_crc.o
HAL_CRC_GetState                                  build/stm32l4xx_hal_crc.o
HAL_CRC_Init                                      build/stm32l4xx_hal_crc.o
                                                  build/main.o
HAL_CRC_MspDeInit                                 build/stm32l4xx_hal_msp.o
HAL_CRC_MspInit                                   build/stm32l4xx_hal_msp.o
HAL_DBGMCU_DisableDBGSleepMode                    build/stm32l4xx_hal.o
                                                  build/main.o
HAL_DBGMCU_DisableDBGStandbyMode                  build/stm32l4xx_hal.o
                                                  build/main.o
HAL_DBGMCU_DisableDBGStopMode                     build/stm32l4xx_hal.o
                                                  build/main.o
HAL_DBGMCU_EnableDBGSleepMode                     build/stm32l4xx_hal.o
HAL_DBGMCU_EnableDBGStandbyMode                   build/stm32l4xx_hal.o
HAL_DBGMCU_EnableDBGStopMode                      build/stm32l4xx_hal.o
HAL_DMA_Abort                                     build/stm32l4xx_hal_dma.o
                                                  build/stm32l4xx_hal_uart.o
                                                  build/stm32l4xx_hal_spi.o
HAL_DMA_Abort_IT                                  build/stm32l4xx_hal_dma.o
                                                  build/stm32l4xx_hal_uart.o
                                                  build/stm32l4xx_hal_spi.o
                                                  build/stm32l4xx_hal_i2c.o
HAL_DMA_DeInit                                    build/stm32l4xx_hal_dma.o
HAL_DMA_GetError                                  build/stm32l4xx_hal_dma.o
                                                  build/stm32l4xx_hal_uart.o
HAL_DMA_GetState                                  build/stm32l4xx_hal_dma.o
                                                  build/stm32l4xx_hal_i2c.o
HAL_DMA_IRQHandler                                build/stm32l4xx_hal_dma.o
HAL_DMA_Init                                      build/stm32l4xx_hal_dma.o
HAL_DMA_PollForTransfer                           build/stm32l4xx_hal_dma.o
HAL_DMA_RegisterCallback                          build/stm32l4xx_hal_dma.o
HAL_DMA_Start                                     build/stm32l4xx_hal_dma.o
HAL_DMA_Start_IT                                  build/stm32l4xx_hal_dma.o
                                                  build/stm32l4xx_hal_uart.o
                                                  build/stm32l4xx_hal_spi.o
                                                  build/stm32l4xx_hal_i2c.o
HAL_DMA_UnRegisterCallback                        build/stm32l4xx_hal_dma.o
HAL_DeInit                                        build/stm32l4xx_hal.o
HAL_Delay                                         build/stm32l4xx_hal.o
                                                  build/usbd_conf.o
                                                  build/stm32l4xx_hal_pcd_ex.o
                                                  build/SPI_FRAM.o
                                                  build/main.o
HAL_EXTI_ClearConfigLine                          build/stm32l4xx_hal_exti.o
HAL_EXTI_ClearPending                             build/stm32l4xx_hal_exti.o
HAL_EXTI_GenerateSWI                              build/stm32l4xx_hal_exti.o
HAL_EXTI_GetConfigLine                            build/stm32l4xx_hal_exti.o
HAL_EXTI_GetHandle                                build/stm32l4xx_hal_exti.o
HAL_EXTI_GetPending                               build/stm32l4xx_hal_exti.o
HAL_EXTI_IRQHandler                               build/stm32l4xx_hal_exti.o
HAL_EXTI_RegisterCallback                         build/stm32l4xx_hal_exti.o
HAL_EXTI_SetConfigLine                            build/stm32l4xx_hal_exti.o
HAL_FLASHEx_DisableRunPowerDown                   build/stm32l4xx_hal_flash_ramfunc.o
HAL_FLASHEx_EnableRunPowerDown                    build/stm32l4xx_hal_flash_ramfunc.o
HAL_FLASHEx_Erase                                 build/stm32l4xx_hal_flash_ex.o
HAL_FLASHEx_Erase_IT                              build/stm32l4xx_hal_flash_ex.o
HAL_FLASHEx_OBGetConfig                           build/stm32l4xx_hal_flash_ex.o
HAL_FLASHEx_OBProgram                             build/stm32l4xx_hal_flash_ex.o
HAL_FLASH_EndOfOperationCallback                  build/stm32l4xx_hal_flash.o
HAL_FLASH_GetError                                build/stm32l4xx_hal_flash.o
HAL_FLASH_IRQHandler                              build/stm32l4xx_hal_flash.o
HAL_FLASH_Lock                                    build/stm32l4xx_hal_flash.o
HAL_FLASH_OB_Launch                               build/stm32l4xx_hal_flash.o
HAL_FLASH_OB_Lock                                 build/stm32l4xx_hal_flash.o
HAL_FLASH_OB_Unlock                               build/stm32l4xx_hal_flash.o
HAL_FLASH_OperationErrorCallback                  build/stm32l4xx_hal_flash.o
HAL_FLASH_Program                                 build/stm32l4xx_hal_flash.o
HAL_FLASH_Program_IT                              build/stm32l4xx_hal_flash.o
HAL_FLASH_Unlock                                  build/stm32l4xx_hal_flash.o
HAL_GPIO_DeInit                                   build/stm32l4xx_hal_gpio.o
                                                  build/usbd_conf.o
                                                  build/stm32l4xx_hal_msp.o
                                                  build/main.o
HAL_GPIO_EXTI_Callback                            build/stm32l4xx_hal_gpio.o
HAL_GPIO_EXTI_IRQHandler                          build/stm32l4xx_hal_gpio.o
HAL_GPIO_Init                                     build/stm32l4xx_hal_gpio.o
                                                  build/usbd_conf.o
                                                  build/stm32l4xx_hal_rcc_ex.o
                                                  build/stm32l4xx_hal_rcc.o
                                                  build/stm32l4xx_hal_msp.o
                                                  build/main.o
HAL_GPIO_LockPin                                  build/stm32l4xx_hal_gpio.o
HAL_GPIO_ReadPin                                  build/stm32l4xx_hal_gpio.o
                                                  build/main.o
HAL_GPIO_TogglePin                                build/stm32l4xx_hal_gpio.o
HAL_GPIO_WritePin                                 build/stm32l4xx_hal_gpio.o
                                                  build/SPI_FRAM.o
                                                  build/user_diskio_spi.o
                                                  build/main.o
HAL_GetDEVID                                      build/stm32l4xx_hal.o
HAL_GetHalVersion                                 build/stm32l4xx_hal.o
HAL_GetREVID                                      build/stm32l4xx_hal.o
HAL_GetTick                                       build/stm32l4xx_hal.o
                                                  build/stm32l4xx_hal_pcd_ex.o
                                                  build/stm32l4xx_hal_uart_ex.o
                                                  build/stm32l4xx_hal_uart.o
                                                  build/stm32l4xx_hal_spi.o
                                                  build/stm32l4xx_hal_dma.o
                                                  build/stm32l4xx_hal_flash.o
                                                  build/stm32l4xx_hal_rcc_ex.o
                                                  build/stm32l4xx_hal_rcc.o
                                                  build/stm32l4xx_hal_i2c.o
                                                  build/user_diskio_spi.o
                                                  build/main.o
HAL_GetTickFreq                                   build/stm32l4xx_hal.o
HAL_GetTickPrio                                   build/stm32l4xx_hal.o
HAL_GetUIDw0                                      build/stm32l4xx_hal.o
HAL_GetUIDw1                                      build/stm32l4xx_hal.o
HAL_GetUIDw2                                      build/stm32l4xx_hal.o
HAL_HalfDuplex_EnableReceiver                     build/stm32l4xx_hal_uart.o
HAL_HalfDuplex_EnableTransmitter                  build/stm32l4xx_hal_uart.o
HAL_HalfDuplex_Init                               build/stm32l4xx_hal_uart.o
HAL_I2CEx_ConfigAnalogFilter                      build/stm32l4xx_hal_i2c_ex.o
HAL_I2CEx_ConfigDigitalFilter                     build/stm32l4xx_hal_i2c_ex.o
HAL_I2CEx_DisableFastModePlus                     build/stm32l4xx_hal_i2c_ex.o
HAL_I2CEx_DisableWakeUp                           build/stm32l4xx_hal_i2c_ex.o
HAL_I2CEx_EnableFastModePlus                      build/stm32l4xx_hal_i2c_ex.o
HAL_I2CEx_EnableWakeUp                            build/stm32l4xx_hal_i2c_ex.o
HAL_I2C_AbortCpltCallback                         build/stm32l4xx_hal_i2c.o
HAL_I2C_AddrCallback                              build/stm32l4xx_hal_i2c.o
HAL_I2C_DeInit                                    build/stm32l4xx_hal_i2c.o
HAL_I2C_DisableListen_IT                          build/stm32l4xx_hal_i2c.o
HAL_I2C_ER_IRQHandler                             build/stm32l4xx_hal_i2c.o
HAL_I2C_EV_IRQHandler                             build/stm32l4xx_hal_i2c.o
HAL_I2C_EnableListen_IT                           build/stm32l4xx_hal_i2c.o
HAL_I2C_ErrorCallback                             build/stm32l4xx_hal_i2c.o
HAL_I2C_GetError                                  build/stm32l4xx_hal_i2c.o
HAL_I2C_GetMode                                   build/stm32l4xx_hal_i2c.o
HAL_I2C_GetState                                  build/stm32l4xx_hal_i2c.o
HAL_I2C_Init                                      build/stm32l4xx_hal_i2c.o
HAL_I2C_IsDeviceReady                             build/stm32l4xx_hal_i2c.o
HAL_I2C_ListenCpltCallback                        build/stm32l4xx_hal_i2c.o
HAL_I2C_MasterRxCpltCallback                      build/stm32l4xx_hal_i2c.o
HAL_I2C_MasterTxCpltCallback                      build/stm32l4xx_hal_i2c.o
HAL_I2C_Master_Abort_IT                           build/stm32l4xx_hal_i2c.o
HAL_I2C_Master_Receive                            build/stm32l4xx_hal_i2c.o
HAL_I2C_Master_Receive_DMA                        build/stm32l4xx_hal_i2c.o
HAL_I2C_Master_Receive_IT                         build/stm32l4xx_hal_i2c.o
HAL_I2C_Master_Seq_Receive_DMA                    build/stm32l4xx_hal_i2c.o
HAL_I2C_Master_Seq_Receive_IT                     build/stm32l4xx_hal_i2c.o
HAL_I2C_Master_Seq_Transmit_DMA                   build/stm32l4xx_hal_i2c.o
HAL_I2C_Master_Seq_Transmit_IT                    build/stm32l4xx_hal_i2c.o
HAL_I2C_Master_Transmit                           build/stm32l4xx_hal_i2c.o
HAL_I2C_Master_Transmit_DMA                       build/stm32l4xx_hal_i2c.o
HAL_I2C_Master_Transmit_IT                        build/stm32l4xx_hal_i2c.o
HAL_I2C_MemRxCpltCallback                         build/stm32l4xx_hal_i2c.o
HAL_I2C_MemTxCpltCallback                         build/stm32l4xx_hal_i2c.o
HAL_I2C_Mem_Read                                  build/stm32l4xx_hal_i2c.o
HAL_I2C_Mem_Read_DMA                              build/stm32l4xx_hal_i2c.o
HAL_I2C_Mem_Read_IT                               build/stm32l4xx_hal_i2c.o
HAL_I2C_Mem_Write                                 build/stm32l4xx_hal_i2c.o
HAL_I2C_Mem_Write_DMA                             build/stm32l4xx_hal_i2c.o
HAL_I2C_Mem_Write_IT                              build/stm32l4xx_hal_i2c.o
HAL_I2C_MspDeInit                                 build/stm32l4xx_hal_i2c.o
HAL_I2C_MspInit                                   build/stm32l4xx_hal_i2c.o
HAL_I2C_SlaveRxCpltCallback                       build/stm32l4xx_hal_i2c.o
HAL_I2C_SlaveTxCpltCallback                       build/stm32l4xx_hal_i2c.o
HAL_I2C_Slave_Receive                             build/stm32l4xx_hal_i2c.o
HAL_I2C_Slave_Receive_DMA                         build/stm32l4xx_hal_i2c.o
HAL_I2C_Slave_Receive_IT                          build/stm32l4xx_hal_i2c.o
HAL_I2C_Slave_Seq_Receive_DMA                     build/stm32l4xx_hal_i2c.o
HAL_I2C_Slave_Seq_Receive_IT                      build/stm32l4xx_hal_i2c.o
HAL_I2C_Slave_Seq_Transmit_DMA                    build/stm32l4xx_hal_i2c.o
HAL_I2C_Slave_Seq_Transmit_IT                     build/stm32l4xx_hal_i2c.o
HAL_I2C_Slave_Transmit                            build/stm32l4xx_hal_i2c.o
HAL_I2C_Slave_Transmit_DMA                        build/stm32l4xx_hal_i2c.o
HAL_I2C_Slave_Transmit_IT                         build/stm32l4xx_hal_i2c.o
HAL_IncTick                                       build/stm32l4xx_hal.o
                                                  build/stm32l4xx_it.o
HAL_Init                                          build/stm32l4xx_hal.o
                                                  build/main.o
HAL_InitTick                                      build/stm32l4xx_hal.o
                                                  build/stm32l4xx_hal_rcc.o
HAL_LIN_Init                                      build/stm32l4xx_hal_uart.o
HAL_LIN_SendBreak                                 build/stm32l4xx_hal_uart.o
HAL_MPU_ConfigRegion                              build/stm32l4xx_hal_cortex.o
HAL_MPU_Disable                                   build/stm32l4xx_hal_cortex.o
HAL_MPU_Enable                                    build/stm32l4xx_hal_cortex.o
HAL_MspDeInit                                     build/stm32l4xx_hal.o
HAL_MspInit                                       build/stm32l4xx_hal_msp.o
HAL_MultiProcessorEx_AddressLength_Set            build/stm32l4xx_hal_uart_ex.o
HAL_MultiProcessor_DisableMuteMode                build/stm32l4xx_hal_uart.o
HAL_MultiProcessor_EnableMuteMode                 build/stm32l4xx_hal_uart.o
HAL_MultiProcessor_EnterMuteMode                  build/stm32l4xx_hal_uart.o
HAL_MultiProcessor_Init                           build/stm32l4xx_hal_uart.o
HAL_NVIC_ClearPendingIRQ                          build/stm32l4xx_hal_cortex.o
HAL_NVIC_DisableIRQ                               build/stm32l4xx_hal_cortex.o
                                                  build/usbd_conf.o
                                                  build/stm32l4xx_hal_msp.o
HAL_NVIC_EnableIRQ                                build/stm32l4xx_hal_cortex.o
                                                  build/usbd_conf.o
                                                  build/stm32l4xx_hal_msp.o
HAL_NVIC_GetActive                                build/stm32l4xx_hal_cortex.o
HAL_NVIC_GetPendingIRQ                            build/stm32l4xx_hal_cortex.o
HAL_NVIC_GetPriority                              build/stm32l4xx_hal_cortex.o
HAL_NVIC_GetPriorityGrouping                      build/stm32l4xx_hal_cortex.o
HAL_NVIC_SetPendingIRQ                            build/stm32l4xx_hal_cortex.o
HAL_NVIC_SetPriority                              build/stm32l4xx_hal_cortex.o
                                                  build/usbd_conf.o
                                                  build/stm32l4xx_hal.o
                                                  build/stm32l4xx_hal_msp.o
HAL_NVIC_SetPriorityGrouping                      build/stm32l4xx_hal_cortex.o
                                                  build/stm32l4xx_hal.o
HAL_NVIC_SystemReset                              build/stm32l4xx_hal_cortex.o
HAL_PCDEx_ActivateBCD                             build/stm32l4xx_hal_pcd_ex.o
HAL_PCDEx_ActivateLPM                             build/stm32l4xx_hal_pcd_ex.o
                                                  build/stm32l4xx_hal_pcd.o
HAL_PCDEx_BCD_Callback                            build/stm32l4xx_hal_pcd_ex.o
HAL_PCDEx_BCD_VBUSDetect                          build/stm32l4xx_hal_pcd_ex.o
HAL_PCDEx_DeActivateBCD                           build/stm32l4xx_hal_pcd_ex.o
HAL_PCDEx_DeActivateLPM                           build/stm32l4xx_hal_pcd_ex.o
HAL_PCDEx_LPM_Callback                            build/usbd_conf.o
                                                  build/stm32l4xx_hal_pcd_ex.o
                                                  build/stm32l4xx_hal_pcd.o
HAL_PCDEx_PMAConfig                               build/stm32l4xx_hal_pcd_ex.o
                                                  build/usbd_conf.o
HAL_PCD_ActivateRemoteWakeup                      build/stm32l4xx_hal_pcd.o
HAL_PCD_ConnectCallback                           build/usbd_conf.o
                                                  build/stm32l4xx_hal_pcd.o
HAL_PCD_DataInStageCallback                       build/usbd_conf.o
                                                  build/stm32l4xx_hal_pcd.o
HAL_PCD_DataOutStageCallback                      build/usbd_conf.o
                                                  build/stm32l4xx_hal_pcd.o
HAL_PCD_DeActivateRemoteWakeup                    build/stm32l4xx_hal_pcd.o
HAL_PCD_DeInit                                    build/stm32l4xx_hal_pcd.o
                                                  build/usbd_conf.o
HAL_PCD_DevConnect                                build/stm32l4xx_hal_pcd.o
HAL_PCD_DevDisconnect                             build/stm32l4xx_hal_pcd.o
HAL_PCD_DisconnectCallback                        build/usbd_conf.o
                                                  build/stm32l4xx_hal_pcd.o
HAL_PCD_EP_Abort                                  build/stm32l4xx_hal_pcd.o
HAL_PCD_EP_Close                                  build/stm32l4xx_hal_pcd.o
                                                  build/usbd_conf.o
HAL_PCD_EP_ClrStall                               build/stm32l4xx_hal_pcd.o
                                                  build/usbd_conf.o
HAL_PCD_EP_Flush                                  build/stm32l4xx_hal_pcd.o
                                                  build/usbd_conf.o
HAL_PCD_EP_GetRxCount                             build/stm32l4xx_hal_pcd.o
                                                  build/usbd_conf.o
HAL_PCD_EP_Open                                   build/stm32l4xx_hal_pcd.o
                                                  build/usbd_conf.o
HAL_PCD_EP_Receive                                build/stm32l4xx_hal_pcd.o
                                                  build/usbd_conf.o
HAL_PCD_EP_SetStall                               build/stm32l4xx_hal_pcd.o
                                                  build/usbd_conf.o
HAL_PCD_EP_Transmit                               build/stm32l4xx_hal_pcd.o
                                                  build/usbd_conf.o
HAL_PCD_GetState                                  build/stm32l4xx_hal_pcd.o
HAL_PCD_IRQHandler                                build/stm32l4xx_hal_pcd.o
                                                  build/stm32l4xx_it.o
HAL_PCD_ISOINIncompleteCallback                   build/usbd_conf.o
                                                  build/stm32l4xx_hal_pcd.o
HAL_PCD_ISOOUTIncompleteCallback                  build/usbd_conf.o
                                                  build/stm32l4xx_hal_pcd.o
HAL_PCD_Init                                      build/stm32l4xx_hal_pcd.o
                                                  build/usbd_conf.o
HAL_PCD_MspDeInit                                 build/usbd_conf.o
                                                  build/stm32l4xx_hal_pcd.o
HAL_PCD_MspInit                                   build/usbd_conf.o
                                                  build/stm32l4xx_hal_pcd.o
HAL_PCD_ResetCallback                             build/usbd_conf.o
                                                  build/stm32l4xx_hal_pcd.o
HAL_PCD_ResumeCallback                            build/usbd_conf.o
                                                  build/stm32l4xx_hal_pcd.o
HAL_PCD_SOFCallback                               build/usbd_conf.o
                                                  build/stm32l4xx_hal_pcd.o
HAL_PCD_SetAddress                                build/stm32l4xx_hal_pcd.o
                                                  build/usbd_conf.o
HAL_PCD_SetupStageCallback                        build/usbd_conf.o
                                                  build/stm32l4xx_hal_pcd.o
HAL_PCD_Start                                     build/stm32l4xx_hal_pcd.o
                                                  build/usbd_conf.o
HAL_PCD_Stop                                      build/stm32l4xx_hal_pcd.o
                                                  build/usbd_conf.o
HAL_PCD_SuspendCallback                           build/usbd_conf.o
                                                  build/stm32l4xx_hal_pcd.o
HAL_PWREx_ConfigPVM                               build/stm32l4xx_hal_pwr_ex.o
HAL_PWREx_ControlVoltageScaling                   build/stm32l4xx_hal_pwr_ex.o
                                                  build/main.o
HAL_PWREx_DisableBORPVD_ULP                       build/stm32l4xx_hal_pwr_ex.o
HAL_PWREx_DisableBatteryCharging                  build/stm32l4xx_hal_pwr_ex.o
HAL_PWREx_DisableExtSMPS_0V95                     build/stm32l4xx_hal_pwr_ex.o
HAL_PWREx_DisableGPIOPullDown                     build/stm32l4xx_hal_pwr_ex.o
HAL_PWREx_DisableGPIOPullUp                       build/stm32l4xx_hal_pwr_ex.o
HAL_PWREx_DisableInternalWakeUpLine               build/stm32l4xx_hal_pwr_ex.o
HAL_PWREx_DisableLowPowerRunMode                  build/stm32l4xx_hal_pwr_ex.o
                                                  build/stm32l4xx_hal_pwr.o
HAL_PWREx_DisablePVM1                             build/stm32l4xx_hal_pwr_ex.o
HAL_PWREx_DisablePVM3                             build/stm32l4xx_hal_pwr_ex.o
HAL_PWREx_DisablePVM4                             build/stm32l4xx_hal_pwr_ex.o
HAL_PWREx_DisablePullUpPullDownConfig             build/stm32l4xx_hal_pwr_ex.o
HAL_PWREx_DisableSRAM2ContentRetention            build/stm32l4xx_hal_pwr_ex.o
HAL_PWREx_DisableVddUSB                           build/stm32l4xx_hal_pwr_ex.o
HAL_PWREx_EnableBORPVD_ULP                        build/stm32l4xx_hal_pwr_ex.o
HAL_PWREx_EnableBatteryCharging                   build/stm32l4xx_hal_pwr_ex.o
HAL_PWREx_EnableExtSMPS_0V95                      build/stm32l4xx_hal_pwr_ex.o
HAL_PWREx_EnableGPIOPullDown                      build/stm32l4xx_hal_pwr_ex.o
HAL_PWREx_EnableGPIOPullUp                        build/stm32l4xx_hal_pwr_ex.o
HAL_PWREx_EnableInternalWakeUpLine                build/stm32l4xx_hal_pwr_ex.o
HAL_PWREx_EnableLowPowerRunMode                   build/stm32l4xx_hal_pwr_ex.o
                                                  build/stm32l4xx_hal_pwr.o
HAL_PWREx_EnablePVM1                              build/stm32l4xx_hal_pwr_ex.o
HAL_PWREx_EnablePVM3                              build/stm32l4xx_hal_pwr_ex.o
HAL_PWREx_EnablePVM4                              build/stm32l4xx_hal_pwr_ex.o
HAL_PWREx_EnablePullUpPullDownConfig              build/stm32l4xx_hal_pwr_ex.o
HAL_PWREx_EnableSRAM2ContentRetention             build/stm32l4xx_hal_pwr_ex.o
HAL_PWREx_EnableVddUSB                            build/stm32l4xx_hal_pwr_ex.o
                                                  build/usbd_conf.o
HAL_PWREx_EnterSHUTDOWNMode                       build/stm32l4xx_hal_pwr_ex.o
HAL_PWREx_EnterSTOP0Mode                          build/stm32l4xx_hal_pwr_ex.o
                                                  build/stm32l4xx_hal_pwr.o
HAL_PWREx_EnterSTOP1Mode                          build/stm32l4xx_hal_pwr_ex.o
                                                  build/stm32l4xx_hal_pwr.o
                                                  build/main.o
HAL_PWREx_EnterSTOP2Mode                          build/stm32l4xx_hal_pwr_ex.o
HAL_PWREx_GetVoltageRange                         build/stm32l4xx_hal_pwr_ex.o
                                                  build/stm32l4xx_hal_rcc.o
HAL_PWREx_PVD_PVM_IRQHandler                      build/stm32l4xx_hal_pwr_ex.o
HAL_PWREx_PVM1Callback                            build/stm32l4xx_hal_pwr_ex.o
HAL_PWREx_PVM3Callback                            build/stm32l4xx_hal_pwr_ex.o
HAL_PWREx_PVM4Callback                            build/stm32l4xx_hal_pwr_ex.o
HAL_PWREx_SetSRAM2ContentRetention                build/stm32l4xx_hal_pwr_ex.o
HAL_PWR_ConfigPVD                                 build/stm32l4xx_hal_pwr.o
HAL_PWR_DeInit                                    build/stm32l4xx_hal_pwr.o
HAL_PWR_DisableBkUpAccess                         build/stm32l4xx_hal_pwr.o
                                                  build/stm32l4xx_hal_rcc_ex.o
HAL_PWR_DisablePVD                                build/stm32l4xx_hal_pwr.o
HAL_PWR_DisableSEVOnPend                          build/stm32l4xx_hal_pwr.o
HAL_PWR_DisableSleepOnExit                        build/stm32l4xx_hal_pwr.o
HAL_PWR_DisableWakeUpPin                          build/stm32l4xx_hal_pwr.o
HAL_PWR_EnableBkUpAccess                          build/stm32l4xx_hal_pwr.o
                                                  build/stm32l4xx_hal_rcc_ex.o
HAL_PWR_EnablePVD                                 build/stm32l4xx_hal_pwr.o
HAL_PWR_EnableSEVOnPend                           build/stm32l4xx_hal_pwr.o
HAL_PWR_EnableSleepOnExit                         build/stm32l4xx_hal_pwr.o
HAL_PWR_EnableWakeUpPin                           build/stm32l4xx_hal_pwr.o
HAL_PWR_EnterSLEEPMode                            build/stm32l4xx_hal_pwr.o
HAL_PWR_EnterSTANDBYMode                          build/stm32l4xx_hal_pwr.o
HAL_PWR_EnterSTOPMode                             build/stm32l4xx_hal_pwr.o
HAL_PWR_PVDCallback                               build/stm32l4xx_hal_pwr.o
                                                  build/stm32l4xx_hal_pwr_ex.o
HAL_RCCEx_CRSConfig                               build/stm32l4xx_hal_rcc_ex.o
HAL_RCCEx_CRSGetSynchronizationInfo               build/stm32l4xx_hal_rcc_ex.o
HAL_RCCEx_CRSSoftwareSynchronizationGenerate      build/stm32l4xx_hal_rcc_ex.o
HAL_RCCEx_CRSWaitSynchronization                  build/stm32l4xx_hal_rcc_ex.o
HAL_RCCEx_CRS_ErrorCallback                       build/stm32l4xx_hal_rcc_ex.o
HAL_RCCEx_CRS_ExpectedSyncCallback                build/stm32l4xx_hal_rcc_ex.o
HAL_RCCEx_CRS_IRQHandler                          build/stm32l4xx_hal_rcc_ex.o
HAL_RCCEx_CRS_SyncOkCallback                      build/stm32l4xx_hal_rcc_ex.o
HAL_RCCEx_CRS_SyncWarnCallback                    build/stm32l4xx_hal_rcc_ex.o
HAL_RCCEx_DisableLSCO                             build/stm32l4xx_hal_rcc_ex.o
HAL_RCCEx_DisableLSECSS                           build/stm32l4xx_hal_rcc_ex.o
HAL_RCCEx_DisableMSIPLLMode                       build/stm32l4xx_hal_rcc_ex.o
HAL_RCCEx_EnableLSCO                              build/stm32l4xx_hal_rcc_ex.o
HAL_RCCEx_EnableLSECSS                            build/stm32l4xx_hal_rcc_ex.o
HAL_RCCEx_EnableLSECSS_IT                         build/stm32l4xx_hal_rcc_ex.o
HAL_RCCEx_EnableMSIPLLMode                        build/stm32l4xx_hal_rcc_ex.o
HAL_RCCEx_GetPeriphCLKConfig                      build/stm32l4xx_hal_rcc_ex.o
HAL_RCCEx_GetPeriphCLKFreq                        build/stm32l4xx_hal_rcc_ex.o
HAL_RCCEx_LSECSS_Callback                         build/stm32l4xx_hal_rcc_ex.o
HAL_RCCEx_LSECSS_IRQHandler                       build/stm32l4xx_hal_rcc_ex.o
HAL_RCCEx_PeriphCLKConfig                         build/stm32l4xx_hal_rcc_ex.o
                                                  build/usbd_conf.o
                                                  build/stm32l4xx_hal_msp.o
HAL_RCCEx_StandbyMSIRangeConfig                   build/stm32l4xx_hal_rcc_ex.o
HAL_RCCEx_WakeUpStopCLKConfig                     build/stm32l4xx_hal_rcc_ex.o
HAL_RCC_CSSCallback                               build/stm32l4xx_hal_rcc.o
HAL_RCC_ClockConfig                               build/stm32l4xx_hal_rcc.o
                                                  build/main.o
HAL_RCC_DeInit                                    build/stm32l4xx_hal_rcc.o
HAL_RCC_EnableCSS                                 build/stm32l4xx_hal_rcc.o
HAL_RCC_GetClockConfig                            build/stm32l4xx_hal_rcc.o
HAL_RCC_GetHCLKFreq                               build/stm32l4xx_hal_rcc.o
HAL_RCC_GetOscConfig                              build/stm32l4xx_hal_rcc.o
HAL_RCC_GetPCLK1Freq                              build/stm32l4xx_hal_rcc.o
                                                  build/stm32l4xx_hal_uart.o
                                                  build/stm32l4xx_hal_rcc_ex.o
HAL_RCC_GetPCLK2Freq                              build/stm32l4xx_hal_rcc.o
                                                  build/stm32l4xx_hal_uart.o
                                                  build/stm32l4xx_hal_rcc_ex.o
HAL_RCC_GetResetSource                            build/stm32l4xx_hal_rcc.o
HAL_RCC_GetSysClockFreq                           build/stm32l4xx_hal_rcc.o
                                                  build/stm32l4xx_hal_uart.o
                                                  build/stm32l4xx_hal_rcc_ex.o
HAL_RCC_MCOConfig                                 build/stm32l4xx_hal_rcc.o
HAL_RCC_NMI_IRQHandler                            build/stm32l4xx_hal_rcc.o
HAL_RCC_OscConfig                                 build/stm32l4xx_hal_rcc.o
                                                  build/main.o
HAL_RS485Ex_Init                                  build/stm32l4xx_hal_uart_ex.o
HAL_ResumeTick                                    build/stm32l4xx_hal.o
                                                  build/main.o
HAL_SPIEx_FlushRxFifo                             build/stm32l4xx_hal_spi_ex.o
HAL_SPI_Abort                                     build/stm32l4xx_hal_spi.o
HAL_SPI_AbortCpltCallback                         build/stm32l4xx_hal_spi.o
HAL_SPI_Abort_IT                                  build/stm32l4xx_hal_spi.o
HAL_SPI_DMAPause                                  build/stm32l4xx_hal_spi.o
HAL_SPI_DMAResume                                 build/stm32l4xx_hal_spi.o
HAL_SPI_DMAStop                                   build/stm32l4xx_hal_spi.o
HAL_SPI_DeInit                                    build/stm32l4xx_hal_spi.o
                                                  build/main.o
HAL_SPI_ErrorCallback                             build/stm32l4xx_hal_spi.o
HAL_SPI_GetError                                  build/stm32l4xx_hal_spi.o
HAL_SPI_GetState                                  build/stm32l4xx_hal_spi.o
HAL_SPI_IRQHandler                                build/stm32l4xx_hal_spi.o
HAL_SPI_Init                                      build/stm32l4xx_hal_spi.o
                                                  build/main.o
HAL_SPI_MspDeInit                                 build/stm32l4xx_hal_msp.o
HAL_SPI_MspInit                                   build/stm32l4xx_hal_msp.o
HAL_SPI_Receive                                   build/stm32l4xx_hal_spi.o
                                                  build/SPI_FRAM.o
HAL_SPI_Receive_DMA                               build/stm32l4xx_hal_spi.o
HAL_SPI_Receive_IT                                build/stm32l4xx_hal_spi.o
HAL_SPI_RxCpltCallback                            build/stm32l4xx_hal_spi.o
HAL_SPI_RxHalfCpltCallback                        build/stm32l4xx_hal_spi.o
HAL_SPI_Transmit                                  build/stm32l4xx_hal_spi.o
                                                  build/SPI_FRAM.o
HAL_SPI_TransmitReceive                           build/stm32l4xx_hal_spi.o
                                                  build/user_diskio_spi.o
HAL_SPI_TransmitReceive_DMA                       build/stm32l4xx_hal_spi.o
HAL_SPI_TransmitReceive_IT                        build/stm32l4xx_hal_spi.o
HAL_SPI_Transmit_DMA                              build/stm32l4xx_hal_spi.o
HAL_SPI_Transmit_IT                               build/stm32l4xx_hal_spi.o
HAL_SPI_TxCpltCallback                            build/stm32l4xx_hal_spi.o
HAL_SPI_TxHalfCpltCallback                        build/stm32l4xx_hal_spi.o
HAL_SPI_TxRxCpltCallback                          build/stm32l4xx_hal_spi.o
HAL_SPI_TxRxHalfCpltCallback                      build/stm32l4xx_hal_spi.o
HAL_SYSCFG_DisableIOAnalogSwitchBooster           build/stm32l4xx_hal.o
HAL_SYSCFG_DisableMemorySwappingBank              build/stm32l4xx_hal.o
HAL_SYSCFG_EnableIOAnalogSwitchBooster            build/stm32l4xx_hal.o
HAL_SYSCFG_EnableMemorySwappingBank               build/stm32l4xx_hal.o
HAL_SYSCFG_SRAM2Erase                             build/stm32l4xx_hal.o
HAL_SYSTICK_CLKSourceConfig                       build/stm32l4xx_hal_cortex.o
HAL_SYSTICK_Callback                              build/stm32l4xx_hal_cortex.o
HAL_SYSTICK_Config                                build/stm32l4xx_hal_cortex.o
                                                  build/stm32l4xx_hal.o
HAL_SYSTICK_IRQHandler                            build/stm32l4xx_hal_cortex.o
HAL_SetTickFreq                                   build/stm32l4xx_hal.o
HAL_SuspendTick                                   build/stm32l4xx_hal.o
                                                  build/main.o
HAL_UARTEx_DisableClockStopMode                   build/stm32l4xx_hal_uart_ex.o
HAL_UARTEx_DisableStopMode                        build/stm32l4xx_hal_uart_ex.o
                                                  build/main.o
HAL_UARTEx_EnableClockStopMode                    build/stm32l4xx_hal_uart_ex.o
HAL_UARTEx_EnableStopMode                         build/stm32l4xx_hal_uart_ex.o
                                                  build/main.o
HAL_UARTEx_ReceiveToIdle                          build/stm32l4xx_hal_uart_ex.o
HAL_UARTEx_ReceiveToIdle_DMA                      build/stm32l4xx_hal_uart_ex.o
HAL_UARTEx_ReceiveToIdle_IT                       build/stm32l4xx_hal_uart_ex.o
                                                  build/main.o
HAL_UARTEx_RxEventCallback                        build/main.o
HAL_UARTEx_StopModeWakeUpSourceConfig             build/stm32l4xx_hal_uart_ex.o
HAL_UARTEx_WakeupCallback                         build/stm32l4xx_hal_uart_ex.o
                                                  build/stm32l4xx_hal_uart.o
HAL_UART_Abort                                    build/stm32l4xx_hal_uart.o
HAL_UART_AbortCpltCallback                        build/stm32l4xx_hal_uart.o
HAL_UART_AbortReceive                             build/stm32l4xx_hal_uart.o
HAL_UART_AbortReceiveCpltCallback                 build/stm32l4xx_hal_uart.o
HAL_UART_AbortReceive_IT                          build/stm32l4xx_hal_uart.o
HAL_UART_AbortTransmit                            build/stm32l4xx_hal_uart.o
HAL_UART_AbortTransmitCpltCallback                build/stm32l4xx_hal_uart.o
HAL_UART_AbortTransmit_IT                         build/stm32l4xx_hal_uart.o
HAL_UART_Abort_IT                                 build/stm32l4xx_hal_uart.o
HAL_UART_DMAPause                                 build/stm32l4xx_hal_uart.o
HAL_UART_DMAResume                                build/stm32l4xx_hal_uart.o
HAL_UART_DMAStop                                  build/stm32l4xx_hal_uart.o
HAL_UART_DeInit                                   build/stm32l4xx_hal_uart.o
HAL_UART_DisableReceiverTimeout                   build/stm32l4xx_hal_uart.o
HAL_UART_EnableReceiverTimeout                    build/stm32l4xx_hal_uart.o
HAL_UART_ErrorCallback                            build/stm32l4xx_hal_uart.o
HAL_UART_GetError                                 build/stm32l4xx_hal_uart.o
HAL_UART_GetState                                 build/stm32l4xx_hal_uart.o
HAL_UART_IRQHandler                               build/stm32l4xx_hal_uart.o
                                                  build/stm32l4xx_it.o
HAL_UART_Init                                     build/stm32l4xx_hal_uart.o
                                                  build/main.o
HAL_UART_MspDeInit                                build/stm32l4xx_hal_msp.o
HAL_UART_MspInit                                  build/stm32l4xx_hal_msp.o
                                                  build/stm32l4xx_hal_uart_ex.o
HAL_UART_Receive                                  build/stm32l4xx_hal_uart.o
HAL_UART_Receive_DMA                              build/stm32l4xx_hal_uart.o
HAL_UART_Receive_IT                               build/stm32l4xx_hal_uart.o
HAL_UART_ReceiverTimeout_Config                   build/stm32l4xx_hal_uart.o
HAL_UART_RxCpltCallback                           build/stm32l4xx_hal_uart.o
HAL_UART_RxHalfCpltCallback                       build/stm32l4xx_hal_uart.o
HAL_UART_Transmit                                 build/stm32l4xx_hal_uart.o
                                                  build/main.o
HAL_UART_Transmit_DMA                             build/stm32l4xx_hal_uart.o
HAL_UART_Transmit_IT                              build/stm32l4xx_hal_uart.o
HAL_UART_TxCpltCallback                           build/stm32l4xx_hal_uart.o
HAL_UART_TxHalfCpltCallback                       build/stm32l4xx_hal_uart.o
HardFault_Handler                                 build/stm32l4xx_it.o
I2C1_ER_IRQHandler                                build/startup_stm32l412xx.o
I2C1_EV_IRQHandler                                build/startup_stm32l412xx.o
I2C2_ER_IRQHandler                                build/startup_stm32l412xx.o
I2C2_EV_IRQHandler                                build/startup_stm32l412xx.o
I2C3_ER_IRQHandler                                build/startup_stm32l412xx.o
I2C3_EV_IRQHandler                                build/startup_stm32l412xx.o
LOCATION_BUFFER_ITERATOR                          build/main.o
LPTIM1_IRQHandler                                 build/startup_stm32l412xx.o
LPTIM2_IRQHandler                                 build/startup_stm32l412xx.o
LPUART1_IRQHandler                                build/startup_stm32l412xx.o
MSC_BOT_CplClrFeature                             build/usbd_msc_bot.o
                                                  build/usbd_msc.o
MSC_BOT_DataIn                                    build/usbd_msc_bot.o
                                                  build/usbd_msc.o
MSC_BOT_DataOut                                   build/usbd_msc_bot.o
                                                  build/usbd_msc.o
MSC_BOT_DeInit                                    build/usbd_msc_bot.o
                                                  build/usbd_msc.o
MSC_BOT_Init                                      build/usbd_msc_bot.o
                                                  build/usbd_msc.o
MSC_BOT_Reset                                     build/usbd_msc_bot.o
                                                  build/usbd_msc.o
MSC_BOT_SendCSW                                   build/usbd_msc_bot.o
                                                  build/usbd_msc_scsi.o
MSC_Mode_Sense10_data                             build/usbd_msc_data.o
                                                  build/usbd_msc_scsi.o
MSC_Mode_Sense6_data                              build/usbd_msc_data.o
                                                  build/usbd_msc_scsi.o
MSC_Page00_Inquiry_Data                           build/usbd_msc_data.o
                                                  build/usbd_msc_scsi.o
MSC_Page80_Inquiry_Data                           build/usbd_msc_data.o
                                                  build/usbd_msc_scsi.o
MSIRangeTable                                     build/system_stm32l4xx.o
                                                  build/stm32l4xx_hal_rcc_ex.o
                                                  build/stm32l4xx_hal_rcc.o
MX_FATFS_Init                                     build/fatfs.o
                                                  build/main.o
MX_USB_DEVICE_Init                                build/usb_device.o
                                                  build/main.o
MemManage_Handler                                 build/stm32l4xx_it.o
NMI_Handler                                       build/stm32l4xx_it.o
PVD_PVM_IRQHandler                                build/startup_stm32l412xx.o
PendSV_Handler                                    build/stm32l4xx_it.o
QUADSPI_IRQHandler                                build/startup_stm32l412xx.o
RCC_IRQHandler                                    build/startup_stm32l412xx.o
RESET_FLAG                                        build/main.o
RNG_IRQHandler                                    build/startup_stm32l412xx.o
RTC_Alarm_IRQHandler                              build/startup_stm32l412xx.o
RTC_WKUP_IRQHandler                               build/startup_stm32l412xx.o
RX_BACKUP_Flag                                    build/main.o
RX_Flag                                           build/main.o
Reset_Handler                                     build/startup_stm32l412xx.o
Rx_back_up                                        build/main.o
Rx_data                                           build/main.o
SCSI_ProcessCmd                                   build/usbd_msc_scsi.o
                                                  build/usbd_msc_bot.o
SCSI_SenseCode                                    build/usbd_msc_scsi.o
                                                  build/usbd_msc_bot.o
SD_Flag                                           build/main.o
SD_MOUNT_FAIL                                     build/main.o
SD_error                                          build/main.o
SPI1_IRQHandler                                   build/startup_stm32l412xx.o
SPI2_IRQHandler                                   build/startup_stm32l412xx.o
SPI_Timer_On                                      build/user_diskio_spi.o
SPI_Timer_Status                                  build/user_diskio_spi.o
STORAGE_Inquirydata_FS                            build/usbd_storage_if.o
SVC_Handler                                       build/stm32l4xx_it.o
Stop_Mode_Entry                                   build/main.o
SysTick_Handler                                   build/stm32l4xx_it.o
SystemClock_Config                                build/main.o
                                                  build/usbd_conf.o
SystemCoreClock                                   build/system_stm32l4xx.o
                                                  build/stm32l4xx_hal_spi.o
                                                  build/stm32l4xx_hal_pwr_ex.o
                                                  build/stm32l4xx_hal_rcc.o
                                                  build/stm32l4xx_hal.o
SystemCoreClockUpdate                             build/system_stm32l4xx.o
SystemInit                                        build/system_stm32l4xx.o
                                                  build/startup_stm32l412xx.o
TAMP_STAMP_IRQHandler                             build/startup_stm32l412xx.o
TIM1_BRK_TIM15_IRQHandler                         build/startup_stm32l412xx.o
TIM1_CC_IRQHandler                                build/startup_stm32l412xx.o
TIM1_TRG_COM_IRQHandler                           build/startup_stm32l412xx.o
TIM1_UP_TIM16_IRQHandler                          build/startup_stm32l412xx.o
TIM2_IRQHandler                                   build/startup_stm32l412xx.o
TIM6_IRQHandler                                   build/startup_stm32l412xx.o
TSC_IRQHandler                                    build/startup_stm32l412xx.o
UART_AdvFeatureConfig                             build/stm32l4xx_hal_uart.o
                                                  build/stm32l4xx_hal_uart_ex.o
UART_CheckIdleState                               build/stm32l4xx_hal_uart.o
                                                  build/stm32l4xx_hal_uart_ex.o
UART_SetConfig                                    build/stm32l4xx_hal_uart.o
                                                  build/stm32l4xx_hal_uart_ex.o
UART_Start_Receive_DMA                            build/stm32l4xx_hal_uart.o
                                                  build/stm32l4xx_hal_uart_ex.o
UART_Start_Receive_IT                             build/stm32l4xx_hal_uart.o
                                                  build/stm32l4xx_hal_uart_ex.o
UART_WaitOnFlagUntilTimeout                       build/stm32l4xx_hal_uart.o
                                                  build/stm32l4xx_hal_uart_ex.o
USART1_IRQHandler                                 build/startup_stm32l412xx.o
USART2_IRQHandler                                 build/stm32l4xx_it.o
USART3_IRQHandler                                 build/startup_stm32l412xx.o
USBD_ClrClassConfig                               build/usbd_core.o
                                                  build/usbd_ctlreq.o
USBD_CtlContinueRx                                build/usbd_ioreq.o
                                                  build/usbd_core.o
USBD_CtlContinueSendData                          build/usbd_ioreq.o
                                                  build/usbd_core.o
USBD_CtlError                                     build/usbd_ctlreq.o
                                                  build/usbd_msc.o
USBD_CtlPrepareRx                                 build/usbd_ioreq.o
USBD_CtlReceiveStatus                             build/usbd_ioreq.o
                                                  build/usbd_core.o
USBD_CtlSendData                                  build/usbd_ioreq.o
                                                  build/usbd_msc.o
                                                  build/usbd_ctlreq.o
USBD_CtlSendStatus                                build/usbd_ioreq.o
                                                  build/usbd_ctlreq.o
                                                  build/usbd_core.o
USBD_DeInit                                       build/usbd_core.o
USBD_FS_BOSDesc                                   build/usbd_desc.o
USBD_FS_ConfigStrDescriptor                       build/usbd_desc.o
USBD_FS_DeviceDesc                                build/usbd_desc.o
USBD_FS_DeviceDescriptor                          build/usbd_desc.o
USBD_FS_InterfaceStrDescriptor                    build/usbd_desc.o
USBD_FS_LangIDStrDescriptor                       build/usbd_desc.o
USBD_FS_ManufacturerStrDescriptor                 build/usbd_desc.o
USBD_FS_ProductStrDescriptor                      build/usbd_desc.o
USBD_FS_SerialStrDescriptor                       build/usbd_desc.o
USBD_FS_USR_BOSDescriptor                         build/usbd_desc.o
USBD_GetRxCount                                   build/usbd_ioreq.o
USBD_GetString                                    build/usbd_ctlreq.o
                                                  build/usbd_desc.o
USBD_Init                                         build/usbd_core.o
                                                  build/usb_device.o
USBD_LL_ClearStallEP                              build/usbd_conf.o
                                                  build/usbd_msc_bot.o
                                                  build/usbd_ctlreq.o
USBD_LL_CloseEP                                   build/usbd_conf.o
                                                  build/usbd_msc.o
USBD_LL_DataInStage                               build/usbd_core.o
                                                  build/usbd_conf.o
USBD_LL_DataOutStage                              build/usbd_core.o
                                                  build/usbd_conf.o
USBD_LL_DeInit                                    build/usbd_conf.o
                                                  build/usbd_core.o
USBD_LL_Delay                                     build/usbd_conf.o
USBD_LL_DevConnected                              build/usbd_core.o
                                                  build/usbd_conf.o
USBD_LL_DevDisconnected                           build/usbd_core.o
                                                  build/usbd_conf.o
USBD_LL_FlushEP                                   build/usbd_conf.o
                                                  build/usbd_msc_bot.o
                                                  build/usbd_msc.o
USBD_LL_GetRxDataSize                             build/usbd_conf.o
                                                  build/usbd_msc_bot.o
                                                  build/usbd_ioreq.o
USBD_LL_Init                                      build/usbd_conf.o
                                                  build/usbd_core.o
USBD_LL_IsStallEP                                 build/usbd_conf.o
                                                  build/usbd_ctlreq.o
USBD_LL_IsoINIncomplete                           build/usbd_core.o
                                                  build/usbd_conf.o
USBD_LL_IsoOUTIncomplete                          build/usbd_core.o
                                                  build/usbd_conf.o
USBD_LL_OpenEP                                    build/usbd_conf.o
                                                  build/usbd_msc.o
                                                  build/usbd_core.o
USBD_LL_PrepareReceive                            build/usbd_conf.o
                                                  build/usbd_msc_scsi.o
                                                  build/usbd_msc_bot.o
                                                  build/usbd_ioreq.o
                                                  build/usbd_core.o
USBD_LL_Reset                                     build/usbd_core.o
                                                  build/usbd_conf.o
USBD_LL_Resume                                    build/usbd_core.o
                                                  build/usbd_conf.o
USBD_LL_SOF                                       build/usbd_core.o
                                                  build/usbd_conf.o
USBD_LL_SetSpeed                                  build/usbd_core.o
                                                  build/usbd_conf.o
USBD_LL_SetUSBAddress                             build/usbd_conf.o
                                                  build/usbd_ctlreq.o
USBD_LL_SetupStage                                build/usbd_core.o
                                                  build/usbd_conf.o
USBD_LL_StallEP                                   build/usbd_conf.o
                                                  build/usbd_msc_bot.o
                                                  build/usbd_ctlreq.o
                                                  build/usbd_core.o
USBD_LL_Start                                     build/usbd_conf.o
                                                  build/usbd_core.o
USBD_LL_Stop                                      build/usbd_conf.o
                                                  build/usbd_core.o
USBD_LL_Suspend                                   build/usbd_core.o
                                                  build/usbd_conf.o
USBD_LL_Transmit                                  build/usbd_conf.o
                                                  build/usbd_msc_scsi.o
                                                  build/usbd_msc_bot.o
                                                  build/usbd_ioreq.o
USBD_LangIDDesc                                   build/usbd_desc.o
USBD_MSC                                          build/usbd_msc.o
                                                  build/usb_device.o
USBD_MSC_DataIn                                   build/usbd_msc.o
USBD_MSC_DataOut                                  build/usbd_msc.o
USBD_MSC_DeInit                                   build/usbd_msc.o
USBD_MSC_GetDeviceQualifierDescriptor             build/usbd_msc.o
USBD_MSC_GetFSCfgDesc                             build/usbd_msc.o
USBD_MSC_GetHSCfgDesc                             build/usbd_msc.o
USBD_MSC_GetOtherSpeedCfgDesc                     build/usbd_msc.o
USBD_MSC_Init                                     build/usbd_msc.o
USBD_MSC_RegisterStorage                          build/usbd_msc.o
                                                  build/usb_device.o
USBD_MSC_Setup                                    build/usbd_msc.o
USBD_ParseSetupRequest                            build/usbd_ctlreq.o
                                                  build/usbd_core.o
USBD_RegisterClass                                build/usbd_core.o
                                                  build/usb_device.o
USBD_RunTestMode                                  build/usbd_core.o
USBD_SetClassConfig                               build/usbd_core.o
                                                  build/usbd_ctlreq.o
USBD_Start                                        build/usbd_core.o
                                                  build/usb_device.o
USBD_StdDevReq                                    build/usbd_ctlreq.o
                                                  build/usbd_core.o
USBD_StdEPReq                                     build/usbd_ctlreq.o
                                                  build/usbd_core.o
USBD_StdItfReq                                    build/usbd_ctlreq.o
                                                  build/usbd_core.o
USBD_Stop                                         build/usbd_core.o
USBD_Storage_Interface_fops_FS                    build/usbd_storage_if.o
                                                  build/usb_device.o
USBD_StrDesc                                      build/usbd_desc.o
USBD_StringSerial                                 build/usbd_desc.o
USBD_static_free                                  build/usbd_conf.o
                                                  build/usbd_msc.o
USBD_static_malloc                                build/usbd_conf.o
                                                  build/usbd_msc.o
USBFatFs                                          build/usbd_storage_if.o
USBFile                                           build/usbd_storage_if.o
USBPATH                                           build/usbd_storage_if.o
USB_ActivateEndpoint                              build/stm32l4xx_ll_usb.o
                                                  build/stm32l4xx_hal_pcd.o
USB_ActivateRemoteWakeup                          build/stm32l4xx_ll_usb.o
                                                  build/stm32l4xx_hal_pcd.o
USB_ClearInterrupts                               build/stm32l4xx_ll_usb.o
USB_CoreInit                                      build/stm32l4xx_ll_usb.o
                                                  build/stm32l4xx_hal_pcd.o
USB_DeActivateRemoteWakeup                        build/stm32l4xx_ll_usb.o
                                                  build/stm32l4xx_hal_pcd.o
USB_DeactivateEndpoint                            build/stm32l4xx_ll_usb.o
                                                  build/stm32l4xx_hal_pcd.o
USB_DevConnect                                    build/stm32l4xx_ll_usb.o
                                                  build/stm32l4xx_hal_pcd.o
USB_DevDisconnect                                 build/stm32l4xx_ll_usb.o
                                                  build/stm32l4xx_hal_pcd.o
USB_DevInit                                       build/stm32l4xx_ll_usb.o
                                                  build/stm32l4xx_hal_pcd.o
USB_DisableGlobalInt                              build/stm32l4xx_ll_usb.o
                                                  build/stm32l4xx_hal_pcd.o
USB_EP0_OutStart                                  build/stm32l4xx_ll_usb.o
                                                  build/stm32l4xx_hal_pcd.o
USB_EPClearStall                                  build/stm32l4xx_ll_usb.o
                                                  build/stm32l4xx_hal_pcd.o
USB_EPSetStall                                    build/stm32l4xx_ll_usb.o
                                                  build/stm32l4xx_hal_pcd.o
USB_EPStartXfer                                   build/stm32l4xx_ll_usb.o
                                                  build/stm32l4xx_hal_pcd.o
USB_EPStopXfer                                    build/stm32l4xx_ll_usb.o
                                                  build/stm32l4xx_hal_pcd.o
USB_EnableGlobalInt                               build/stm32l4xx_ll_usb.o
                                                  build/stm32l4xx_hal_pcd.o
USB_Flag                                          build/main.o
USB_FlushRxFifo                                   build/stm32l4xx_ll_usb.o
                                                  build/stm32l4xx_hal_pcd.o
USB_FlushTxFifo                                   build/stm32l4xx_ll_usb.o
                                                  build/stm32l4xx_hal_pcd.o
USB_IRQHandler                                    build/stm32l4xx_it.o
USB_ReadDevAllInEpInterrupt                       build/stm32l4xx_ll_usb.o
USB_ReadDevAllOutEpInterrupt                      build/stm32l4xx_ll_usb.o
USB_ReadDevInEPInterrupt                          build/stm32l4xx_ll_usb.o
USB_ReadDevOutEPInterrupt                         build/stm32l4xx_ll_usb.o
USB_ReadInterrupts                                build/stm32l4xx_ll_usb.o
                                                  build/stm32l4xx_hal_pcd.o
USB_ReadPMA                                       build/stm32l4xx_ll_usb.o
                                                  build/stm32l4xx_hal_pcd.o
USB_SetCurrentMode                                build/stm32l4xx_ll_usb.o
                                                  build/stm32l4xx_hal_pcd.o
USB_SetDevAddress                                 build/stm32l4xx_ll_usb.o
                                                  build/stm32l4xx_hal_pcd.o
USB_StopDevice                                    build/stm32l4xx_ll_usb.o
                                                  build/stm32l4xx_hal_pcd.o
USB_WritePMA                                      build/stm32l4xx_ll_usb.o
                                                  build/stm32l4xx_hal_pcd.o
USB_init                                          build/main.o
USERFatFS                                         build/fatfs.o
USERFile                                          build/fatfs.o
USERPath                                          build/fatfs.o
                                                  build/main.o
USER_Driver                                       build/user_diskio.o
                                                  build/fatfs.o
USER_SPI_initialize                               build/user_diskio_spi.o
                                                  build/usbd_storage_if.o
                                                  build/user_diskio.o
USER_SPI_ioctl                                    build/user_diskio_spi.o
                                                  build/user_diskio.o
USER_SPI_read                                     build/user_diskio_spi.o
                                                  build/usbd_storage_if.o
                                                  build/user_diskio.o
USER_SPI_status                                   build/user_diskio_spi.o
                                                  build/usbd_storage_if.o
                                                  build/user_diskio.o
USER_SPI_write                                    build/user_diskio_spi.o
                                                  build/usbd_storage_if.o
                                                  build/user_diskio.o
USER_initialize                                   build/user_diskio.o
USER_ioctl                                        build/user_diskio.o
USER_read                                         build/user_diskio.o
USER_status                                       build/user_diskio.o
USER_write                                        build/user_diskio.o
UsageFault_Handler                                build/stm32l4xx_it.o
WWDG_IRQHandler                                   build/startup_stm32l412xx.o
__aeabi_idiv0                                     c:/ncs/v1.7.1/toolchain/opt/bin/../lib/gcc/arm-none-eabi/9.2.1/thumb/v7e-m+fp/hard\libgcc.a(_dvmd_tls.o)
__aeabi_ldiv0                                     c:/ncs/v1.7.1/toolchain/opt/bin/../lib/gcc/arm-none-eabi/9.2.1/thumb/v7e-m+fp/hard\libgcc.a(_dvmd_tls.o)
                                                  c:/ncs/v1.7.1/toolchain/opt/bin/../lib/gcc/arm-none-eabi/9.2.1/thumb/v7e-m+fp/hard\libgcc.a(_aeabi_uldivmod.o)
__aeabi_uldivmod                                  c:/ncs/v1.7.1/toolchain/opt/bin/../lib/gcc/arm-none-eabi/9.2.1/thumb/v7e-m+fp/hard\libgcc.a(_aeabi_uldivmod.o)
                                                  build/stm32l4xx_hal_uart.o
__bss_end__                                       c:/ncs/v1.7.1/toolchain/opt/bin/../lib/gcc/arm-none-eabi/9.2.1/../../../../arm-none-eabi/lib/thumb/v7e-m+fp/hard/crt0.o
__bss_start__                                     c:/ncs/v1.7.1/toolchain/opt/bin/../lib/gcc/arm-none-eabi/9.2.1/../../../../arm-none-eabi/lib/thumb/v7e-m+fp/hard/crt0.o
__call_exitprocs                                  c:/ncs/v1.7.1/toolchain/opt/bin/../lib/gcc/arm-none-eabi/9.2.1/../../../../arm-none-eabi/lib/thumb/v7e-m+fp/hard\libc_nano.a(lib_a-exit.o)
__deregister_frame_info                           c:/ncs/v1.7.1/toolchain/opt/bin/../lib/gcc/arm-none-eabi/9.2.1/thumb/v7e-m+fp/hard/crtbegin.o
__dso_handle                                      c:/ncs/v1.7.1/toolchain/opt/bin/../lib/gcc/arm-none-eabi/9.2.1/thumb/v7e-m+fp/hard/crtbegin.o
__init_array_end                                  c:/ncs/v1.7.1/toolchain/opt/bin/../lib/gcc/arm-none-eabi/9.2.1/../../../../arm-none-eabi/lib/thumb/v7e-m+fp/hard\libc_nano.a(lib_a-init.o)
__init_array_start                                c:/ncs/v1.7.1/toolchain/opt/bin/../lib/gcc/arm-none-eabi/9.2.1/../../../../arm-none-eabi/lib/thumb/v7e-m+fp/hard\libc_nano.a(lib_a-init.o)
__libc_fini_array                                 c:/ncs/v1.7.1/toolchain/opt/bin/../lib/gcc/arm-none-eabi/9.2.1/../../../../arm-none-eabi/lib/thumb/v7e-m+fp/hard/crt0.o
__libc_init_array                                 c:/ncs/v1.7.1/toolchain/opt/bin/../lib/gcc/arm-none-eabi/9.2.1/../../../../arm-none-eabi/lib/thumb/v7e-m+fp/hard\libc_nano.a(lib_a-init.o)
                                                  build/startup_stm32l412xx.o
                                                  c:/ncs/v1.7.1/toolchain/opt/bin/../lib/gcc/arm-none-eabi/9.2.1/../../../../arm-none-eabi/lib/thumb/v7e-m+fp/hard/crt0.o
__lock___arc4random_mutex                         c:/ncs/v1.7.1/toolchain/opt/bin/../lib/gcc/arm-none-eabi/9.2.1/../../../../arm-none-eabi/lib/thumb/v7e-m+fp/hard\libc_nano.a(lib_a-lock.o)
__lock___at_quick_exit_mutex                      c:/ncs/v1.7.1/toolchain/opt/bin/../lib/gcc/arm-none-eabi/9.2.1/../../../../arm-none-eabi/lib/thumb/v7e-m+fp/hard\libc_nano.a(lib_a-lock.o)
__lock___atexit_recursive_mutex                   c:/ncs/v1.7.1/toolchain/opt/bin/../lib/gcc/arm-none-eabi/9.2.1/../../../../arm-none-eabi/lib/thumb/v7e-m+fp/hard\libc_nano.a(lib_a-lock.o)
__lock___dd_hash_mutex                            c:/ncs/v1.7.1/toolchain/opt/bin/../lib/gcc/arm-none-eabi/9.2.1/../../../../arm-none-eabi/lib/thumb/v7e-m+fp/hard\libc_nano.a(lib_a-lock.o)
__lock___env_recursive_mutex                      c:/ncs/v1.7.1/toolchain/opt/bin/../lib/gcc/arm-none-eabi/9.2.1/../../../../arm-none-eabi/lib/thumb/v7e-m+fp/hard\libc_nano.a(lib_a-lock.o)
__lock___malloc_recursive_mutex                   c:/ncs/v1.7.1/toolchain/opt/bin/../lib/gcc/arm-none-eabi/9.2.1/../../../../arm-none-eabi/lib/thumb/v7e-m+fp/hard\libc_nano.a(lib_a-lock.o)
                                                  c:/ncs/v1.7.1/toolchain/opt/bin/../lib/gcc/arm-none-eabi/9.2.1/../../../../arm-none-eabi/lib/thumb/v7e-m+fp/hard\libc_nano.a(lib_a-mlock.o)
__lock___sfp_recursive_mutex                      c:/ncs/v1.7.1/toolchain/opt/bin/../lib/gcc/arm-none-eabi/9.2.1/../../../../arm-none-eabi/lib/thumb/v7e-m+fp/hard\libc_nano.a(lib_a-lock.o)
__lock___sinit_recursive_mutex                    c:/ncs/v1.7.1/toolchain/opt/bin/../lib/gcc/arm-none-eabi/9.2.1/../../../../arm-none-eabi/lib/thumb/v7e-m+fp/hard\libc_nano.a(lib_a-lock.o)
__lock___tz_mutex                                 c:/ncs/v1.7.1/toolchain/opt/bin/../lib/gcc/arm-none-eabi/9.2.1/../../../../arm-none-eabi/lib/thumb/v7e-m+fp/hard\libc_nano.a(lib_a-lock.o)
__malloc_free_list                                c:/ncs/v1.7.1/toolchain/opt/bin/../lib/gcc/arm-none-eabi/9.2.1/../../../../arm-none-eabi/lib/thumb/v7e-m+fp/hard\libc_nano.a(lib_a-nano-mallocr.o)
                                                  c:/ncs/v1.7.1/toolchain/opt/bin/../lib/gcc/arm-none-eabi/9.2.1/../../../../arm-none-eabi/lib/thumb/v7e-m+fp/hard\libc_nano.a(lib_a-nano-freer.o)
__malloc_lock                                     c:/ncs/v1.7.1/toolchain/opt/bin/../lib/gcc/arm-none-eabi/9.2.1/../../../../arm-none-eabi/lib/thumb/v7e-m+fp/hard\libc_nano.a(lib_a-mlock.o)
                                                  c:/ncs/v1.7.1/toolchain/opt/bin/../lib/gcc/arm-none-eabi/9.2.1/../../../../arm-none-eabi/lib/thumb/v7e-m+fp/hard\libc_nano.a(lib_a-nano-mallocr.o)
                                                  c:/ncs/v1.7.1/toolchain/opt/bin/../lib/gcc/arm-none-eabi/9.2.1/../../../../arm-none-eabi/lib/thumb/v7e-m+fp/hard\libc_nano.a(lib_a-nano-freer.o)
__malloc_sbrk_start                               c:/ncs/v1.7.1/toolchain/opt/bin/../lib/gcc/arm-none-eabi/9.2.1/../../../../arm-none-eabi/lib/thumb/v7e-m+fp/hard\libc_nano.a(lib_a-nano-mallocr.o)
__malloc_unlock                                   c:/ncs/v1.7.1/toolchain/opt/bin/../lib/gcc/arm-none-eabi/9.2.1/../../../../arm-none-eabi/lib/thumb/v7e-m+fp/hard\libc_nano.a(lib_a-mlock.o)
                                                  c:/ncs/v1.7.1/toolchain/opt/bin/../lib/gcc/arm-none-eabi/9.2.1/../../../../arm-none-eabi/lib/thumb/v7e-m+fp/hard\libc_nano.a(lib_a-nano-mallocr.o)
                                                  c:/ncs/v1.7.1/toolchain/opt/bin/../lib/gcc/arm-none-eabi/9.2.1/../../../../arm-none-eabi/lib/thumb/v7e-m+fp/hard\libc_nano.a(lib_a-nano-freer.o)
__preinit_array_end                               c:/ncs/v1.7.1/toolchain/opt/bin/../lib/gcc/arm-none-eabi/9.2.1/../../../../arm-none-eabi/lib/thumb/v7e-m+fp/hard\libc_nano.a(lib_a-init.o)
__preinit_array_start                             c:/ncs/v1.7.1/toolchain/opt/bin/../lib/gcc/arm-none-eabi/9.2.1/../../../../arm-none-eabi/lib/thumb/v7e-m+fp/hard\libc_nano.a(lib_a-init.o)
__register_frame_info                             c:/ncs/v1.7.1/toolchain/opt/bin/../lib/gcc/arm-none-eabi/9.2.1/thumb/v7e-m+fp/hard/crtbegin.o
__retarget_lock_acquire                           c:/ncs/v1.7.1/toolchain/opt/bin/../lib/gcc/arm-none-eabi/9.2.1/../../../../arm-none-eabi/lib/thumb/v7e-m+fp/hard\libc_nano.a(lib_a-lock.o)
__retarget_lock_acquire_recursive                 c:/ncs/v1.7.1/toolchain/opt/bin/../lib/gcc/arm-none-eabi/9.2.1/../../../../arm-none-eabi/lib/thumb/v7e-m+fp/hard\libc_nano.a(lib_a-lock.o)
                                                  c:/ncs/v1.7.1/toolchain/opt/bin/../lib/gcc/arm-none-eabi/9.2.1/../../../../arm-none-eabi/lib/thumb/v7e-m+fp/hard\libc_nano.a(lib_a-mlock.o)
__retarget_lock_close                             c:/ncs/v1.7.1/toolchain/opt/bin/../lib/gcc/arm-none-eabi/9.2.1/../../../../arm-none-eabi/lib/thumb/v7e-m+fp/hard\libc_nano.a(lib_a-lock.o)
__retarget_lock_close_recursive                   c:/ncs/v1.7.1/toolchain/opt/bin/../lib/gcc/arm-none-eabi/9.2.1/../../../../arm-none-eabi/lib/thumb/v7e-m+fp/hard\libc_nano.a(lib_a-lock.o)
__retarget_lock_init                              c:/ncs/v1.7.1/toolchain/opt/bin/../lib/gcc/arm-none-eabi/9.2.1/../../../../arm-none-eabi/lib/thumb/v7e-m+fp/hard\libc_nano.a(lib_a-lock.o)
__retarget_lock_init_recursive                    c:/ncs/v1.7.1/toolchain/opt/bin/../lib/gcc/arm-none-eabi/9.2.1/../../../../arm-none-eabi/lib/thumb/v7e-m+fp/hard\libc_nano.a(lib_a-lock.o)
__retarget_lock_release                           c:/ncs/v1.7.1/toolchain/opt/bin/../lib/gcc/arm-none-eabi/9.2.1/../../../../arm-none-eabi/lib/thumb/v7e-m+fp/hard\libc_nano.a(lib_a-lock.o)
__retarget_lock_release_recursive                 c:/ncs/v1.7.1/toolchain/opt/bin/../lib/gcc/arm-none-eabi/9.2.1/../../../../arm-none-eabi/lib/thumb/v7e-m+fp/hard\libc_nano.a(lib_a-lock.o)
                                                  c:/ncs/v1.7.1/toolchain/opt/bin/../lib/gcc/arm-none-eabi/9.2.1/../../../../arm-none-eabi/lib/thumb/v7e-m+fp/hard\libc_nano.a(lib_a-mlock.o)
__retarget_lock_try_acquire                       c:/ncs/v1.7.1/toolchain/opt/bin/../lib/gcc/arm-none-eabi/9.2.1/../../../../arm-none-eabi/lib/thumb/v7e-m+fp/hard\libc_nano.a(lib_a-lock.o)
__retarget_lock_try_acquire_recursive             c:/ncs/v1.7.1/toolchain/opt/bin/../lib/gcc/arm-none-eabi/9.2.1/../../../../arm-none-eabi/lib/thumb/v7e-m+fp/hard\libc_nano.a(lib_a-lock.o)
__sf_fake_stderr                                  c:/ncs/v1.7.1/toolchain/opt/bin/../lib/gcc/arm-none-eabi/9.2.1/../../../../arm-none-eabi/lib/thumb/v7e-m+fp/hard\libc_nano.a(lib_a-impure.o)
__sf_fake_stdin                                   c:/ncs/v1.7.1/toolchain/opt/bin/../lib/gcc/arm-none-eabi/9.2.1/../../../../arm-none-eabi/lib/thumb/v7e-m+fp/hard\libc_nano.a(lib_a-impure.o)
__sf_fake_stdout                                  c:/ncs/v1.7.1/toolchain/opt/bin/../lib/gcc/arm-none-eabi/9.2.1/../../../../arm-none-eabi/lib/thumb/v7e-m+fp/hard\libc_nano.a(lib_a-impure.o)
__ssprint_r                                       c:/ncs/v1.7.1/toolchain/opt/bin/../lib/gcc/arm-none-eabi/9.2.1/../../../../arm-none-eabi/lib/thumb/v7e-m+fp/hard\libc_nano.a(lib_a-nano-svfprintf.o)
__ssputs_r                                        c:/ncs/v1.7.1/toolchain/opt/bin/../lib/gcc/arm-none-eabi/9.2.1/../../../../arm-none-eabi/lib/thumb/v7e-m+fp/hard\libc_nano.a(lib_a-nano-svfprintf.o)
__stack                                           c:/ncs/v1.7.1/toolchain/opt/bin/../lib/gcc/arm-none-eabi/9.2.1/../../../../arm-none-eabi/lib/thumb/v7e-m+fp/hard/crt0.o
__udivmoddi4                                      c:/ncs/v1.7.1/toolchain/opt/bin/../lib/gcc/arm-none-eabi/9.2.1/thumb/v7e-m+fp/hard\libgcc.a(_udivmoddi4.o)
                                                  c:/ncs/v1.7.1/toolchain/opt/bin/../lib/gcc/arm-none-eabi/9.2.1/thumb/v7e-m+fp/hard\libgcc.a(_aeabi_uldivmod.o)
_ebss                                             build/startup_stm32l412xx.o
_edata                                            build/startup_stm32l412xx.o
_estack                                           build/startup_stm32l412xx.o
_exit                                             c:/ncs/v1.7.1/toolchain/opt/bin/../lib/gcc/arm-none-eabi/9.2.1/../../../../arm-none-eabi/lib/thumb/v7e-m+fp/hard\libnosys.a(_exit.o)
                                                  c:/ncs/v1.7.1/toolchain/opt/bin/../lib/gcc/arm-none-eabi/9.2.1/../../../../arm-none-eabi/lib/thumb/v7e-m+fp/hard\libc_nano.a(lib_a-exit.o)
_fini                                             c:/ncs/v1.7.1/toolchain/opt/bin/../lib/gcc/arm-none-eabi/9.2.1/thumb/v7e-m+fp/hard/crti.o
_free_r                                           c:/ncs/v1.7.1/toolchain/opt/bin/../lib/gcc/arm-none-eabi/9.2.1/../../../../arm-none-eabi/lib/thumb/v7e-m+fp/hard\libc_nano.a(lib_a-nano-freer.o)
                                                  c:/ncs/v1.7.1/toolchain/opt/bin/../lib/gcc/arm-none-eabi/9.2.1/../../../../arm-none-eabi/lib/thumb/v7e-m+fp/hard\libc_nano.a(lib_a-reent.o)
                                                  c:/ncs/v1.7.1/toolchain/opt/bin/../lib/gcc/arm-none-eabi/9.2.1/../../../../arm-none-eabi/lib/thumb/v7e-m+fp/hard\libc_nano.a(lib_a-nano-reallocr.o)
                                                  c:/ncs/v1.7.1/toolchain/opt/bin/../lib/gcc/arm-none-eabi/9.2.1/../../../../arm-none-eabi/lib/thumb/v7e-m+fp/hard\libc_nano.a(lib_a-nano-svfprintf.o)
_global_impure_ptr                                c:/ncs/v1.7.1/toolchain/opt/bin/../lib/gcc/arm-none-eabi/9.2.1/../../../../arm-none-eabi/lib/thumb/v7e-m+fp/hard\libc_nano.a(lib_a-impure.o)
                                                  c:/ncs/v1.7.1/toolchain/opt/bin/../lib/gcc/arm-none-eabi/9.2.1/../../../../arm-none-eabi/lib/thumb/v7e-m+fp/hard\libc_nano.a(lib_a-exit.o)
_impure_ptr                                       c:/ncs/v1.7.1/toolchain/opt/bin/../lib/gcc/arm-none-eabi/9.2.1/../../../../arm-none-eabi/lib/thumb/v7e-m+fp/hard\libc_nano.a(lib_a-impure.o)
                                                  c:/ncs/v1.7.1/toolchain/opt/bin/../lib/gcc/arm-none-eabi/9.2.1/../../../../arm-none-eabi/lib/thumb/v7e-m+fp/hard\libc_nano.a(lib_a-reent.o)
                                                  c:/ncs/v1.7.1/toolchain/opt/bin/../lib/gcc/arm-none-eabi/9.2.1/../../../../arm-none-eabi/lib/thumb/v7e-m+fp/hard\libc_nano.a(lib_a-vsnprintf.o)
                                                  c:/ncs/v1.7.1/toolchain/opt/bin/../lib/gcc/arm-none-eabi/9.2.1/../../../../arm-none-eabi/lib/thumb/v7e-m+fp/hard\libc_nano.a(lib_a-sprintf.o)
_init                                             c:/ncs/v1.7.1/toolchain/opt/bin/../lib/gcc/arm-none-eabi/9.2.1/thumb/v7e-m+fp/hard/crti.o
                                                  c:/ncs/v1.7.1/toolchain/opt/bin/../lib/gcc/arm-none-eabi/9.2.1/../../../../arm-none-eabi/lib/thumb/v7e-m+fp/hard\libc_nano.a(lib_a-init.o)
_mainCRTStartup                                   c:/ncs/v1.7.1/toolchain/opt/bin/../lib/gcc/arm-none-eabi/9.2.1/../../../../arm-none-eabi/lib/thumb/v7e-m+fp/hard/crt0.o
_malloc_r                                         c:/ncs/v1.7.1/toolchain/opt/bin/../lib/gcc/arm-none-eabi/9.2.1/../../../../arm-none-eabi/lib/thumb/v7e-m+fp/hard\libc_nano.a(lib_a-nano-mallocr.o)
                                                  c:/ncs/v1.7.1/toolchain/opt/bin/../lib/gcc/arm-none-eabi/9.2.1/../../../../arm-none-eabi/lib/thumb/v7e-m+fp/hard\libc_nano.a(lib_a-nano-reallocr.o)
                                                  c:/ncs/v1.7.1/toolchain/opt/bin/../lib/gcc/arm-none-eabi/9.2.1/../../../../arm-none-eabi/lib/thumb/v7e-m+fp/hard\libc_nano.a(lib_a-nano-svfprintf.o)
_malloc_usable_size_r                             c:/ncs/v1.7.1/toolchain/opt/bin/../lib/gcc/arm-none-eabi/9.2.1/../../../../arm-none-eabi/lib/thumb/v7e-m+fp/hard\libc_nano.a(lib_a-nano-msizer.o)
                                                  c:/ncs/v1.7.1/toolchain/opt/bin/../lib/gcc/arm-none-eabi/9.2.1/../../../../arm-none-eabi/lib/thumb/v7e-m+fp/hard\libc_nano.a(lib_a-nano-reallocr.o)
_printf_common                                    c:/ncs/v1.7.1/toolchain/opt/bin/../lib/gcc/arm-none-eabi/9.2.1/../../../../arm-none-eabi/lib/thumb/v7e-m+fp/hard\libc_nano.a(lib_a-nano-vfprintf_i.o)
_printf_float                                     c:/ncs/v1.7.1/toolchain/opt/bin/../lib/gcc/arm-none-eabi/9.2.1/../../../../arm-none-eabi/lib/thumb/v7e-m+fp/hard\libc_nano.a(lib_a-nano-svfprintf.o)
_printf_i                                         c:/ncs/v1.7.1/toolchain/opt/bin/../lib/gcc/arm-none-eabi/9.2.1/../../../../arm-none-eabi/lib/thumb/v7e-m+fp/hard\libc_nano.a(lib_a-nano-vfprintf_i.o)
                                                  c:/ncs/v1.7.1/toolchain/opt/bin/../lib/gcc/arm-none-eabi/9.2.1/../../../../arm-none-eabi/lib/thumb/v7e-m+fp/hard\libc_nano.a(lib_a-nano-svfprintf.o)
_realloc_r                                        c:/ncs/v1.7.1/toolchain/opt/bin/../lib/gcc/arm-none-eabi/9.2.1/../../../../arm-none-eabi/lib/thumb/v7e-m+fp/hard\libc_nano.a(lib_a-nano-reallocr.o)
                                                  c:/ncs/v1.7.1/toolchain/opt/bin/../lib/gcc/arm-none-eabi/9.2.1/../../../../arm-none-eabi/lib/thumb/v7e-m+fp/hard\libc_nano.a(lib_a-nano-svfprintf.o)
_reclaim_reent                                    c:/ncs/v1.7.1/toolchain/opt/bin/../lib/gcc/arm-none-eabi/9.2.1/../../../../arm-none-eabi/lib/thumb/v7e-m+fp/hard\libc_nano.a(lib_a-reent.o)
_sbrk                                             c:/ncs/v1.7.1/toolchain/opt/bin/../lib/gcc/arm-none-eabi/9.2.1/../../../../arm-none-eabi/lib/thumb/v7e-m+fp/hard\libnosys.a(sbrk.o)
                                                  c:/ncs/v1.7.1/toolchain/opt/bin/../lib/gcc/arm-none-eabi/9.2.1/../../../../arm-none-eabi/lib/thumb/v7e-m+fp/hard\libc_nano.a(lib_a-sbrkr.o)
_sbrk_r                                           c:/ncs/v1.7.1/toolchain/opt/bin/../lib/gcc/arm-none-eabi/9.2.1/../../../../arm-none-eabi/lib/thumb/v7e-m+fp/hard\libc_nano.a(lib_a-sbrkr.o)
                                                  c:/ncs/v1.7.1/toolchain/opt/bin/../lib/gcc/arm-none-eabi/9.2.1/../../../../arm-none-eabi/lib/thumb/v7e-m+fp/hard\libc_nano.a(lib_a-nano-mallocr.o)
_sbss                                             build/startup_stm32l412xx.o
_sdata                                            build/startup_stm32l412xx.o
_sidata                                           build/startup_stm32l412xx.o
_siprintf_r                                       c:/ncs/v1.7.1/toolchain/opt/bin/../lib/gcc/arm-none-eabi/9.2.1/../../../../arm-none-eabi/lib/thumb/v7e-m+fp/hard\libc_nano.a(lib_a-sprintf.o)
_sprintf_r                                        c:/ncs/v1.7.1/toolchain/opt/bin/../lib/gcc/arm-none-eabi/9.2.1/../../../../arm-none-eabi/lib/thumb/v7e-m+fp/hard\libc_nano.a(lib_a-sprintf.o)
_start                                            c:/ncs/v1.7.1/toolchain/opt/bin/../lib/gcc/arm-none-eabi/9.2.1/../../../../arm-none-eabi/lib/thumb/v7e-m+fp/hard/crt0.o
_supported_devices                                build/SPI_FRAM.o
_svfiprintf_r                                     c:/ncs/v1.7.1/toolchain/opt/bin/../lib/gcc/arm-none-eabi/9.2.1/../../../../arm-none-eabi/lib/thumb/v7e-m+fp/hard\libc_nano.a(lib_a-nano-svfprintf.o)
_svfprintf_r                                      c:/ncs/v1.7.1/toolchain/opt/bin/../lib/gcc/arm-none-eabi/9.2.1/../../../../arm-none-eabi/lib/thumb/v7e-m+fp/hard\libc_nano.a(lib_a-nano-svfprintf.o)
                                                  c:/ncs/v1.7.1/toolchain/opt/bin/../lib/gcc/arm-none-eabi/9.2.1/../../../../arm-none-eabi/lib/thumb/v7e-m+fp/hard\libc_nano.a(lib_a-vsnprintf.o)
                                                  c:/ncs/v1.7.1/toolchain/opt/bin/../lib/gcc/arm-none-eabi/9.2.1/../../../../arm-none-eabi/lib/thumb/v7e-m+fp/hard\libc_nano.a(lib_a-sprintf.o)
_vsniprintf_r                                     c:/ncs/v1.7.1/toolchain/opt/bin/../lib/gcc/arm-none-eabi/9.2.1/../../../../arm-none-eabi/lib/thumb/v7e-m+fp/hard\libc_nano.a(lib_a-vsnprintf.o)
_vsnprintf_r                                      c:/ncs/v1.7.1/toolchain/opt/bin/../lib/gcc/arm-none-eabi/9.2.1/../../../../arm-none-eabi/lib/thumb/v7e-m+fp/hard\libc_nano.a(lib_a-vsnprintf.o)
appendDATA                                        build/main.o
appendFile                                        build/main.o
atexit                                            c:/ncs/v1.7.1/toolchain/opt/bin/../lib/gcc/arm-none-eabi/9.2.1/../../../../arm-none-eabi/lib/thumb/v7e-m+fp/hard/crt0.o
buffer_sync                                       build/main.o
check_supported_device                            build/SPI_FRAM.o
cleanup_glue                                      c:/ncs/v1.7.1/toolchain/opt/bin/../lib/gcc/arm-none-eabi/9.2.1/../../../../arm-none-eabi/lib/thumb/v7e-m+fp/hard\libc_nano.a(lib_a-reent.o)
disk                                              build/ff_gen_drv.o
                                                  build/diskio.o
disk_initialize                                   build/diskio.o
                                                  build/ff.o
disk_ioctl                                        build/diskio.o
                                                  build/ff.o
disk_read                                         build/diskio.o
                                                  build/ff.o
disk_status                                       build/diskio.o
                                                  build/ff.o
disk_write                                        build/diskio.o
                                                  build/ff.o
end                                               c:/ncs/v1.7.1/toolchain/opt/bin/../lib/gcc/arm-none-eabi/9.2.1/../../../../arm-none-eabi/lib/thumb/v7e-m+fp/hard\libnosys.a(sbrk.o)
errno                                             c:/ncs/v1.7.1/toolchain/opt/bin/../lib/gcc/arm-none-eabi/9.2.1/../../../../arm-none-eabi/lib/thumb/v7e-m+fp/hard\libc_nano.a(lib_a-reent.o)
                                                  c:/ncs/v1.7.1/toolchain/opt/bin/../lib/gcc/arm-none-eabi/9.2.1/../../../../arm-none-eabi/lib/thumb/v7e-m+fp/hard\libc_nano.a(lib_a-sbrkr.o)
exit                                              c:/ncs/v1.7.1/toolchain/opt/bin/../lib/gcc/arm-none-eabi/9.2.1/../../../../arm-none-eabi/lib/thumb/v7e-m+fp/hard\libc_nano.a(lib_a-exit.o)
                                                  c:/ncs/v1.7.1/toolchain/opt/bin/../lib/gcc/arm-none-eabi/9.2.1/../../../../arm-none-eabi/lib/thumb/v7e-m+fp/hard/crt0.o
f_close                                           build/ff.o
                                                  build/main.o
f_closedir                                        build/ff.o
f_getfree                                         build/ff.o
f_gets                                            build/ff.o
f_lseek                                           build/ff.o
                                                  build/main.o
f_mkdir                                           build/ff.o
f_mkfs                                            build/ff.o
f_mount                                           build/ff.o
                                                  build/main.o
f_open                                            build/ff.o
                                                  build/main.o
f_opendir                                         build/ff.o
f_printf                                          build/ff.o
f_putc                                            build/ff.o
f_puts                                            build/ff.o
f_read                                            build/ff.o
f_readdir                                         build/ff.o
f_rename                                          build/ff.o
f_stat                                            build/ff.o
f_sync                                            build/ff.o
                                                  build/main.o
f_truncate                                        build/ff.o
f_unlink                                          build/ff.o
f_write                                           build/ff.o
                                                  build/main.o
fil                                               build/main.o
free_clusters                                     build/usbd_storage_if.o
free_sectors                                      build/usbd_storage_if.o
fres                                              build/usbd_storage_if.o
                                                  build/main.o
g_pfnVectors                                      build/startup_stm32l412xx.o
getFreeFs                                         build/usbd_storage_if.o
get_fattime                                       build/fatfs.o
                                                  build/ff.o
hUsbDeviceFS                                      build/usb_device.o
hardware_init_hook                                c:/ncs/v1.7.1/toolchain/opt/bin/../lib/gcc/arm-none-eabi/9.2.1/../../../../arm-none-eabi/lib/thumb/v7e-m+fp/hard/crt0.o
hcrc                                              build/main.o
hpcd_USB_FS                                       build/usbd_conf.o
                                                  build/stm32l4xx_it.o
hspi1                                             build/main.o
                                                  build/SPI_FRAM.o
hspi2                                             build/main.o
                                                  build/user_diskio_spi.o
huart2                                            build/main.o
                                                  build/stm32l4xx_it.o
main                                              build/main.o
                                                  build/startup_stm32l412xx.o
                                                  c:/ncs/v1.7.1/toolchain/opt/bin/../lib/gcc/arm-none-eabi/9.2.1/../../../../arm-none-eabi/lib/thumb/v7e-m+fp/hard/crt0.o
memchr                                            c:/ncs/v1.7.1/toolchain/opt/bin/../lib/gcc/arm-none-eabi/9.2.1/../../../../arm-none-eabi/lib/thumb/v7e-m+fp/hard\libc_nano.a(lib_a-memchr.o)
                                                  c:/ncs/v1.7.1/toolchain/opt/bin/../lib/gcc/arm-none-eabi/9.2.1/../../../../arm-none-eabi/lib/thumb/v7e-m+fp/hard\libc_nano.a(lib_a-nano-vfprintf_i.o)
                                                  c:/ncs/v1.7.1/toolchain/opt/bin/../lib/gcc/arm-none-eabi/9.2.1/../../../../arm-none-eabi/lib/thumb/v7e-m+fp/hard\libc_nano.a(lib_a-nano-svfprintf.o)
memcpy                                            c:/ncs/v1.7.1/toolchain/opt/bin/../lib/gcc/arm-none-eabi/9.2.1/../../../../arm-none-eabi/lib/thumb/v7e-m+fp/hard\libc_nano.a(lib_a-memcpy-stub.o)
                                                  c:/ncs/v1.7.1/toolchain/opt/bin/../lib/gcc/arm-none-eabi/9.2.1/../../../../arm-none-eabi/lib/thumb/v7e-m+fp/hard\libc_nano.a(lib_a-nano-reallocr.o)
                                                  c:/ncs/v1.7.1/toolchain/opt/bin/../lib/gcc/arm-none-eabi/9.2.1/../../../../arm-none-eabi/lib/thumb/v7e-m+fp/hard\libc_nano.a(lib_a-nano-svfprintf.o)
memmove                                           c:/ncs/v1.7.1/toolchain/opt/bin/../lib/gcc/arm-none-eabi/9.2.1/../../../../arm-none-eabi/lib/thumb/v7e-m+fp/hard\libc_nano.a(lib_a-memmove.o)
                                                  c:/ncs/v1.7.1/toolchain/opt/bin/../lib/gcc/arm-none-eabi/9.2.1/../../../../arm-none-eabi/lib/thumb/v7e-m+fp/hard\libc_nano.a(lib_a-nano-svfprintf.o)
memset                                            c:/ncs/v1.7.1/toolchain/opt/bin/../lib/gcc/arm-none-eabi/9.2.1/../../../../arm-none-eabi/lib/thumb/v7e-m+fp/hard\libc_nano.a(lib_a-memset.o)
                                                  build/usbd_conf.o
                                                  build/SPI_FRAM.o
                                                  build/stm32l4xx_hal_msp.o
                                                  build/main.o
                                                  c:/ncs/v1.7.1/toolchain/opt/bin/../lib/gcc/arm-none-eabi/9.2.1/../../../../arm-none-eabi/lib/thumb/v7e-m+fp/hard/crt0.o
myprintf                                          build/main.o
newFile                                           build/main.o
newLog                                            build/main.o
pFlash                                            build/stm32l4xx_hal_flash.o
                                                  build/stm32l4xx_hal_flash_ex.o
retUSER                                           build/fatfs.o
setAddressSize                                    build/SPI_FRAM.o
siprintf                                          c:/ncs/v1.7.1/toolchain/opt/bin/../lib/gcc/arm-none-eabi/9.2.1/../../../../arm-none-eabi/lib/thumb/v7e-m+fp/hard\libc_nano.a(lib_a-sprintf.o)
software_init_hook                                c:/ncs/v1.7.1/toolchain/opt/bin/../lib/gcc/arm-none-eabi/9.2.1/../../../../arm-none-eabi/lib/thumb/v7e-m+fp/hard/crt0.o
spiTimerTickDelay                                 build/user_diskio_spi.o
spiTimerTickStart                                 build/user_diskio_spi.o
spi_fram                                          build/SPI_FRAM.o
sprintf                                           c:/ncs/v1.7.1/toolchain/opt/bin/../lib/gcc/arm-none-eabi/9.2.1/../../../../arm-none-eabi/lib/thumb/v7e-m+fp/hard\libc_nano.a(lib_a-sprintf.o)
                                                  build/main.o
strcat                                            c:/ncs/v1.7.1/toolchain/opt/bin/../lib/gcc/arm-none-eabi/9.2.1/../../../../arm-none-eabi/lib/thumb/v7e-m+fp/hard\libc_nano.a(lib_a-strcat.o)
                                                  build/main.o
strlen                                            c:/ncs/v1.7.1/toolchain/opt/bin/../lib/gcc/arm-none-eabi/9.2.1/../../../../arm-none-eabi/lib/thumb/v7e-m+fp/hard\libc_nano.a(lib_a-strlen.o)
                                                  build/SPI_FRAM.o
                                                  build/main.o
strncpy                                           c:/ncs/v1.7.1/toolchain/opt/bin/../lib/gcc/arm-none-eabi/9.2.1/../../../../arm-none-eabi/lib/thumb/v7e-m+fp/hard\libc_nano.a(lib_a-strncpy.o)
                                                  build/main.o
total_sectors                                     build/usbd_storage_if.o
uwTick                                            build/stm32l4xx_hal.o
uwTickFreq                                        build/stm32l4xx_hal.o
uwTickPrio                                        build/stm32l4xx_hal.o
                                                  build/stm32l4xx_hal_rcc.o
vsniprintf                                        c:/ncs/v1.7.1/toolchain/opt/bin/../lib/gcc/arm-none-eabi/9.2.1/../../../../arm-none-eabi/lib/thumb/v7e-m+fp/hard\libc_nano.a(lib_a-vsnprintf.o)
vsnprintf                                         c:/ncs/v1.7.1/toolchain/opt/bin/../lib/gcc/arm-none-eabi/9.2.1/../../../../arm-none-eabi/lib/thumb/v7e-m+fp/hard\libc_nano.a(lib_a-vsnprintf.o)
                                                  build/main.o
wakeup                                            build/main.o
workingFile                                       build/main.o
