ARM GAS  C:\Users\Admin\AppData\Local\Temp\ccE6spAX.s 			page 1


   1              		.cpu cortex-m4
   2              		.eabi_attribute 27, 1
   3              		.eabi_attribute 28, 1
   4              		.eabi_attribute 20, 1
   5              		.eabi_attribute 21, 1
   6              		.eabi_attribute 23, 3
   7              		.eabi_attribute 24, 1
   8              		.eabi_attribute 25, 1
   9              		.eabi_attribute 26, 1
  10              		.eabi_attribute 30, 1
  11              		.eabi_attribute 34, 1
  12              		.eabi_attribute 18, 4
  13              		.file	"usbd_msc_bot.c"
  14              		.text
  15              	.Ltext0:
  16              		.cfi_sections	.debug_frame
  17              		.section	.text.MSC_BOT_SendData,"ax",%progbits
  18              		.align	1
  19              		.arch armv7e-m
  20              		.syntax unified
  21              		.thumb
  22              		.thumb_func
  23              		.fpu fpv4-sp-d16
  25              	MSC_BOT_SendData:
  26              	.LVL0:
  27              	.LFB142:
  28              		.file 1 "Middlewares/ST/STM32_USB_Device_Library/Class/MSC/Src/usbd_msc_bot.c"
   1:Middlewares/ST/STM32_USB_Device_Library/Class/MSC/Src/usbd_msc_bot.c **** /**
   2:Middlewares/ST/STM32_USB_Device_Library/Class/MSC/Src/usbd_msc_bot.c ****   ******************************************************************************
   3:Middlewares/ST/STM32_USB_Device_Library/Class/MSC/Src/usbd_msc_bot.c ****   * @file    usbd_msc_bot.c
   4:Middlewares/ST/STM32_USB_Device_Library/Class/MSC/Src/usbd_msc_bot.c ****   * @author  MCD Application Team
   5:Middlewares/ST/STM32_USB_Device_Library/Class/MSC/Src/usbd_msc_bot.c ****   * @brief   This file provides all the BOT protocol core functions.
   6:Middlewares/ST/STM32_USB_Device_Library/Class/MSC/Src/usbd_msc_bot.c ****   ******************************************************************************
   7:Middlewares/ST/STM32_USB_Device_Library/Class/MSC/Src/usbd_msc_bot.c ****   * @attention
   8:Middlewares/ST/STM32_USB_Device_Library/Class/MSC/Src/usbd_msc_bot.c ****   *
   9:Middlewares/ST/STM32_USB_Device_Library/Class/MSC/Src/usbd_msc_bot.c ****   * <h2><center>&copy; Copyright (c) 2015 STMicroelectronics.
  10:Middlewares/ST/STM32_USB_Device_Library/Class/MSC/Src/usbd_msc_bot.c ****   * All rights reserved.</center></h2>
  11:Middlewares/ST/STM32_USB_Device_Library/Class/MSC/Src/usbd_msc_bot.c ****   *
  12:Middlewares/ST/STM32_USB_Device_Library/Class/MSC/Src/usbd_msc_bot.c ****   * This software component is licensed by ST under Ultimate Liberty license
  13:Middlewares/ST/STM32_USB_Device_Library/Class/MSC/Src/usbd_msc_bot.c ****   * SLA0044, the "License"; You may not use this file except in compliance with
  14:Middlewares/ST/STM32_USB_Device_Library/Class/MSC/Src/usbd_msc_bot.c ****   * the License. You may obtain a copy of the License at:
  15:Middlewares/ST/STM32_USB_Device_Library/Class/MSC/Src/usbd_msc_bot.c ****   *                      www.st.com/SLA0044
  16:Middlewares/ST/STM32_USB_Device_Library/Class/MSC/Src/usbd_msc_bot.c ****   *
  17:Middlewares/ST/STM32_USB_Device_Library/Class/MSC/Src/usbd_msc_bot.c ****   ******************************************************************************
  18:Middlewares/ST/STM32_USB_Device_Library/Class/MSC/Src/usbd_msc_bot.c ****   */
  19:Middlewares/ST/STM32_USB_Device_Library/Class/MSC/Src/usbd_msc_bot.c **** 
  20:Middlewares/ST/STM32_USB_Device_Library/Class/MSC/Src/usbd_msc_bot.c **** /* BSPDependencies
  21:Middlewares/ST/STM32_USB_Device_Library/Class/MSC/Src/usbd_msc_bot.c **** - "stm32xxxxx_{eval}{discovery}{nucleo_144}.c"
  22:Middlewares/ST/STM32_USB_Device_Library/Class/MSC/Src/usbd_msc_bot.c **** - "stm32xxxxx_{eval}{discovery}_io.c"
  23:Middlewares/ST/STM32_USB_Device_Library/Class/MSC/Src/usbd_msc_bot.c **** - "stm32xxxxx_{eval}{discovery}{adafruit}_sd.c"
  24:Middlewares/ST/STM32_USB_Device_Library/Class/MSC/Src/usbd_msc_bot.c **** EndBSPDependencies */
  25:Middlewares/ST/STM32_USB_Device_Library/Class/MSC/Src/usbd_msc_bot.c **** 
  26:Middlewares/ST/STM32_USB_Device_Library/Class/MSC/Src/usbd_msc_bot.c **** /* Includes ------------------------------------------------------------------*/
  27:Middlewares/ST/STM32_USB_Device_Library/Class/MSC/Src/usbd_msc_bot.c **** #include "usbd_msc_bot.h"
  28:Middlewares/ST/STM32_USB_Device_Library/Class/MSC/Src/usbd_msc_bot.c **** #include "usbd_msc.h"
  29:Middlewares/ST/STM32_USB_Device_Library/Class/MSC/Src/usbd_msc_bot.c **** #include "usbd_msc_scsi.h"
  30:Middlewares/ST/STM32_USB_Device_Library/Class/MSC/Src/usbd_msc_bot.c **** #include "usbd_ioreq.h"
ARM GAS  C:\Users\Admin\AppData\Local\Temp\ccE6spAX.s 			page 2


  31:Middlewares/ST/STM32_USB_Device_Library/Class/MSC/Src/usbd_msc_bot.c **** 
  32:Middlewares/ST/STM32_USB_Device_Library/Class/MSC/Src/usbd_msc_bot.c **** /** @addtogroup STM32_USB_DEVICE_LIBRARY
  33:Middlewares/ST/STM32_USB_Device_Library/Class/MSC/Src/usbd_msc_bot.c ****   * @{
  34:Middlewares/ST/STM32_USB_Device_Library/Class/MSC/Src/usbd_msc_bot.c ****   */
  35:Middlewares/ST/STM32_USB_Device_Library/Class/MSC/Src/usbd_msc_bot.c **** 
  36:Middlewares/ST/STM32_USB_Device_Library/Class/MSC/Src/usbd_msc_bot.c **** 
  37:Middlewares/ST/STM32_USB_Device_Library/Class/MSC/Src/usbd_msc_bot.c **** /** @defgroup MSC_BOT
  38:Middlewares/ST/STM32_USB_Device_Library/Class/MSC/Src/usbd_msc_bot.c ****   * @brief BOT protocol module
  39:Middlewares/ST/STM32_USB_Device_Library/Class/MSC/Src/usbd_msc_bot.c ****   * @{
  40:Middlewares/ST/STM32_USB_Device_Library/Class/MSC/Src/usbd_msc_bot.c ****   */
  41:Middlewares/ST/STM32_USB_Device_Library/Class/MSC/Src/usbd_msc_bot.c **** 
  42:Middlewares/ST/STM32_USB_Device_Library/Class/MSC/Src/usbd_msc_bot.c **** /** @defgroup MSC_BOT_Private_TypesDefinitions
  43:Middlewares/ST/STM32_USB_Device_Library/Class/MSC/Src/usbd_msc_bot.c ****   * @{
  44:Middlewares/ST/STM32_USB_Device_Library/Class/MSC/Src/usbd_msc_bot.c ****   */
  45:Middlewares/ST/STM32_USB_Device_Library/Class/MSC/Src/usbd_msc_bot.c **** /**
  46:Middlewares/ST/STM32_USB_Device_Library/Class/MSC/Src/usbd_msc_bot.c ****   * @}
  47:Middlewares/ST/STM32_USB_Device_Library/Class/MSC/Src/usbd_msc_bot.c ****   */
  48:Middlewares/ST/STM32_USB_Device_Library/Class/MSC/Src/usbd_msc_bot.c **** 
  49:Middlewares/ST/STM32_USB_Device_Library/Class/MSC/Src/usbd_msc_bot.c **** 
  50:Middlewares/ST/STM32_USB_Device_Library/Class/MSC/Src/usbd_msc_bot.c **** /** @defgroup MSC_BOT_Private_Defines
  51:Middlewares/ST/STM32_USB_Device_Library/Class/MSC/Src/usbd_msc_bot.c ****   * @{
  52:Middlewares/ST/STM32_USB_Device_Library/Class/MSC/Src/usbd_msc_bot.c ****   */
  53:Middlewares/ST/STM32_USB_Device_Library/Class/MSC/Src/usbd_msc_bot.c **** 
  54:Middlewares/ST/STM32_USB_Device_Library/Class/MSC/Src/usbd_msc_bot.c **** /**
  55:Middlewares/ST/STM32_USB_Device_Library/Class/MSC/Src/usbd_msc_bot.c ****   * @}
  56:Middlewares/ST/STM32_USB_Device_Library/Class/MSC/Src/usbd_msc_bot.c ****   */
  57:Middlewares/ST/STM32_USB_Device_Library/Class/MSC/Src/usbd_msc_bot.c **** 
  58:Middlewares/ST/STM32_USB_Device_Library/Class/MSC/Src/usbd_msc_bot.c **** 
  59:Middlewares/ST/STM32_USB_Device_Library/Class/MSC/Src/usbd_msc_bot.c **** /** @defgroup MSC_BOT_Private_Macros
  60:Middlewares/ST/STM32_USB_Device_Library/Class/MSC/Src/usbd_msc_bot.c ****   * @{
  61:Middlewares/ST/STM32_USB_Device_Library/Class/MSC/Src/usbd_msc_bot.c ****   */
  62:Middlewares/ST/STM32_USB_Device_Library/Class/MSC/Src/usbd_msc_bot.c **** /**
  63:Middlewares/ST/STM32_USB_Device_Library/Class/MSC/Src/usbd_msc_bot.c ****   * @}
  64:Middlewares/ST/STM32_USB_Device_Library/Class/MSC/Src/usbd_msc_bot.c ****   */
  65:Middlewares/ST/STM32_USB_Device_Library/Class/MSC/Src/usbd_msc_bot.c **** 
  66:Middlewares/ST/STM32_USB_Device_Library/Class/MSC/Src/usbd_msc_bot.c **** 
  67:Middlewares/ST/STM32_USB_Device_Library/Class/MSC/Src/usbd_msc_bot.c **** /** @defgroup MSC_BOT_Private_Variables
  68:Middlewares/ST/STM32_USB_Device_Library/Class/MSC/Src/usbd_msc_bot.c ****   * @{
  69:Middlewares/ST/STM32_USB_Device_Library/Class/MSC/Src/usbd_msc_bot.c ****   */
  70:Middlewares/ST/STM32_USB_Device_Library/Class/MSC/Src/usbd_msc_bot.c **** 
  71:Middlewares/ST/STM32_USB_Device_Library/Class/MSC/Src/usbd_msc_bot.c **** /**
  72:Middlewares/ST/STM32_USB_Device_Library/Class/MSC/Src/usbd_msc_bot.c ****   * @}
  73:Middlewares/ST/STM32_USB_Device_Library/Class/MSC/Src/usbd_msc_bot.c ****   */
  74:Middlewares/ST/STM32_USB_Device_Library/Class/MSC/Src/usbd_msc_bot.c **** 
  75:Middlewares/ST/STM32_USB_Device_Library/Class/MSC/Src/usbd_msc_bot.c **** 
  76:Middlewares/ST/STM32_USB_Device_Library/Class/MSC/Src/usbd_msc_bot.c **** /** @defgroup MSC_BOT_Private_FunctionPrototypes
  77:Middlewares/ST/STM32_USB_Device_Library/Class/MSC/Src/usbd_msc_bot.c ****   * @{
  78:Middlewares/ST/STM32_USB_Device_Library/Class/MSC/Src/usbd_msc_bot.c ****   */
  79:Middlewares/ST/STM32_USB_Device_Library/Class/MSC/Src/usbd_msc_bot.c **** static void MSC_BOT_SendData(USBD_HandleTypeDef *pdev, uint8_t *pbuf, uint32_t len);
  80:Middlewares/ST/STM32_USB_Device_Library/Class/MSC/Src/usbd_msc_bot.c **** static void MSC_BOT_CBW_Decode(USBD_HandleTypeDef *pdev);
  81:Middlewares/ST/STM32_USB_Device_Library/Class/MSC/Src/usbd_msc_bot.c **** static void MSC_BOT_Abort(USBD_HandleTypeDef *pdev);
  82:Middlewares/ST/STM32_USB_Device_Library/Class/MSC/Src/usbd_msc_bot.c **** /**
  83:Middlewares/ST/STM32_USB_Device_Library/Class/MSC/Src/usbd_msc_bot.c ****   * @}
  84:Middlewares/ST/STM32_USB_Device_Library/Class/MSC/Src/usbd_msc_bot.c ****   */
  85:Middlewares/ST/STM32_USB_Device_Library/Class/MSC/Src/usbd_msc_bot.c **** 
  86:Middlewares/ST/STM32_USB_Device_Library/Class/MSC/Src/usbd_msc_bot.c **** 
  87:Middlewares/ST/STM32_USB_Device_Library/Class/MSC/Src/usbd_msc_bot.c **** /** @defgroup MSC_BOT_Private_Functions
ARM GAS  C:\Users\Admin\AppData\Local\Temp\ccE6spAX.s 			page 3


  88:Middlewares/ST/STM32_USB_Device_Library/Class/MSC/Src/usbd_msc_bot.c ****   * @{
  89:Middlewares/ST/STM32_USB_Device_Library/Class/MSC/Src/usbd_msc_bot.c ****   */
  90:Middlewares/ST/STM32_USB_Device_Library/Class/MSC/Src/usbd_msc_bot.c **** 
  91:Middlewares/ST/STM32_USB_Device_Library/Class/MSC/Src/usbd_msc_bot.c **** 
  92:Middlewares/ST/STM32_USB_Device_Library/Class/MSC/Src/usbd_msc_bot.c **** /**
  93:Middlewares/ST/STM32_USB_Device_Library/Class/MSC/Src/usbd_msc_bot.c ****   * @brief  MSC_BOT_Init
  94:Middlewares/ST/STM32_USB_Device_Library/Class/MSC/Src/usbd_msc_bot.c ****   *         Initialize the BOT Process
  95:Middlewares/ST/STM32_USB_Device_Library/Class/MSC/Src/usbd_msc_bot.c ****   * @param  pdev: device instance
  96:Middlewares/ST/STM32_USB_Device_Library/Class/MSC/Src/usbd_msc_bot.c ****   * @retval None
  97:Middlewares/ST/STM32_USB_Device_Library/Class/MSC/Src/usbd_msc_bot.c ****   */
  98:Middlewares/ST/STM32_USB_Device_Library/Class/MSC/Src/usbd_msc_bot.c **** void MSC_BOT_Init(USBD_HandleTypeDef *pdev)
  99:Middlewares/ST/STM32_USB_Device_Library/Class/MSC/Src/usbd_msc_bot.c **** {
 100:Middlewares/ST/STM32_USB_Device_Library/Class/MSC/Src/usbd_msc_bot.c ****   USBD_MSC_BOT_HandleTypeDef *hmsc = (USBD_MSC_BOT_HandleTypeDef *)pdev->pClassData;
 101:Middlewares/ST/STM32_USB_Device_Library/Class/MSC/Src/usbd_msc_bot.c **** 
 102:Middlewares/ST/STM32_USB_Device_Library/Class/MSC/Src/usbd_msc_bot.c ****   if (hmsc == NULL)
 103:Middlewares/ST/STM32_USB_Device_Library/Class/MSC/Src/usbd_msc_bot.c ****   {
 104:Middlewares/ST/STM32_USB_Device_Library/Class/MSC/Src/usbd_msc_bot.c ****     return;
 105:Middlewares/ST/STM32_USB_Device_Library/Class/MSC/Src/usbd_msc_bot.c ****   }
 106:Middlewares/ST/STM32_USB_Device_Library/Class/MSC/Src/usbd_msc_bot.c **** 
 107:Middlewares/ST/STM32_USB_Device_Library/Class/MSC/Src/usbd_msc_bot.c ****   hmsc->bot_state = USBD_BOT_IDLE;
 108:Middlewares/ST/STM32_USB_Device_Library/Class/MSC/Src/usbd_msc_bot.c ****   hmsc->bot_status = USBD_BOT_STATUS_NORMAL;
 109:Middlewares/ST/STM32_USB_Device_Library/Class/MSC/Src/usbd_msc_bot.c **** 
 110:Middlewares/ST/STM32_USB_Device_Library/Class/MSC/Src/usbd_msc_bot.c ****   hmsc->scsi_sense_tail = 0U;
 111:Middlewares/ST/STM32_USB_Device_Library/Class/MSC/Src/usbd_msc_bot.c ****   hmsc->scsi_sense_head = 0U;
 112:Middlewares/ST/STM32_USB_Device_Library/Class/MSC/Src/usbd_msc_bot.c ****   hmsc->scsi_medium_state = SCSI_MEDIUM_UNLOCKED;
 113:Middlewares/ST/STM32_USB_Device_Library/Class/MSC/Src/usbd_msc_bot.c **** 
 114:Middlewares/ST/STM32_USB_Device_Library/Class/MSC/Src/usbd_msc_bot.c ****   ((USBD_StorageTypeDef *)pdev->pUserData)->Init(0U);
 115:Middlewares/ST/STM32_USB_Device_Library/Class/MSC/Src/usbd_msc_bot.c **** 
 116:Middlewares/ST/STM32_USB_Device_Library/Class/MSC/Src/usbd_msc_bot.c ****   (void)USBD_LL_FlushEP(pdev, MSC_EPOUT_ADDR);
 117:Middlewares/ST/STM32_USB_Device_Library/Class/MSC/Src/usbd_msc_bot.c ****   (void)USBD_LL_FlushEP(pdev, MSC_EPIN_ADDR);
 118:Middlewares/ST/STM32_USB_Device_Library/Class/MSC/Src/usbd_msc_bot.c **** 
 119:Middlewares/ST/STM32_USB_Device_Library/Class/MSC/Src/usbd_msc_bot.c ****   /* Prepare EP to Receive First BOT Cmd */
 120:Middlewares/ST/STM32_USB_Device_Library/Class/MSC/Src/usbd_msc_bot.c ****   (void)USBD_LL_PrepareReceive(pdev, MSC_EPOUT_ADDR, (uint8_t *)&hmsc->cbw,
 121:Middlewares/ST/STM32_USB_Device_Library/Class/MSC/Src/usbd_msc_bot.c ****                                USBD_BOT_CBW_LENGTH);
 122:Middlewares/ST/STM32_USB_Device_Library/Class/MSC/Src/usbd_msc_bot.c **** }
 123:Middlewares/ST/STM32_USB_Device_Library/Class/MSC/Src/usbd_msc_bot.c **** 
 124:Middlewares/ST/STM32_USB_Device_Library/Class/MSC/Src/usbd_msc_bot.c **** /**
 125:Middlewares/ST/STM32_USB_Device_Library/Class/MSC/Src/usbd_msc_bot.c ****   * @brief  MSC_BOT_Reset
 126:Middlewares/ST/STM32_USB_Device_Library/Class/MSC/Src/usbd_msc_bot.c ****   *         Reset the BOT Machine
 127:Middlewares/ST/STM32_USB_Device_Library/Class/MSC/Src/usbd_msc_bot.c ****   * @param  pdev: device instance
 128:Middlewares/ST/STM32_USB_Device_Library/Class/MSC/Src/usbd_msc_bot.c ****   * @retval  None
 129:Middlewares/ST/STM32_USB_Device_Library/Class/MSC/Src/usbd_msc_bot.c ****   */
 130:Middlewares/ST/STM32_USB_Device_Library/Class/MSC/Src/usbd_msc_bot.c **** void MSC_BOT_Reset(USBD_HandleTypeDef *pdev)
 131:Middlewares/ST/STM32_USB_Device_Library/Class/MSC/Src/usbd_msc_bot.c **** {
 132:Middlewares/ST/STM32_USB_Device_Library/Class/MSC/Src/usbd_msc_bot.c ****   USBD_MSC_BOT_HandleTypeDef *hmsc = (USBD_MSC_BOT_HandleTypeDef *)pdev->pClassData;
 133:Middlewares/ST/STM32_USB_Device_Library/Class/MSC/Src/usbd_msc_bot.c **** 
 134:Middlewares/ST/STM32_USB_Device_Library/Class/MSC/Src/usbd_msc_bot.c ****   if (hmsc == NULL)
 135:Middlewares/ST/STM32_USB_Device_Library/Class/MSC/Src/usbd_msc_bot.c ****   {
 136:Middlewares/ST/STM32_USB_Device_Library/Class/MSC/Src/usbd_msc_bot.c ****     return;
 137:Middlewares/ST/STM32_USB_Device_Library/Class/MSC/Src/usbd_msc_bot.c ****   }
 138:Middlewares/ST/STM32_USB_Device_Library/Class/MSC/Src/usbd_msc_bot.c **** 
 139:Middlewares/ST/STM32_USB_Device_Library/Class/MSC/Src/usbd_msc_bot.c ****   hmsc->bot_state  = USBD_BOT_IDLE;
 140:Middlewares/ST/STM32_USB_Device_Library/Class/MSC/Src/usbd_msc_bot.c ****   hmsc->bot_status = USBD_BOT_STATUS_RECOVERY;
 141:Middlewares/ST/STM32_USB_Device_Library/Class/MSC/Src/usbd_msc_bot.c **** 
 142:Middlewares/ST/STM32_USB_Device_Library/Class/MSC/Src/usbd_msc_bot.c ****   (void)USBD_LL_ClearStallEP(pdev, MSC_EPIN_ADDR);
 143:Middlewares/ST/STM32_USB_Device_Library/Class/MSC/Src/usbd_msc_bot.c ****   (void)USBD_LL_ClearStallEP(pdev, MSC_EPOUT_ADDR);
 144:Middlewares/ST/STM32_USB_Device_Library/Class/MSC/Src/usbd_msc_bot.c **** 
ARM GAS  C:\Users\Admin\AppData\Local\Temp\ccE6spAX.s 			page 4


 145:Middlewares/ST/STM32_USB_Device_Library/Class/MSC/Src/usbd_msc_bot.c ****   /* Prepare EP to Receive First BOT Cmd */
 146:Middlewares/ST/STM32_USB_Device_Library/Class/MSC/Src/usbd_msc_bot.c ****   (void)USBD_LL_PrepareReceive(pdev, MSC_EPOUT_ADDR, (uint8_t *)&hmsc->cbw,
 147:Middlewares/ST/STM32_USB_Device_Library/Class/MSC/Src/usbd_msc_bot.c ****                                USBD_BOT_CBW_LENGTH);
 148:Middlewares/ST/STM32_USB_Device_Library/Class/MSC/Src/usbd_msc_bot.c **** }
 149:Middlewares/ST/STM32_USB_Device_Library/Class/MSC/Src/usbd_msc_bot.c **** 
 150:Middlewares/ST/STM32_USB_Device_Library/Class/MSC/Src/usbd_msc_bot.c **** /**
 151:Middlewares/ST/STM32_USB_Device_Library/Class/MSC/Src/usbd_msc_bot.c ****   * @brief  MSC_BOT_DeInit
 152:Middlewares/ST/STM32_USB_Device_Library/Class/MSC/Src/usbd_msc_bot.c ****   *         DeInitialize the BOT Machine
 153:Middlewares/ST/STM32_USB_Device_Library/Class/MSC/Src/usbd_msc_bot.c ****   * @param  pdev: device instance
 154:Middlewares/ST/STM32_USB_Device_Library/Class/MSC/Src/usbd_msc_bot.c ****   * @retval None
 155:Middlewares/ST/STM32_USB_Device_Library/Class/MSC/Src/usbd_msc_bot.c ****   */
 156:Middlewares/ST/STM32_USB_Device_Library/Class/MSC/Src/usbd_msc_bot.c **** void MSC_BOT_DeInit(USBD_HandleTypeDef  *pdev)
 157:Middlewares/ST/STM32_USB_Device_Library/Class/MSC/Src/usbd_msc_bot.c **** {
 158:Middlewares/ST/STM32_USB_Device_Library/Class/MSC/Src/usbd_msc_bot.c ****   USBD_MSC_BOT_HandleTypeDef *hmsc = (USBD_MSC_BOT_HandleTypeDef *)pdev->pClassData;
 159:Middlewares/ST/STM32_USB_Device_Library/Class/MSC/Src/usbd_msc_bot.c **** 
 160:Middlewares/ST/STM32_USB_Device_Library/Class/MSC/Src/usbd_msc_bot.c ****   if (hmsc != NULL)
 161:Middlewares/ST/STM32_USB_Device_Library/Class/MSC/Src/usbd_msc_bot.c ****   {
 162:Middlewares/ST/STM32_USB_Device_Library/Class/MSC/Src/usbd_msc_bot.c ****     hmsc->bot_state = USBD_BOT_IDLE;
 163:Middlewares/ST/STM32_USB_Device_Library/Class/MSC/Src/usbd_msc_bot.c ****   }
 164:Middlewares/ST/STM32_USB_Device_Library/Class/MSC/Src/usbd_msc_bot.c **** }
 165:Middlewares/ST/STM32_USB_Device_Library/Class/MSC/Src/usbd_msc_bot.c **** 
 166:Middlewares/ST/STM32_USB_Device_Library/Class/MSC/Src/usbd_msc_bot.c **** /**
 167:Middlewares/ST/STM32_USB_Device_Library/Class/MSC/Src/usbd_msc_bot.c ****   * @brief  MSC_BOT_DataIn
 168:Middlewares/ST/STM32_USB_Device_Library/Class/MSC/Src/usbd_msc_bot.c ****   *         Handle BOT IN data stage
 169:Middlewares/ST/STM32_USB_Device_Library/Class/MSC/Src/usbd_msc_bot.c ****   * @param  pdev: device instance
 170:Middlewares/ST/STM32_USB_Device_Library/Class/MSC/Src/usbd_msc_bot.c ****   * @param  epnum: endpoint index
 171:Middlewares/ST/STM32_USB_Device_Library/Class/MSC/Src/usbd_msc_bot.c ****   * @retval None
 172:Middlewares/ST/STM32_USB_Device_Library/Class/MSC/Src/usbd_msc_bot.c ****   */
 173:Middlewares/ST/STM32_USB_Device_Library/Class/MSC/Src/usbd_msc_bot.c **** void MSC_BOT_DataIn(USBD_HandleTypeDef *pdev, uint8_t epnum)
 174:Middlewares/ST/STM32_USB_Device_Library/Class/MSC/Src/usbd_msc_bot.c **** {
 175:Middlewares/ST/STM32_USB_Device_Library/Class/MSC/Src/usbd_msc_bot.c ****   UNUSED(epnum);
 176:Middlewares/ST/STM32_USB_Device_Library/Class/MSC/Src/usbd_msc_bot.c **** 
 177:Middlewares/ST/STM32_USB_Device_Library/Class/MSC/Src/usbd_msc_bot.c ****   USBD_MSC_BOT_HandleTypeDef *hmsc = (USBD_MSC_BOT_HandleTypeDef *)pdev->pClassData;
 178:Middlewares/ST/STM32_USB_Device_Library/Class/MSC/Src/usbd_msc_bot.c **** 
 179:Middlewares/ST/STM32_USB_Device_Library/Class/MSC/Src/usbd_msc_bot.c ****   if (hmsc == NULL)
 180:Middlewares/ST/STM32_USB_Device_Library/Class/MSC/Src/usbd_msc_bot.c ****   {
 181:Middlewares/ST/STM32_USB_Device_Library/Class/MSC/Src/usbd_msc_bot.c ****     return;
 182:Middlewares/ST/STM32_USB_Device_Library/Class/MSC/Src/usbd_msc_bot.c ****   }
 183:Middlewares/ST/STM32_USB_Device_Library/Class/MSC/Src/usbd_msc_bot.c **** 
 184:Middlewares/ST/STM32_USB_Device_Library/Class/MSC/Src/usbd_msc_bot.c ****   switch (hmsc->bot_state)
 185:Middlewares/ST/STM32_USB_Device_Library/Class/MSC/Src/usbd_msc_bot.c ****   {
 186:Middlewares/ST/STM32_USB_Device_Library/Class/MSC/Src/usbd_msc_bot.c ****     case USBD_BOT_DATA_IN:
 187:Middlewares/ST/STM32_USB_Device_Library/Class/MSC/Src/usbd_msc_bot.c ****       if (SCSI_ProcessCmd(pdev, hmsc->cbw.bLUN, &hmsc->cbw.CB[0]) < 0)
 188:Middlewares/ST/STM32_USB_Device_Library/Class/MSC/Src/usbd_msc_bot.c ****       {
 189:Middlewares/ST/STM32_USB_Device_Library/Class/MSC/Src/usbd_msc_bot.c ****         MSC_BOT_SendCSW(pdev, USBD_CSW_CMD_FAILED);
 190:Middlewares/ST/STM32_USB_Device_Library/Class/MSC/Src/usbd_msc_bot.c ****       }
 191:Middlewares/ST/STM32_USB_Device_Library/Class/MSC/Src/usbd_msc_bot.c ****       break;
 192:Middlewares/ST/STM32_USB_Device_Library/Class/MSC/Src/usbd_msc_bot.c **** 
 193:Middlewares/ST/STM32_USB_Device_Library/Class/MSC/Src/usbd_msc_bot.c ****     case USBD_BOT_SEND_DATA:
 194:Middlewares/ST/STM32_USB_Device_Library/Class/MSC/Src/usbd_msc_bot.c ****     case USBD_BOT_LAST_DATA_IN:
 195:Middlewares/ST/STM32_USB_Device_Library/Class/MSC/Src/usbd_msc_bot.c ****       MSC_BOT_SendCSW(pdev, USBD_CSW_CMD_PASSED);
 196:Middlewares/ST/STM32_USB_Device_Library/Class/MSC/Src/usbd_msc_bot.c ****       break;
 197:Middlewares/ST/STM32_USB_Device_Library/Class/MSC/Src/usbd_msc_bot.c **** 
 198:Middlewares/ST/STM32_USB_Device_Library/Class/MSC/Src/usbd_msc_bot.c ****     default:
 199:Middlewares/ST/STM32_USB_Device_Library/Class/MSC/Src/usbd_msc_bot.c ****       break;
 200:Middlewares/ST/STM32_USB_Device_Library/Class/MSC/Src/usbd_msc_bot.c ****   }
 201:Middlewares/ST/STM32_USB_Device_Library/Class/MSC/Src/usbd_msc_bot.c **** }
ARM GAS  C:\Users\Admin\AppData\Local\Temp\ccE6spAX.s 			page 5


 202:Middlewares/ST/STM32_USB_Device_Library/Class/MSC/Src/usbd_msc_bot.c **** /**
 203:Middlewares/ST/STM32_USB_Device_Library/Class/MSC/Src/usbd_msc_bot.c ****   * @brief  MSC_BOT_DataOut
 204:Middlewares/ST/STM32_USB_Device_Library/Class/MSC/Src/usbd_msc_bot.c ****   *         Process MSC OUT data
 205:Middlewares/ST/STM32_USB_Device_Library/Class/MSC/Src/usbd_msc_bot.c ****   * @param  pdev: device instance
 206:Middlewares/ST/STM32_USB_Device_Library/Class/MSC/Src/usbd_msc_bot.c ****   * @param  epnum: endpoint index
 207:Middlewares/ST/STM32_USB_Device_Library/Class/MSC/Src/usbd_msc_bot.c ****   * @retval None
 208:Middlewares/ST/STM32_USB_Device_Library/Class/MSC/Src/usbd_msc_bot.c ****   */
 209:Middlewares/ST/STM32_USB_Device_Library/Class/MSC/Src/usbd_msc_bot.c **** void MSC_BOT_DataOut(USBD_HandleTypeDef *pdev, uint8_t epnum)
 210:Middlewares/ST/STM32_USB_Device_Library/Class/MSC/Src/usbd_msc_bot.c **** {
 211:Middlewares/ST/STM32_USB_Device_Library/Class/MSC/Src/usbd_msc_bot.c ****   UNUSED(epnum);
 212:Middlewares/ST/STM32_USB_Device_Library/Class/MSC/Src/usbd_msc_bot.c **** 
 213:Middlewares/ST/STM32_USB_Device_Library/Class/MSC/Src/usbd_msc_bot.c ****   USBD_MSC_BOT_HandleTypeDef *hmsc = (USBD_MSC_BOT_HandleTypeDef *)pdev->pClassData;
 214:Middlewares/ST/STM32_USB_Device_Library/Class/MSC/Src/usbd_msc_bot.c **** 
 215:Middlewares/ST/STM32_USB_Device_Library/Class/MSC/Src/usbd_msc_bot.c ****   if (hmsc == NULL)
 216:Middlewares/ST/STM32_USB_Device_Library/Class/MSC/Src/usbd_msc_bot.c ****   {
 217:Middlewares/ST/STM32_USB_Device_Library/Class/MSC/Src/usbd_msc_bot.c ****     return;
 218:Middlewares/ST/STM32_USB_Device_Library/Class/MSC/Src/usbd_msc_bot.c ****   }
 219:Middlewares/ST/STM32_USB_Device_Library/Class/MSC/Src/usbd_msc_bot.c **** 
 220:Middlewares/ST/STM32_USB_Device_Library/Class/MSC/Src/usbd_msc_bot.c ****   switch (hmsc->bot_state)
 221:Middlewares/ST/STM32_USB_Device_Library/Class/MSC/Src/usbd_msc_bot.c ****   {
 222:Middlewares/ST/STM32_USB_Device_Library/Class/MSC/Src/usbd_msc_bot.c ****     case USBD_BOT_IDLE:
 223:Middlewares/ST/STM32_USB_Device_Library/Class/MSC/Src/usbd_msc_bot.c ****       MSC_BOT_CBW_Decode(pdev);
 224:Middlewares/ST/STM32_USB_Device_Library/Class/MSC/Src/usbd_msc_bot.c ****       break;
 225:Middlewares/ST/STM32_USB_Device_Library/Class/MSC/Src/usbd_msc_bot.c **** 
 226:Middlewares/ST/STM32_USB_Device_Library/Class/MSC/Src/usbd_msc_bot.c ****     case USBD_BOT_DATA_OUT:
 227:Middlewares/ST/STM32_USB_Device_Library/Class/MSC/Src/usbd_msc_bot.c ****       if (SCSI_ProcessCmd(pdev, hmsc->cbw.bLUN, &hmsc->cbw.CB[0]) < 0)
 228:Middlewares/ST/STM32_USB_Device_Library/Class/MSC/Src/usbd_msc_bot.c ****       {
 229:Middlewares/ST/STM32_USB_Device_Library/Class/MSC/Src/usbd_msc_bot.c ****         MSC_BOT_SendCSW(pdev, USBD_CSW_CMD_FAILED);
 230:Middlewares/ST/STM32_USB_Device_Library/Class/MSC/Src/usbd_msc_bot.c ****       }
 231:Middlewares/ST/STM32_USB_Device_Library/Class/MSC/Src/usbd_msc_bot.c ****       break;
 232:Middlewares/ST/STM32_USB_Device_Library/Class/MSC/Src/usbd_msc_bot.c **** 
 233:Middlewares/ST/STM32_USB_Device_Library/Class/MSC/Src/usbd_msc_bot.c ****     default:
 234:Middlewares/ST/STM32_USB_Device_Library/Class/MSC/Src/usbd_msc_bot.c ****       break;
 235:Middlewares/ST/STM32_USB_Device_Library/Class/MSC/Src/usbd_msc_bot.c ****   }
 236:Middlewares/ST/STM32_USB_Device_Library/Class/MSC/Src/usbd_msc_bot.c **** }
 237:Middlewares/ST/STM32_USB_Device_Library/Class/MSC/Src/usbd_msc_bot.c **** 
 238:Middlewares/ST/STM32_USB_Device_Library/Class/MSC/Src/usbd_msc_bot.c **** /**
 239:Middlewares/ST/STM32_USB_Device_Library/Class/MSC/Src/usbd_msc_bot.c ****   * @brief  MSC_BOT_CBW_Decode
 240:Middlewares/ST/STM32_USB_Device_Library/Class/MSC/Src/usbd_msc_bot.c ****   *         Decode the CBW command and set the BOT state machine accordingly
 241:Middlewares/ST/STM32_USB_Device_Library/Class/MSC/Src/usbd_msc_bot.c ****   * @param  pdev: device instance
 242:Middlewares/ST/STM32_USB_Device_Library/Class/MSC/Src/usbd_msc_bot.c ****   * @retval None
 243:Middlewares/ST/STM32_USB_Device_Library/Class/MSC/Src/usbd_msc_bot.c ****   */
 244:Middlewares/ST/STM32_USB_Device_Library/Class/MSC/Src/usbd_msc_bot.c **** static void  MSC_BOT_CBW_Decode(USBD_HandleTypeDef *pdev)
 245:Middlewares/ST/STM32_USB_Device_Library/Class/MSC/Src/usbd_msc_bot.c **** {
 246:Middlewares/ST/STM32_USB_Device_Library/Class/MSC/Src/usbd_msc_bot.c ****   USBD_MSC_BOT_HandleTypeDef *hmsc = (USBD_MSC_BOT_HandleTypeDef *)pdev->pClassData;
 247:Middlewares/ST/STM32_USB_Device_Library/Class/MSC/Src/usbd_msc_bot.c **** 
 248:Middlewares/ST/STM32_USB_Device_Library/Class/MSC/Src/usbd_msc_bot.c ****   if (hmsc == NULL)
 249:Middlewares/ST/STM32_USB_Device_Library/Class/MSC/Src/usbd_msc_bot.c ****   {
 250:Middlewares/ST/STM32_USB_Device_Library/Class/MSC/Src/usbd_msc_bot.c ****     return;
 251:Middlewares/ST/STM32_USB_Device_Library/Class/MSC/Src/usbd_msc_bot.c ****   }
 252:Middlewares/ST/STM32_USB_Device_Library/Class/MSC/Src/usbd_msc_bot.c **** 
 253:Middlewares/ST/STM32_USB_Device_Library/Class/MSC/Src/usbd_msc_bot.c ****   hmsc->csw.dTag = hmsc->cbw.dTag;
 254:Middlewares/ST/STM32_USB_Device_Library/Class/MSC/Src/usbd_msc_bot.c ****   hmsc->csw.dDataResidue = hmsc->cbw.dDataLength;
 255:Middlewares/ST/STM32_USB_Device_Library/Class/MSC/Src/usbd_msc_bot.c **** 
 256:Middlewares/ST/STM32_USB_Device_Library/Class/MSC/Src/usbd_msc_bot.c ****   if ((USBD_LL_GetRxDataSize(pdev, MSC_EPOUT_ADDR) != USBD_BOT_CBW_LENGTH) ||
 257:Middlewares/ST/STM32_USB_Device_Library/Class/MSC/Src/usbd_msc_bot.c ****       (hmsc->cbw.dSignature != USBD_BOT_CBW_SIGNATURE) ||
 258:Middlewares/ST/STM32_USB_Device_Library/Class/MSC/Src/usbd_msc_bot.c ****       (hmsc->cbw.bLUN > 1U) || (hmsc->cbw.bCBLength < 1U) ||
ARM GAS  C:\Users\Admin\AppData\Local\Temp\ccE6spAX.s 			page 6


 259:Middlewares/ST/STM32_USB_Device_Library/Class/MSC/Src/usbd_msc_bot.c ****       (hmsc->cbw.bCBLength > 16U))
 260:Middlewares/ST/STM32_USB_Device_Library/Class/MSC/Src/usbd_msc_bot.c ****   {
 261:Middlewares/ST/STM32_USB_Device_Library/Class/MSC/Src/usbd_msc_bot.c ****     SCSI_SenseCode(pdev, hmsc->cbw.bLUN, ILLEGAL_REQUEST, INVALID_CDB);
 262:Middlewares/ST/STM32_USB_Device_Library/Class/MSC/Src/usbd_msc_bot.c **** 
 263:Middlewares/ST/STM32_USB_Device_Library/Class/MSC/Src/usbd_msc_bot.c ****     hmsc->bot_status = USBD_BOT_STATUS_ERROR;
 264:Middlewares/ST/STM32_USB_Device_Library/Class/MSC/Src/usbd_msc_bot.c ****     MSC_BOT_Abort(pdev);
 265:Middlewares/ST/STM32_USB_Device_Library/Class/MSC/Src/usbd_msc_bot.c ****   }
 266:Middlewares/ST/STM32_USB_Device_Library/Class/MSC/Src/usbd_msc_bot.c ****   else
 267:Middlewares/ST/STM32_USB_Device_Library/Class/MSC/Src/usbd_msc_bot.c ****   {
 268:Middlewares/ST/STM32_USB_Device_Library/Class/MSC/Src/usbd_msc_bot.c ****     if (SCSI_ProcessCmd(pdev, hmsc->cbw.bLUN, &hmsc->cbw.CB[0]) < 0)
 269:Middlewares/ST/STM32_USB_Device_Library/Class/MSC/Src/usbd_msc_bot.c ****     {
 270:Middlewares/ST/STM32_USB_Device_Library/Class/MSC/Src/usbd_msc_bot.c ****       if (hmsc->bot_state == USBD_BOT_NO_DATA)
 271:Middlewares/ST/STM32_USB_Device_Library/Class/MSC/Src/usbd_msc_bot.c ****       {
 272:Middlewares/ST/STM32_USB_Device_Library/Class/MSC/Src/usbd_msc_bot.c ****         MSC_BOT_SendCSW(pdev, USBD_CSW_CMD_FAILED);
 273:Middlewares/ST/STM32_USB_Device_Library/Class/MSC/Src/usbd_msc_bot.c ****       }
 274:Middlewares/ST/STM32_USB_Device_Library/Class/MSC/Src/usbd_msc_bot.c ****       else
 275:Middlewares/ST/STM32_USB_Device_Library/Class/MSC/Src/usbd_msc_bot.c ****       {
 276:Middlewares/ST/STM32_USB_Device_Library/Class/MSC/Src/usbd_msc_bot.c ****         MSC_BOT_Abort(pdev);
 277:Middlewares/ST/STM32_USB_Device_Library/Class/MSC/Src/usbd_msc_bot.c ****       }
 278:Middlewares/ST/STM32_USB_Device_Library/Class/MSC/Src/usbd_msc_bot.c ****     }
 279:Middlewares/ST/STM32_USB_Device_Library/Class/MSC/Src/usbd_msc_bot.c ****     /* Burst xfer handled internally */
 280:Middlewares/ST/STM32_USB_Device_Library/Class/MSC/Src/usbd_msc_bot.c ****     else if ((hmsc->bot_state != USBD_BOT_DATA_IN) &&
 281:Middlewares/ST/STM32_USB_Device_Library/Class/MSC/Src/usbd_msc_bot.c ****              (hmsc->bot_state != USBD_BOT_DATA_OUT) &&
 282:Middlewares/ST/STM32_USB_Device_Library/Class/MSC/Src/usbd_msc_bot.c ****              (hmsc->bot_state != USBD_BOT_LAST_DATA_IN))
 283:Middlewares/ST/STM32_USB_Device_Library/Class/MSC/Src/usbd_msc_bot.c ****     {
 284:Middlewares/ST/STM32_USB_Device_Library/Class/MSC/Src/usbd_msc_bot.c ****       if (hmsc->bot_data_length > 0U)
 285:Middlewares/ST/STM32_USB_Device_Library/Class/MSC/Src/usbd_msc_bot.c ****       {
 286:Middlewares/ST/STM32_USB_Device_Library/Class/MSC/Src/usbd_msc_bot.c ****         MSC_BOT_SendData(pdev, hmsc->bot_data, hmsc->bot_data_length);
 287:Middlewares/ST/STM32_USB_Device_Library/Class/MSC/Src/usbd_msc_bot.c ****       }
 288:Middlewares/ST/STM32_USB_Device_Library/Class/MSC/Src/usbd_msc_bot.c ****       else if (hmsc->bot_data_length == 0U)
 289:Middlewares/ST/STM32_USB_Device_Library/Class/MSC/Src/usbd_msc_bot.c ****       {
 290:Middlewares/ST/STM32_USB_Device_Library/Class/MSC/Src/usbd_msc_bot.c ****         MSC_BOT_SendCSW(pdev, USBD_CSW_CMD_PASSED);
 291:Middlewares/ST/STM32_USB_Device_Library/Class/MSC/Src/usbd_msc_bot.c ****       }
 292:Middlewares/ST/STM32_USB_Device_Library/Class/MSC/Src/usbd_msc_bot.c ****       else
 293:Middlewares/ST/STM32_USB_Device_Library/Class/MSC/Src/usbd_msc_bot.c ****       {
 294:Middlewares/ST/STM32_USB_Device_Library/Class/MSC/Src/usbd_msc_bot.c ****         MSC_BOT_Abort(pdev);
 295:Middlewares/ST/STM32_USB_Device_Library/Class/MSC/Src/usbd_msc_bot.c ****       }
 296:Middlewares/ST/STM32_USB_Device_Library/Class/MSC/Src/usbd_msc_bot.c ****     }
 297:Middlewares/ST/STM32_USB_Device_Library/Class/MSC/Src/usbd_msc_bot.c ****     else
 298:Middlewares/ST/STM32_USB_Device_Library/Class/MSC/Src/usbd_msc_bot.c ****     {
 299:Middlewares/ST/STM32_USB_Device_Library/Class/MSC/Src/usbd_msc_bot.c ****       return;
 300:Middlewares/ST/STM32_USB_Device_Library/Class/MSC/Src/usbd_msc_bot.c ****     }
 301:Middlewares/ST/STM32_USB_Device_Library/Class/MSC/Src/usbd_msc_bot.c ****   }
 302:Middlewares/ST/STM32_USB_Device_Library/Class/MSC/Src/usbd_msc_bot.c **** }
 303:Middlewares/ST/STM32_USB_Device_Library/Class/MSC/Src/usbd_msc_bot.c **** 
 304:Middlewares/ST/STM32_USB_Device_Library/Class/MSC/Src/usbd_msc_bot.c **** /**
 305:Middlewares/ST/STM32_USB_Device_Library/Class/MSC/Src/usbd_msc_bot.c ****   * @brief  MSC_BOT_SendData
 306:Middlewares/ST/STM32_USB_Device_Library/Class/MSC/Src/usbd_msc_bot.c ****   *         Send the requested data
 307:Middlewares/ST/STM32_USB_Device_Library/Class/MSC/Src/usbd_msc_bot.c ****   * @param  pdev: device instance
 308:Middlewares/ST/STM32_USB_Device_Library/Class/MSC/Src/usbd_msc_bot.c ****   * @param  buf: pointer to data buffer
 309:Middlewares/ST/STM32_USB_Device_Library/Class/MSC/Src/usbd_msc_bot.c ****   * @param  len: Data Length
 310:Middlewares/ST/STM32_USB_Device_Library/Class/MSC/Src/usbd_msc_bot.c ****   * @retval None
 311:Middlewares/ST/STM32_USB_Device_Library/Class/MSC/Src/usbd_msc_bot.c ****   */
 312:Middlewares/ST/STM32_USB_Device_Library/Class/MSC/Src/usbd_msc_bot.c **** static void  MSC_BOT_SendData(USBD_HandleTypeDef *pdev, uint8_t *pbuf, uint32_t len)
 313:Middlewares/ST/STM32_USB_Device_Library/Class/MSC/Src/usbd_msc_bot.c **** {
  29              		.loc 1 313 1 view -0
  30              		.cfi_startproc
ARM GAS  C:\Users\Admin\AppData\Local\Temp\ccE6spAX.s 			page 7


  31              		@ args = 0, pretend = 0, frame = 0
  32              		@ frame_needed = 0, uses_anonymous_args = 0
  33              		.loc 1 313 1 is_stmt 0 view .LVU1
  34 0000 38B5     		push	{r3, r4, r5, lr}
  35              	.LCFI0:
  36              		.cfi_def_cfa_offset 16
  37              		.cfi_offset 3, -16
  38              		.cfi_offset 4, -12
  39              		.cfi_offset 5, -8
  40              		.cfi_offset 14, -4
 314:Middlewares/ST/STM32_USB_Device_Library/Class/MSC/Src/usbd_msc_bot.c ****   USBD_MSC_BOT_HandleTypeDef *hmsc = (USBD_MSC_BOT_HandleTypeDef *)pdev->pClassData;
  41              		.loc 1 314 3 is_stmt 1 view .LVU2
  42              		.loc 1 314 31 is_stmt 0 view .LVU3
  43 0002 D0F8BC42 		ldr	r4, [r0, #700]
  44              	.LVL1:
 315:Middlewares/ST/STM32_USB_Device_Library/Class/MSC/Src/usbd_msc_bot.c **** 
 316:Middlewares/ST/STM32_USB_Device_Library/Class/MSC/Src/usbd_msc_bot.c ****   uint32_t length = MIN(hmsc->cbw.dDataLength, len);
  45              		.loc 1 316 3 is_stmt 1 view .LVU4
  46              		.loc 1 316 21 is_stmt 0 view .LVU5
  47 0006 D4F81832 		ldr	r3, [r4, #536]
  48              		.loc 1 316 12 view .LVU6
  49 000a 9342     		cmp	r3, r2
  50 000c 28BF     		it	cs
  51 000e 1346     		movcs	r3, r2
  52              	.LVL2:
 317:Middlewares/ST/STM32_USB_Device_Library/Class/MSC/Src/usbd_msc_bot.c **** 
 318:Middlewares/ST/STM32_USB_Device_Library/Class/MSC/Src/usbd_msc_bot.c ****   if (hmsc == NULL)
  53              		.loc 1 318 3 is_stmt 1 view .LVU7
  54              		.loc 1 318 6 is_stmt 0 view .LVU8
  55 0010 6CB1     		cbz	r4, .L1
 319:Middlewares/ST/STM32_USB_Device_Library/Class/MSC/Src/usbd_msc_bot.c ****   {
 320:Middlewares/ST/STM32_USB_Device_Library/Class/MSC/Src/usbd_msc_bot.c ****     return;
 321:Middlewares/ST/STM32_USB_Device_Library/Class/MSC/Src/usbd_msc_bot.c ****   }
 322:Middlewares/ST/STM32_USB_Device_Library/Class/MSC/Src/usbd_msc_bot.c **** 
 323:Middlewares/ST/STM32_USB_Device_Library/Class/MSC/Src/usbd_msc_bot.c ****   hmsc->csw.dDataResidue -= len;
  56              		.loc 1 323 3 is_stmt 1 view .LVU9
  57              		.loc 1 323 26 is_stmt 0 view .LVU10
  58 0012 D4F83852 		ldr	r5, [r4, #568]
  59 0016 AA1A     		subs	r2, r5, r2
  60              	.LVL3:
  61              		.loc 1 323 26 view .LVU11
  62 0018 C4F83822 		str	r2, [r4, #568]
 324:Middlewares/ST/STM32_USB_Device_Library/Class/MSC/Src/usbd_msc_bot.c ****   hmsc->csw.bStatus = USBD_CSW_CMD_PASSED;
  63              		.loc 1 324 3 is_stmt 1 view .LVU12
  64              		.loc 1 324 21 is_stmt 0 view .LVU13
  65 001c 0022     		movs	r2, #0
  66 001e 84F83C22 		strb	r2, [r4, #572]
 325:Middlewares/ST/STM32_USB_Device_Library/Class/MSC/Src/usbd_msc_bot.c ****   hmsc->bot_state = USBD_BOT_SEND_DATA;
  67              		.loc 1 325 3 is_stmt 1 view .LVU14
  68              		.loc 1 325 19 is_stmt 0 view .LVU15
  69 0022 0422     		movs	r2, #4
  70 0024 2272     		strb	r2, [r4, #8]
 326:Middlewares/ST/STM32_USB_Device_Library/Class/MSC/Src/usbd_msc_bot.c **** 
 327:Middlewares/ST/STM32_USB_Device_Library/Class/MSC/Src/usbd_msc_bot.c ****   (void)USBD_LL_Transmit(pdev, MSC_EPIN_ADDR, pbuf, length);
  71              		.loc 1 327 3 is_stmt 1 view .LVU16
  72              		.loc 1 327 9 is_stmt 0 view .LVU17
  73 0026 0A46     		mov	r2, r1
ARM GAS  C:\Users\Admin\AppData\Local\Temp\ccE6spAX.s 			page 8


  74 0028 8121     		movs	r1, #129
  75              	.LVL4:
  76              		.loc 1 327 9 view .LVU18
  77 002a FFF7FEFF 		bl	USBD_LL_Transmit
  78              	.LVL5:
  79              	.L1:
 328:Middlewares/ST/STM32_USB_Device_Library/Class/MSC/Src/usbd_msc_bot.c **** }
  80              		.loc 1 328 1 view .LVU19
  81 002e 38BD     		pop	{r3, r4, r5, pc}
  82              		.loc 1 328 1 view .LVU20
  83              		.cfi_endproc
  84              	.LFE142:
  86              		.section	.text.MSC_BOT_Abort,"ax",%progbits
  87              		.align	1
  88              		.syntax unified
  89              		.thumb
  90              		.thumb_func
  91              		.fpu fpv4-sp-d16
  93              	MSC_BOT_Abort:
  94              	.LVL6:
  95              	.LFB144:
 329:Middlewares/ST/STM32_USB_Device_Library/Class/MSC/Src/usbd_msc_bot.c **** 
 330:Middlewares/ST/STM32_USB_Device_Library/Class/MSC/Src/usbd_msc_bot.c **** /**
 331:Middlewares/ST/STM32_USB_Device_Library/Class/MSC/Src/usbd_msc_bot.c ****   * @brief  MSC_BOT_SendCSW
 332:Middlewares/ST/STM32_USB_Device_Library/Class/MSC/Src/usbd_msc_bot.c ****   *         Send the Command Status Wrapper
 333:Middlewares/ST/STM32_USB_Device_Library/Class/MSC/Src/usbd_msc_bot.c ****   * @param  pdev: device instance
 334:Middlewares/ST/STM32_USB_Device_Library/Class/MSC/Src/usbd_msc_bot.c ****   * @param  status : CSW status
 335:Middlewares/ST/STM32_USB_Device_Library/Class/MSC/Src/usbd_msc_bot.c ****   * @retval None
 336:Middlewares/ST/STM32_USB_Device_Library/Class/MSC/Src/usbd_msc_bot.c ****   */
 337:Middlewares/ST/STM32_USB_Device_Library/Class/MSC/Src/usbd_msc_bot.c **** void  MSC_BOT_SendCSW(USBD_HandleTypeDef *pdev, uint8_t CSW_Status)
 338:Middlewares/ST/STM32_USB_Device_Library/Class/MSC/Src/usbd_msc_bot.c **** {
 339:Middlewares/ST/STM32_USB_Device_Library/Class/MSC/Src/usbd_msc_bot.c ****   USBD_MSC_BOT_HandleTypeDef *hmsc = (USBD_MSC_BOT_HandleTypeDef *)pdev->pClassData;
 340:Middlewares/ST/STM32_USB_Device_Library/Class/MSC/Src/usbd_msc_bot.c **** 
 341:Middlewares/ST/STM32_USB_Device_Library/Class/MSC/Src/usbd_msc_bot.c ****   if (hmsc == NULL)
 342:Middlewares/ST/STM32_USB_Device_Library/Class/MSC/Src/usbd_msc_bot.c ****   {
 343:Middlewares/ST/STM32_USB_Device_Library/Class/MSC/Src/usbd_msc_bot.c ****     return;
 344:Middlewares/ST/STM32_USB_Device_Library/Class/MSC/Src/usbd_msc_bot.c ****   }
 345:Middlewares/ST/STM32_USB_Device_Library/Class/MSC/Src/usbd_msc_bot.c **** 
 346:Middlewares/ST/STM32_USB_Device_Library/Class/MSC/Src/usbd_msc_bot.c ****   hmsc->csw.dSignature = USBD_BOT_CSW_SIGNATURE;
 347:Middlewares/ST/STM32_USB_Device_Library/Class/MSC/Src/usbd_msc_bot.c ****   hmsc->csw.bStatus = CSW_Status;
 348:Middlewares/ST/STM32_USB_Device_Library/Class/MSC/Src/usbd_msc_bot.c ****   hmsc->bot_state = USBD_BOT_IDLE;
 349:Middlewares/ST/STM32_USB_Device_Library/Class/MSC/Src/usbd_msc_bot.c **** 
 350:Middlewares/ST/STM32_USB_Device_Library/Class/MSC/Src/usbd_msc_bot.c ****   (void)USBD_LL_Transmit(pdev, MSC_EPIN_ADDR, (uint8_t *)&hmsc->csw,
 351:Middlewares/ST/STM32_USB_Device_Library/Class/MSC/Src/usbd_msc_bot.c ****                          USBD_BOT_CSW_LENGTH);
 352:Middlewares/ST/STM32_USB_Device_Library/Class/MSC/Src/usbd_msc_bot.c **** 
 353:Middlewares/ST/STM32_USB_Device_Library/Class/MSC/Src/usbd_msc_bot.c ****   /* Prepare EP to Receive next Cmd */
 354:Middlewares/ST/STM32_USB_Device_Library/Class/MSC/Src/usbd_msc_bot.c ****   (void)USBD_LL_PrepareReceive(pdev, MSC_EPOUT_ADDR, (uint8_t *)&hmsc->cbw,
 355:Middlewares/ST/STM32_USB_Device_Library/Class/MSC/Src/usbd_msc_bot.c ****                                USBD_BOT_CBW_LENGTH);
 356:Middlewares/ST/STM32_USB_Device_Library/Class/MSC/Src/usbd_msc_bot.c **** }
 357:Middlewares/ST/STM32_USB_Device_Library/Class/MSC/Src/usbd_msc_bot.c **** 
 358:Middlewares/ST/STM32_USB_Device_Library/Class/MSC/Src/usbd_msc_bot.c **** /**
 359:Middlewares/ST/STM32_USB_Device_Library/Class/MSC/Src/usbd_msc_bot.c ****   * @brief  MSC_BOT_Abort
 360:Middlewares/ST/STM32_USB_Device_Library/Class/MSC/Src/usbd_msc_bot.c ****   *         Abort the current transfer
 361:Middlewares/ST/STM32_USB_Device_Library/Class/MSC/Src/usbd_msc_bot.c ****   * @param  pdev: device instance
 362:Middlewares/ST/STM32_USB_Device_Library/Class/MSC/Src/usbd_msc_bot.c ****   * @retval status
 363:Middlewares/ST/STM32_USB_Device_Library/Class/MSC/Src/usbd_msc_bot.c ****   */
 364:Middlewares/ST/STM32_USB_Device_Library/Class/MSC/Src/usbd_msc_bot.c **** 
ARM GAS  C:\Users\Admin\AppData\Local\Temp\ccE6spAX.s 			page 9


 365:Middlewares/ST/STM32_USB_Device_Library/Class/MSC/Src/usbd_msc_bot.c **** static void  MSC_BOT_Abort(USBD_HandleTypeDef *pdev)
 366:Middlewares/ST/STM32_USB_Device_Library/Class/MSC/Src/usbd_msc_bot.c **** {
  96              		.loc 1 366 1 is_stmt 1 view -0
  97              		.cfi_startproc
  98              		@ args = 0, pretend = 0, frame = 0
  99              		@ frame_needed = 0, uses_anonymous_args = 0
 100              		.loc 1 366 1 is_stmt 0 view .LVU22
 101 0000 38B5     		push	{r3, r4, r5, lr}
 102              	.LCFI1:
 103              		.cfi_def_cfa_offset 16
 104              		.cfi_offset 3, -16
 105              		.cfi_offset 4, -12
 106              		.cfi_offset 5, -8
 107              		.cfi_offset 14, -4
 367:Middlewares/ST/STM32_USB_Device_Library/Class/MSC/Src/usbd_msc_bot.c ****   USBD_MSC_BOT_HandleTypeDef *hmsc = (USBD_MSC_BOT_HandleTypeDef *)pdev->pClassData;
 108              		.loc 1 367 3 is_stmt 1 view .LVU23
 109              		.loc 1 367 31 is_stmt 0 view .LVU24
 110 0002 D0F8BC52 		ldr	r5, [r0, #700]
 111              	.LVL7:
 368:Middlewares/ST/STM32_USB_Device_Library/Class/MSC/Src/usbd_msc_bot.c **** 
 369:Middlewares/ST/STM32_USB_Device_Library/Class/MSC/Src/usbd_msc_bot.c ****   if (hmsc == NULL)
 112              		.loc 1 369 3 is_stmt 1 view .LVU25
 113              		.loc 1 369 6 is_stmt 0 view .LVU26
 114 0006 7DB1     		cbz	r5, .L4
 115 0008 0446     		mov	r4, r0
 370:Middlewares/ST/STM32_USB_Device_Library/Class/MSC/Src/usbd_msc_bot.c ****   {
 371:Middlewares/ST/STM32_USB_Device_Library/Class/MSC/Src/usbd_msc_bot.c ****     return;
 372:Middlewares/ST/STM32_USB_Device_Library/Class/MSC/Src/usbd_msc_bot.c ****   }
 373:Middlewares/ST/STM32_USB_Device_Library/Class/MSC/Src/usbd_msc_bot.c **** 
 374:Middlewares/ST/STM32_USB_Device_Library/Class/MSC/Src/usbd_msc_bot.c ****   if ((hmsc->cbw.bmFlags == 0U) &&
 116              		.loc 1 374 3 is_stmt 1 view .LVU27
 117              		.loc 1 374 17 is_stmt 0 view .LVU28
 118 000a 95F81C32 		ldrb	r3, [r5, #540]	@ zero_extendqisi2
 119              		.loc 1 374 6 view .LVU29
 120 000e 23B9     		cbnz	r3, .L6
 375:Middlewares/ST/STM32_USB_Device_Library/Class/MSC/Src/usbd_msc_bot.c ****       (hmsc->cbw.dDataLength != 0U) &&
 121              		.loc 1 375 17 discriminator 1 view .LVU30
 122 0010 D5F81832 		ldr	r3, [r5, #536]
 374:Middlewares/ST/STM32_USB_Device_Library/Class/MSC/Src/usbd_msc_bot.c ****       (hmsc->cbw.dDataLength != 0U) &&
 123              		.loc 1 374 33 discriminator 1 view .LVU31
 124 0014 0BB1     		cbz	r3, .L6
 376:Middlewares/ST/STM32_USB_Device_Library/Class/MSC/Src/usbd_msc_bot.c ****       (hmsc->bot_status == USBD_BOT_STATUS_NORMAL))
 125              		.loc 1 376 12 view .LVU32
 126 0016 6B7A     		ldrb	r3, [r5, #9]	@ zero_extendqisi2
 375:Middlewares/ST/STM32_USB_Device_Library/Class/MSC/Src/usbd_msc_bot.c ****       (hmsc->cbw.dDataLength != 0U) &&
 127              		.loc 1 375 37 view .LVU33
 128 0018 3BB1     		cbz	r3, .L8
 129              	.LVL8:
 130              	.L6:
 377:Middlewares/ST/STM32_USB_Device_Library/Class/MSC/Src/usbd_msc_bot.c ****   {
 378:Middlewares/ST/STM32_USB_Device_Library/Class/MSC/Src/usbd_msc_bot.c ****     (void)USBD_LL_StallEP(pdev, MSC_EPOUT_ADDR);
 379:Middlewares/ST/STM32_USB_Device_Library/Class/MSC/Src/usbd_msc_bot.c ****   }
 380:Middlewares/ST/STM32_USB_Device_Library/Class/MSC/Src/usbd_msc_bot.c **** 
 381:Middlewares/ST/STM32_USB_Device_Library/Class/MSC/Src/usbd_msc_bot.c ****   (void)USBD_LL_StallEP(pdev, MSC_EPIN_ADDR);
 131              		.loc 1 381 3 is_stmt 1 view .LVU34
 132              		.loc 1 381 9 is_stmt 0 view .LVU35
 133 001a 8121     		movs	r1, #129
ARM GAS  C:\Users\Admin\AppData\Local\Temp\ccE6spAX.s 			page 10


 134 001c 2046     		mov	r0, r4
 135 001e FFF7FEFF 		bl	USBD_LL_StallEP
 136              	.LVL9:
 382:Middlewares/ST/STM32_USB_Device_Library/Class/MSC/Src/usbd_msc_bot.c **** 
 383:Middlewares/ST/STM32_USB_Device_Library/Class/MSC/Src/usbd_msc_bot.c ****   if (hmsc->bot_status == USBD_BOT_STATUS_ERROR)
 137              		.loc 1 383 3 is_stmt 1 view .LVU36
 138              		.loc 1 383 11 is_stmt 0 view .LVU37
 139 0022 6B7A     		ldrb	r3, [r5, #9]	@ zero_extendqisi2
 140              		.loc 1 383 6 view .LVU38
 141 0024 022B     		cmp	r3, #2
 142 0026 04D0     		beq	.L9
 143              	.LVL10:
 144              	.L4:
 384:Middlewares/ST/STM32_USB_Device_Library/Class/MSC/Src/usbd_msc_bot.c ****   {
 385:Middlewares/ST/STM32_USB_Device_Library/Class/MSC/Src/usbd_msc_bot.c ****     (void)USBD_LL_StallEP(pdev, MSC_EPIN_ADDR);
 386:Middlewares/ST/STM32_USB_Device_Library/Class/MSC/Src/usbd_msc_bot.c ****     (void)USBD_LL_StallEP(pdev, MSC_EPOUT_ADDR);
 387:Middlewares/ST/STM32_USB_Device_Library/Class/MSC/Src/usbd_msc_bot.c ****   }
 388:Middlewares/ST/STM32_USB_Device_Library/Class/MSC/Src/usbd_msc_bot.c **** }
 145              		.loc 1 388 1 view .LVU39
 146 0028 38BD     		pop	{r3, r4, r5, pc}
 147              	.LVL11:
 148              	.L8:
 378:Middlewares/ST/STM32_USB_Device_Library/Class/MSC/Src/usbd_msc_bot.c ****   }
 149              		.loc 1 378 5 is_stmt 1 view .LVU40
 378:Middlewares/ST/STM32_USB_Device_Library/Class/MSC/Src/usbd_msc_bot.c ****   }
 150              		.loc 1 378 11 is_stmt 0 view .LVU41
 151 002a 0121     		movs	r1, #1
 152 002c FFF7FEFF 		bl	USBD_LL_StallEP
 153              	.LVL12:
 378:Middlewares/ST/STM32_USB_Device_Library/Class/MSC/Src/usbd_msc_bot.c ****   }
 154              		.loc 1 378 11 view .LVU42
 155 0030 F3E7     		b	.L6
 156              	.L9:
 385:Middlewares/ST/STM32_USB_Device_Library/Class/MSC/Src/usbd_msc_bot.c ****     (void)USBD_LL_StallEP(pdev, MSC_EPOUT_ADDR);
 157              		.loc 1 385 5 is_stmt 1 view .LVU43
 385:Middlewares/ST/STM32_USB_Device_Library/Class/MSC/Src/usbd_msc_bot.c ****     (void)USBD_LL_StallEP(pdev, MSC_EPOUT_ADDR);
 158              		.loc 1 385 11 is_stmt 0 view .LVU44
 159 0032 8121     		movs	r1, #129
 160 0034 2046     		mov	r0, r4
 161 0036 FFF7FEFF 		bl	USBD_LL_StallEP
 162              	.LVL13:
 386:Middlewares/ST/STM32_USB_Device_Library/Class/MSC/Src/usbd_msc_bot.c ****   }
 163              		.loc 1 386 5 is_stmt 1 view .LVU45
 386:Middlewares/ST/STM32_USB_Device_Library/Class/MSC/Src/usbd_msc_bot.c ****   }
 164              		.loc 1 386 11 is_stmt 0 view .LVU46
 165 003a 0121     		movs	r1, #1
 166 003c 2046     		mov	r0, r4
 167 003e FFF7FEFF 		bl	USBD_LL_StallEP
 168              	.LVL14:
 169 0042 F1E7     		b	.L4
 170              		.cfi_endproc
 171              	.LFE144:
 173              		.section	.text.MSC_BOT_Init,"ax",%progbits
 174              		.align	1
 175              		.global	MSC_BOT_Init
 176              		.syntax unified
 177              		.thumb
ARM GAS  C:\Users\Admin\AppData\Local\Temp\ccE6spAX.s 			page 11


 178              		.thumb_func
 179              		.fpu fpv4-sp-d16
 181              	MSC_BOT_Init:
 182              	.LVL15:
 183              	.LFB136:
  99:Middlewares/ST/STM32_USB_Device_Library/Class/MSC/Src/usbd_msc_bot.c ****   USBD_MSC_BOT_HandleTypeDef *hmsc = (USBD_MSC_BOT_HandleTypeDef *)pdev->pClassData;
 184              		.loc 1 99 1 is_stmt 1 view -0
 185              		.cfi_startproc
 186              		@ args = 0, pretend = 0, frame = 0
 187              		@ frame_needed = 0, uses_anonymous_args = 0
  99:Middlewares/ST/STM32_USB_Device_Library/Class/MSC/Src/usbd_msc_bot.c ****   USBD_MSC_BOT_HandleTypeDef *hmsc = (USBD_MSC_BOT_HandleTypeDef *)pdev->pClassData;
 188              		.loc 1 99 1 is_stmt 0 view .LVU48
 189 0000 38B5     		push	{r3, r4, r5, lr}
 190              	.LCFI2:
 191              		.cfi_def_cfa_offset 16
 192              		.cfi_offset 3, -16
 193              		.cfi_offset 4, -12
 194              		.cfi_offset 5, -8
 195              		.cfi_offset 14, -4
 100:Middlewares/ST/STM32_USB_Device_Library/Class/MSC/Src/usbd_msc_bot.c **** 
 196              		.loc 1 100 3 is_stmt 1 view .LVU49
 100:Middlewares/ST/STM32_USB_Device_Library/Class/MSC/Src/usbd_msc_bot.c **** 
 197              		.loc 1 100 31 is_stmt 0 view .LVU50
 198 0002 D0F8BC52 		ldr	r5, [r0, #700]
 199              	.LVL16:
 102:Middlewares/ST/STM32_USB_Device_Library/Class/MSC/Src/usbd_msc_bot.c ****   {
 200              		.loc 1 102 3 is_stmt 1 view .LVU51
 102:Middlewares/ST/STM32_USB_Device_Library/Class/MSC/Src/usbd_msc_bot.c ****   {
 201              		.loc 1 102 6 is_stmt 0 view .LVU52
 202 0006 E5B1     		cbz	r5, .L10
 203 0008 0446     		mov	r4, r0
 107:Middlewares/ST/STM32_USB_Device_Library/Class/MSC/Src/usbd_msc_bot.c ****   hmsc->bot_status = USBD_BOT_STATUS_NORMAL;
 204              		.loc 1 107 3 is_stmt 1 view .LVU53
 107:Middlewares/ST/STM32_USB_Device_Library/Class/MSC/Src/usbd_msc_bot.c ****   hmsc->bot_status = USBD_BOT_STATUS_NORMAL;
 205              		.loc 1 107 19 is_stmt 0 view .LVU54
 206 000a 0020     		movs	r0, #0
 207              	.LVL17:
 107:Middlewares/ST/STM32_USB_Device_Library/Class/MSC/Src/usbd_msc_bot.c ****   hmsc->bot_status = USBD_BOT_STATUS_NORMAL;
 208              		.loc 1 107 19 view .LVU55
 209 000c 2872     		strb	r0, [r5, #8]
 108:Middlewares/ST/STM32_USB_Device_Library/Class/MSC/Src/usbd_msc_bot.c **** 
 210              		.loc 1 108 3 is_stmt 1 view .LVU56
 108:Middlewares/ST/STM32_USB_Device_Library/Class/MSC/Src/usbd_msc_bot.c **** 
 211              		.loc 1 108 20 is_stmt 0 view .LVU57
 212 000e 6872     		strb	r0, [r5, #9]
 110:Middlewares/ST/STM32_USB_Device_Library/Class/MSC/Src/usbd_msc_bot.c ****   hmsc->scsi_sense_head = 0U;
 213              		.loc 1 110 3 is_stmt 1 view .LVU58
 110:Middlewares/ST/STM32_USB_Device_Library/Class/MSC/Src/usbd_msc_bot.c ****   hmsc->scsi_sense_head = 0U;
 214              		.loc 1 110 25 is_stmt 0 view .LVU59
 215 0010 85F86102 		strb	r0, [r5, #609]
 111:Middlewares/ST/STM32_USB_Device_Library/Class/MSC/Src/usbd_msc_bot.c ****   hmsc->scsi_medium_state = SCSI_MEDIUM_UNLOCKED;
 216              		.loc 1 111 3 is_stmt 1 view .LVU60
 111:Middlewares/ST/STM32_USB_Device_Library/Class/MSC/Src/usbd_msc_bot.c ****   hmsc->scsi_medium_state = SCSI_MEDIUM_UNLOCKED;
 217              		.loc 1 111 25 is_stmt 0 view .LVU61
 218 0014 85F86002 		strb	r0, [r5, #608]
 112:Middlewares/ST/STM32_USB_Device_Library/Class/MSC/Src/usbd_msc_bot.c **** 
 219              		.loc 1 112 3 is_stmt 1 view .LVU62
ARM GAS  C:\Users\Admin\AppData\Local\Temp\ccE6spAX.s 			page 12


 112:Middlewares/ST/STM32_USB_Device_Library/Class/MSC/Src/usbd_msc_bot.c **** 
 220              		.loc 1 112 27 is_stmt 0 view .LVU63
 221 0018 85F86202 		strb	r0, [r5, #610]
 114:Middlewares/ST/STM32_USB_Device_Library/Class/MSC/Src/usbd_msc_bot.c **** 
 222              		.loc 1 114 3 is_stmt 1 view .LVU64
 114:Middlewares/ST/STM32_USB_Device_Library/Class/MSC/Src/usbd_msc_bot.c **** 
 223              		.loc 1 114 31 is_stmt 0 view .LVU65
 224 001c D4F8C032 		ldr	r3, [r4, #704]
 114:Middlewares/ST/STM32_USB_Device_Library/Class/MSC/Src/usbd_msc_bot.c **** 
 225              		.loc 1 114 43 view .LVU66
 226 0020 1B68     		ldr	r3, [r3]
 114:Middlewares/ST/STM32_USB_Device_Library/Class/MSC/Src/usbd_msc_bot.c **** 
 227              		.loc 1 114 4 view .LVU67
 228 0022 9847     		blx	r3
 229              	.LVL18:
 116:Middlewares/ST/STM32_USB_Device_Library/Class/MSC/Src/usbd_msc_bot.c ****   (void)USBD_LL_FlushEP(pdev, MSC_EPIN_ADDR);
 230              		.loc 1 116 3 is_stmt 1 view .LVU68
 116:Middlewares/ST/STM32_USB_Device_Library/Class/MSC/Src/usbd_msc_bot.c ****   (void)USBD_LL_FlushEP(pdev, MSC_EPIN_ADDR);
 231              		.loc 1 116 9 is_stmt 0 view .LVU69
 232 0024 0121     		movs	r1, #1
 233 0026 2046     		mov	r0, r4
 234 0028 FFF7FEFF 		bl	USBD_LL_FlushEP
 235              	.LVL19:
 117:Middlewares/ST/STM32_USB_Device_Library/Class/MSC/Src/usbd_msc_bot.c **** 
 236              		.loc 1 117 3 is_stmt 1 view .LVU70
 117:Middlewares/ST/STM32_USB_Device_Library/Class/MSC/Src/usbd_msc_bot.c **** 
 237              		.loc 1 117 9 is_stmt 0 view .LVU71
 238 002c 8121     		movs	r1, #129
 239 002e 2046     		mov	r0, r4
 240 0030 FFF7FEFF 		bl	USBD_LL_FlushEP
 241              	.LVL20:
 120:Middlewares/ST/STM32_USB_Device_Library/Class/MSC/Src/usbd_msc_bot.c ****                                USBD_BOT_CBW_LENGTH);
 242              		.loc 1 120 3 is_stmt 1 view .LVU72
 120:Middlewares/ST/STM32_USB_Device_Library/Class/MSC/Src/usbd_msc_bot.c ****                                USBD_BOT_CBW_LENGTH);
 243              		.loc 1 120 9 is_stmt 0 view .LVU73
 244 0034 1F23     		movs	r3, #31
 245 0036 05F50472 		add	r2, r5, #528
 246 003a 0121     		movs	r1, #1
 247 003c 2046     		mov	r0, r4
 248 003e FFF7FEFF 		bl	USBD_LL_PrepareReceive
 249              	.LVL21:
 250              	.L10:
 122:Middlewares/ST/STM32_USB_Device_Library/Class/MSC/Src/usbd_msc_bot.c **** 
 251              		.loc 1 122 1 view .LVU74
 252 0042 38BD     		pop	{r3, r4, r5, pc}
 122:Middlewares/ST/STM32_USB_Device_Library/Class/MSC/Src/usbd_msc_bot.c **** 
 253              		.loc 1 122 1 view .LVU75
 254              		.cfi_endproc
 255              	.LFE136:
 257              		.section	.text.MSC_BOT_Reset,"ax",%progbits
 258              		.align	1
 259              		.global	MSC_BOT_Reset
 260              		.syntax unified
 261              		.thumb
 262              		.thumb_func
 263              		.fpu fpv4-sp-d16
 265              	MSC_BOT_Reset:
ARM GAS  C:\Users\Admin\AppData\Local\Temp\ccE6spAX.s 			page 13


 266              	.LVL22:
 267              	.LFB137:
 131:Middlewares/ST/STM32_USB_Device_Library/Class/MSC/Src/usbd_msc_bot.c ****   USBD_MSC_BOT_HandleTypeDef *hmsc = (USBD_MSC_BOT_HandleTypeDef *)pdev->pClassData;
 268              		.loc 1 131 1 is_stmt 1 view -0
 269              		.cfi_startproc
 270              		@ args = 0, pretend = 0, frame = 0
 271              		@ frame_needed = 0, uses_anonymous_args = 0
 131:Middlewares/ST/STM32_USB_Device_Library/Class/MSC/Src/usbd_msc_bot.c ****   USBD_MSC_BOT_HandleTypeDef *hmsc = (USBD_MSC_BOT_HandleTypeDef *)pdev->pClassData;
 272              		.loc 1 131 1 is_stmt 0 view .LVU77
 273 0000 70B5     		push	{r4, r5, r6, lr}
 274              	.LCFI3:
 275              		.cfi_def_cfa_offset 16
 276              		.cfi_offset 4, -16
 277              		.cfi_offset 5, -12
 278              		.cfi_offset 6, -8
 279              		.cfi_offset 14, -4
 132:Middlewares/ST/STM32_USB_Device_Library/Class/MSC/Src/usbd_msc_bot.c **** 
 280              		.loc 1 132 3 is_stmt 1 view .LVU78
 132:Middlewares/ST/STM32_USB_Device_Library/Class/MSC/Src/usbd_msc_bot.c **** 
 281              		.loc 1 132 31 is_stmt 0 view .LVU79
 282 0002 D0F8BC52 		ldr	r5, [r0, #700]
 283              	.LVL23:
 134:Middlewares/ST/STM32_USB_Device_Library/Class/MSC/Src/usbd_msc_bot.c ****   {
 284              		.loc 1 134 3 is_stmt 1 view .LVU80
 134:Middlewares/ST/STM32_USB_Device_Library/Class/MSC/Src/usbd_msc_bot.c ****   {
 285              		.loc 1 134 6 is_stmt 0 view .LVU81
 286 0006 95B1     		cbz	r5, .L13
 287 0008 0446     		mov	r4, r0
 139:Middlewares/ST/STM32_USB_Device_Library/Class/MSC/Src/usbd_msc_bot.c ****   hmsc->bot_status = USBD_BOT_STATUS_RECOVERY;
 288              		.loc 1 139 3 is_stmt 1 view .LVU82
 139:Middlewares/ST/STM32_USB_Device_Library/Class/MSC/Src/usbd_msc_bot.c ****   hmsc->bot_status = USBD_BOT_STATUS_RECOVERY;
 289              		.loc 1 139 20 is_stmt 0 view .LVU83
 290 000a 0023     		movs	r3, #0
 291 000c 2B72     		strb	r3, [r5, #8]
 140:Middlewares/ST/STM32_USB_Device_Library/Class/MSC/Src/usbd_msc_bot.c **** 
 292              		.loc 1 140 3 is_stmt 1 view .LVU84
 140:Middlewares/ST/STM32_USB_Device_Library/Class/MSC/Src/usbd_msc_bot.c **** 
 293              		.loc 1 140 20 is_stmt 0 view .LVU85
 294 000e 0126     		movs	r6, #1
 295 0010 6E72     		strb	r6, [r5, #9]
 142:Middlewares/ST/STM32_USB_Device_Library/Class/MSC/Src/usbd_msc_bot.c ****   (void)USBD_LL_ClearStallEP(pdev, MSC_EPOUT_ADDR);
 296              		.loc 1 142 3 is_stmt 1 view .LVU86
 142:Middlewares/ST/STM32_USB_Device_Library/Class/MSC/Src/usbd_msc_bot.c ****   (void)USBD_LL_ClearStallEP(pdev, MSC_EPOUT_ADDR);
 297              		.loc 1 142 9 is_stmt 0 view .LVU87
 298 0012 8121     		movs	r1, #129
 299 0014 FFF7FEFF 		bl	USBD_LL_ClearStallEP
 300              	.LVL24:
 143:Middlewares/ST/STM32_USB_Device_Library/Class/MSC/Src/usbd_msc_bot.c **** 
 301              		.loc 1 143 3 is_stmt 1 view .LVU88
 143:Middlewares/ST/STM32_USB_Device_Library/Class/MSC/Src/usbd_msc_bot.c **** 
 302              		.loc 1 143 9 is_stmt 0 view .LVU89
 303 0018 3146     		mov	r1, r6
 304 001a 2046     		mov	r0, r4
 305 001c FFF7FEFF 		bl	USBD_LL_ClearStallEP
 306              	.LVL25:
 146:Middlewares/ST/STM32_USB_Device_Library/Class/MSC/Src/usbd_msc_bot.c ****                                USBD_BOT_CBW_LENGTH);
 307              		.loc 1 146 3 is_stmt 1 view .LVU90
ARM GAS  C:\Users\Admin\AppData\Local\Temp\ccE6spAX.s 			page 14


 146:Middlewares/ST/STM32_USB_Device_Library/Class/MSC/Src/usbd_msc_bot.c ****                                USBD_BOT_CBW_LENGTH);
 308              		.loc 1 146 9 is_stmt 0 view .LVU91
 309 0020 1F23     		movs	r3, #31
 310 0022 05F50472 		add	r2, r5, #528
 311 0026 3146     		mov	r1, r6
 312 0028 2046     		mov	r0, r4
 313 002a FFF7FEFF 		bl	USBD_LL_PrepareReceive
 314              	.LVL26:
 315              	.L13:
 148:Middlewares/ST/STM32_USB_Device_Library/Class/MSC/Src/usbd_msc_bot.c **** 
 316              		.loc 1 148 1 view .LVU92
 317 002e 70BD     		pop	{r4, r5, r6, pc}
 148:Middlewares/ST/STM32_USB_Device_Library/Class/MSC/Src/usbd_msc_bot.c **** 
 318              		.loc 1 148 1 view .LVU93
 319              		.cfi_endproc
 320              	.LFE137:
 322              		.section	.text.MSC_BOT_DeInit,"ax",%progbits
 323              		.align	1
 324              		.global	MSC_BOT_DeInit
 325              		.syntax unified
 326              		.thumb
 327              		.thumb_func
 328              		.fpu fpv4-sp-d16
 330              	MSC_BOT_DeInit:
 331              	.LVL27:
 332              	.LFB138:
 157:Middlewares/ST/STM32_USB_Device_Library/Class/MSC/Src/usbd_msc_bot.c ****   USBD_MSC_BOT_HandleTypeDef *hmsc = (USBD_MSC_BOT_HandleTypeDef *)pdev->pClassData;
 333              		.loc 1 157 1 is_stmt 1 view -0
 334              		.cfi_startproc
 335              		@ args = 0, pretend = 0, frame = 0
 336              		@ frame_needed = 0, uses_anonymous_args = 0
 337              		@ link register save eliminated.
 158:Middlewares/ST/STM32_USB_Device_Library/Class/MSC/Src/usbd_msc_bot.c **** 
 338              		.loc 1 158 3 view .LVU95
 158:Middlewares/ST/STM32_USB_Device_Library/Class/MSC/Src/usbd_msc_bot.c **** 
 339              		.loc 1 158 31 is_stmt 0 view .LVU96
 340 0000 D0F8BC32 		ldr	r3, [r0, #700]
 341              	.LVL28:
 160:Middlewares/ST/STM32_USB_Device_Library/Class/MSC/Src/usbd_msc_bot.c ****   {
 342              		.loc 1 160 3 is_stmt 1 view .LVU97
 160:Middlewares/ST/STM32_USB_Device_Library/Class/MSC/Src/usbd_msc_bot.c ****   {
 343              		.loc 1 160 6 is_stmt 0 view .LVU98
 344 0004 0BB1     		cbz	r3, .L16
 162:Middlewares/ST/STM32_USB_Device_Library/Class/MSC/Src/usbd_msc_bot.c ****   }
 345              		.loc 1 162 5 is_stmt 1 view .LVU99
 162:Middlewares/ST/STM32_USB_Device_Library/Class/MSC/Src/usbd_msc_bot.c ****   }
 346              		.loc 1 162 21 is_stmt 0 view .LVU100
 347 0006 0022     		movs	r2, #0
 348 0008 1A72     		strb	r2, [r3, #8]
 349              	.L16:
 164:Middlewares/ST/STM32_USB_Device_Library/Class/MSC/Src/usbd_msc_bot.c **** 
 350              		.loc 1 164 1 view .LVU101
 351 000a 7047     		bx	lr
 352              		.cfi_endproc
 353              	.LFE138:
 355              		.section	.text.MSC_BOT_SendCSW,"ax",%progbits
 356              		.align	1
ARM GAS  C:\Users\Admin\AppData\Local\Temp\ccE6spAX.s 			page 15


 357              		.global	MSC_BOT_SendCSW
 358              		.syntax unified
 359              		.thumb
 360              		.thumb_func
 361              		.fpu fpv4-sp-d16
 363              	MSC_BOT_SendCSW:
 364              	.LVL29:
 365              	.LFB143:
 338:Middlewares/ST/STM32_USB_Device_Library/Class/MSC/Src/usbd_msc_bot.c ****   USBD_MSC_BOT_HandleTypeDef *hmsc = (USBD_MSC_BOT_HandleTypeDef *)pdev->pClassData;
 366              		.loc 1 338 1 is_stmt 1 view -0
 367              		.cfi_startproc
 368              		@ args = 0, pretend = 0, frame = 0
 369              		@ frame_needed = 0, uses_anonymous_args = 0
 338:Middlewares/ST/STM32_USB_Device_Library/Class/MSC/Src/usbd_msc_bot.c ****   USBD_MSC_BOT_HandleTypeDef *hmsc = (USBD_MSC_BOT_HandleTypeDef *)pdev->pClassData;
 370              		.loc 1 338 1 is_stmt 0 view .LVU103
 371 0000 38B5     		push	{r3, r4, r5, lr}
 372              	.LCFI4:
 373              		.cfi_def_cfa_offset 16
 374              		.cfi_offset 3, -16
 375              		.cfi_offset 4, -12
 376              		.cfi_offset 5, -8
 377              		.cfi_offset 14, -4
 339:Middlewares/ST/STM32_USB_Device_Library/Class/MSC/Src/usbd_msc_bot.c **** 
 378              		.loc 1 339 3 is_stmt 1 view .LVU104
 339:Middlewares/ST/STM32_USB_Device_Library/Class/MSC/Src/usbd_msc_bot.c **** 
 379              		.loc 1 339 31 is_stmt 0 view .LVU105
 380 0002 D0F8BC42 		ldr	r4, [r0, #700]
 381              	.LVL30:
 341:Middlewares/ST/STM32_USB_Device_Library/Class/MSC/Src/usbd_msc_bot.c ****   {
 382              		.loc 1 341 3 is_stmt 1 view .LVU106
 341:Middlewares/ST/STM32_USB_Device_Library/Class/MSC/Src/usbd_msc_bot.c ****   {
 383              		.loc 1 341 6 is_stmt 0 view .LVU107
 384 0006 A4B1     		cbz	r4, .L18
 385 0008 0546     		mov	r5, r0
 346:Middlewares/ST/STM32_USB_Device_Library/Class/MSC/Src/usbd_msc_bot.c ****   hmsc->csw.bStatus = CSW_Status;
 386              		.loc 1 346 3 is_stmt 1 view .LVU108
 346:Middlewares/ST/STM32_USB_Device_Library/Class/MSC/Src/usbd_msc_bot.c ****   hmsc->csw.bStatus = CSW_Status;
 387              		.loc 1 346 24 is_stmt 0 view .LVU109
 388 000a 0A4B     		ldr	r3, .L21
 389 000c C4F83032 		str	r3, [r4, #560]
 347:Middlewares/ST/STM32_USB_Device_Library/Class/MSC/Src/usbd_msc_bot.c ****   hmsc->bot_state = USBD_BOT_IDLE;
 390              		.loc 1 347 3 is_stmt 1 view .LVU110
 347:Middlewares/ST/STM32_USB_Device_Library/Class/MSC/Src/usbd_msc_bot.c ****   hmsc->bot_state = USBD_BOT_IDLE;
 391              		.loc 1 347 21 is_stmt 0 view .LVU111
 392 0010 84F83C12 		strb	r1, [r4, #572]
 348:Middlewares/ST/STM32_USB_Device_Library/Class/MSC/Src/usbd_msc_bot.c **** 
 393              		.loc 1 348 3 is_stmt 1 view .LVU112
 348:Middlewares/ST/STM32_USB_Device_Library/Class/MSC/Src/usbd_msc_bot.c **** 
 394              		.loc 1 348 19 is_stmt 0 view .LVU113
 395 0014 0023     		movs	r3, #0
 396 0016 2372     		strb	r3, [r4, #8]
 350:Middlewares/ST/STM32_USB_Device_Library/Class/MSC/Src/usbd_msc_bot.c ****                          USBD_BOT_CSW_LENGTH);
 397              		.loc 1 350 3 is_stmt 1 view .LVU114
 350:Middlewares/ST/STM32_USB_Device_Library/Class/MSC/Src/usbd_msc_bot.c ****                          USBD_BOT_CSW_LENGTH);
 398              		.loc 1 350 9 is_stmt 0 view .LVU115
 399 0018 0D23     		movs	r3, #13
 400 001a 04F50C72 		add	r2, r4, #560
ARM GAS  C:\Users\Admin\AppData\Local\Temp\ccE6spAX.s 			page 16


 401 001e 8121     		movs	r1, #129
 402              	.LVL31:
 350:Middlewares/ST/STM32_USB_Device_Library/Class/MSC/Src/usbd_msc_bot.c ****                          USBD_BOT_CSW_LENGTH);
 403              		.loc 1 350 9 view .LVU116
 404 0020 FFF7FEFF 		bl	USBD_LL_Transmit
 405              	.LVL32:
 354:Middlewares/ST/STM32_USB_Device_Library/Class/MSC/Src/usbd_msc_bot.c ****                                USBD_BOT_CBW_LENGTH);
 406              		.loc 1 354 3 is_stmt 1 view .LVU117
 354:Middlewares/ST/STM32_USB_Device_Library/Class/MSC/Src/usbd_msc_bot.c ****                                USBD_BOT_CBW_LENGTH);
 407              		.loc 1 354 9 is_stmt 0 view .LVU118
 408 0024 1F23     		movs	r3, #31
 409 0026 04F50472 		add	r2, r4, #528
 410 002a 0121     		movs	r1, #1
 411 002c 2846     		mov	r0, r5
 412 002e FFF7FEFF 		bl	USBD_LL_PrepareReceive
 413              	.LVL33:
 414              	.L18:
 356:Middlewares/ST/STM32_USB_Device_Library/Class/MSC/Src/usbd_msc_bot.c **** 
 415              		.loc 1 356 1 view .LVU119
 416 0032 38BD     		pop	{r3, r4, r5, pc}
 417              	.LVL34:
 418              	.L22:
 356:Middlewares/ST/STM32_USB_Device_Library/Class/MSC/Src/usbd_msc_bot.c **** 
 419              		.loc 1 356 1 view .LVU120
 420              		.align	2
 421              	.L21:
 422 0034 55534253 		.word	1396855637
 423              		.cfi_endproc
 424              	.LFE143:
 426              		.section	.text.MSC_BOT_DataIn,"ax",%progbits
 427              		.align	1
 428              		.global	MSC_BOT_DataIn
 429              		.syntax unified
 430              		.thumb
 431              		.thumb_func
 432              		.fpu fpv4-sp-d16
 434              	MSC_BOT_DataIn:
 435              	.LVL35:
 436              	.LFB139:
 174:Middlewares/ST/STM32_USB_Device_Library/Class/MSC/Src/usbd_msc_bot.c ****   UNUSED(epnum);
 437              		.loc 1 174 1 is_stmt 1 view -0
 438              		.cfi_startproc
 439              		@ args = 0, pretend = 0, frame = 0
 440              		@ frame_needed = 0, uses_anonymous_args = 0
 175:Middlewares/ST/STM32_USB_Device_Library/Class/MSC/Src/usbd_msc_bot.c **** 
 441              		.loc 1 175 3 view .LVU122
 177:Middlewares/ST/STM32_USB_Device_Library/Class/MSC/Src/usbd_msc_bot.c **** 
 442              		.loc 1 177 3 view .LVU123
 177:Middlewares/ST/STM32_USB_Device_Library/Class/MSC/Src/usbd_msc_bot.c **** 
 443              		.loc 1 177 31 is_stmt 0 view .LVU124
 444 0000 D0F8BC12 		ldr	r1, [r0, #700]
 445              	.LVL36:
 179:Middlewares/ST/STM32_USB_Device_Library/Class/MSC/Src/usbd_msc_bot.c ****   {
 446              		.loc 1 179 3 is_stmt 1 view .LVU125
 179:Middlewares/ST/STM32_USB_Device_Library/Class/MSC/Src/usbd_msc_bot.c ****   {
 447              		.loc 1 179 6 is_stmt 0 view .LVU126
 448 0004 D1B1     		cbz	r1, .L29
ARM GAS  C:\Users\Admin\AppData\Local\Temp\ccE6spAX.s 			page 17


 174:Middlewares/ST/STM32_USB_Device_Library/Class/MSC/Src/usbd_msc_bot.c ****   UNUSED(epnum);
 449              		.loc 1 174 1 view .LVU127
 450 0006 10B5     		push	{r4, lr}
 451              	.LCFI5:
 452              		.cfi_def_cfa_offset 8
 453              		.cfi_offset 4, -8
 454              		.cfi_offset 14, -4
 455 0008 0446     		mov	r4, r0
 184:Middlewares/ST/STM32_USB_Device_Library/Class/MSC/Src/usbd_msc_bot.c ****   {
 456              		.loc 1 184 3 is_stmt 1 view .LVU128
 184:Middlewares/ST/STM32_USB_Device_Library/Class/MSC/Src/usbd_msc_bot.c ****   {
 457              		.loc 1 184 15 is_stmt 0 view .LVU129
 458 000a 0B7A     		ldrb	r3, [r1, #8]	@ zero_extendqisi2
 184:Middlewares/ST/STM32_USB_Device_Library/Class/MSC/Src/usbd_msc_bot.c ****   {
 459              		.loc 1 184 3 view .LVU130
 460 000c 022B     		cmp	r3, #2
 461 000e 08D0     		beq	.L25
 462 0010 06D3     		bcc	.L23
 463 0012 033B     		subs	r3, r3, #3
 464 0014 DBB2     		uxtb	r3, r3
 465 0016 012B     		cmp	r3, #1
 466 0018 02D8     		bhi	.L23
 195:Middlewares/ST/STM32_USB_Device_Library/Class/MSC/Src/usbd_msc_bot.c ****       break;
 467              		.loc 1 195 7 is_stmt 1 view .LVU131
 468 001a 0021     		movs	r1, #0
 469              	.LVL37:
 195:Middlewares/ST/STM32_USB_Device_Library/Class/MSC/Src/usbd_msc_bot.c ****       break;
 470              		.loc 1 195 7 is_stmt 0 view .LVU132
 471 001c FFF7FEFF 		bl	MSC_BOT_SendCSW
 472              	.LVL38:
 196:Middlewares/ST/STM32_USB_Device_Library/Class/MSC/Src/usbd_msc_bot.c **** 
 473              		.loc 1 196 7 is_stmt 1 view .LVU133
 474              	.L23:
 201:Middlewares/ST/STM32_USB_Device_Library/Class/MSC/Src/usbd_msc_bot.c **** /**
 475              		.loc 1 201 1 is_stmt 0 view .LVU134
 476 0020 10BD     		pop	{r4, pc}
 477              	.LVL39:
 478              	.L25:
 187:Middlewares/ST/STM32_USB_Device_Library/Class/MSC/Src/usbd_msc_bot.c ****       {
 479              		.loc 1 187 7 is_stmt 1 view .LVU135
 187:Middlewares/ST/STM32_USB_Device_Library/Class/MSC/Src/usbd_msc_bot.c ****       {
 480              		.loc 1 187 11 is_stmt 0 view .LVU136
 481 0022 01F21F22 		addw	r2, r1, #543
 482 0026 91F81D12 		ldrb	r1, [r1, #541]	@ zero_extendqisi2
 483              	.LVL40:
 187:Middlewares/ST/STM32_USB_Device_Library/Class/MSC/Src/usbd_msc_bot.c ****       {
 484              		.loc 1 187 11 view .LVU137
 485 002a FFF7FEFF 		bl	SCSI_ProcessCmd
 486              	.LVL41:
 187:Middlewares/ST/STM32_USB_Device_Library/Class/MSC/Src/usbd_msc_bot.c ****       {
 487              		.loc 1 187 10 view .LVU138
 488 002e 0028     		cmp	r0, #0
 489 0030 F6DA     		bge	.L23
 189:Middlewares/ST/STM32_USB_Device_Library/Class/MSC/Src/usbd_msc_bot.c ****       }
 490              		.loc 1 189 9 is_stmt 1 view .LVU139
 491 0032 0121     		movs	r1, #1
 492 0034 2046     		mov	r0, r4
ARM GAS  C:\Users\Admin\AppData\Local\Temp\ccE6spAX.s 			page 18


 493 0036 FFF7FEFF 		bl	MSC_BOT_SendCSW
 494              	.LVL42:
 495 003a F1E7     		b	.L23
 496              	.LVL43:
 497              	.L29:
 498              	.LCFI6:
 499              		.cfi_def_cfa_offset 0
 500              		.cfi_restore 4
 501              		.cfi_restore 14
 189:Middlewares/ST/STM32_USB_Device_Library/Class/MSC/Src/usbd_msc_bot.c ****       }
 502              		.loc 1 189 9 is_stmt 0 view .LVU140
 503 003c 7047     		bx	lr
 504              		.cfi_endproc
 505              	.LFE139:
 507              		.section	.text.MSC_BOT_CBW_Decode,"ax",%progbits
 508              		.align	1
 509              		.syntax unified
 510              		.thumb
 511              		.thumb_func
 512              		.fpu fpv4-sp-d16
 514              	MSC_BOT_CBW_Decode:
 515              	.LVL44:
 516              	.LFB141:
 245:Middlewares/ST/STM32_USB_Device_Library/Class/MSC/Src/usbd_msc_bot.c ****   USBD_MSC_BOT_HandleTypeDef *hmsc = (USBD_MSC_BOT_HandleTypeDef *)pdev->pClassData;
 517              		.loc 1 245 1 is_stmt 1 view -0
 518              		.cfi_startproc
 519              		@ args = 0, pretend = 0, frame = 0
 520              		@ frame_needed = 0, uses_anonymous_args = 0
 245:Middlewares/ST/STM32_USB_Device_Library/Class/MSC/Src/usbd_msc_bot.c ****   USBD_MSC_BOT_HandleTypeDef *hmsc = (USBD_MSC_BOT_HandleTypeDef *)pdev->pClassData;
 521              		.loc 1 245 1 is_stmt 0 view .LVU142
 522 0000 38B5     		push	{r3, r4, r5, lr}
 523              	.LCFI7:
 524              		.cfi_def_cfa_offset 16
 525              		.cfi_offset 3, -16
 526              		.cfi_offset 4, -12
 527              		.cfi_offset 5, -8
 528              		.cfi_offset 14, -4
 246:Middlewares/ST/STM32_USB_Device_Library/Class/MSC/Src/usbd_msc_bot.c **** 
 529              		.loc 1 246 3 is_stmt 1 view .LVU143
 246:Middlewares/ST/STM32_USB_Device_Library/Class/MSC/Src/usbd_msc_bot.c **** 
 530              		.loc 1 246 31 is_stmt 0 view .LVU144
 531 0002 D0F8BC42 		ldr	r4, [r0, #700]
 532              	.LVL45:
 248:Middlewares/ST/STM32_USB_Device_Library/Class/MSC/Src/usbd_msc_bot.c ****   {
 533              		.loc 1 248 3 is_stmt 1 view .LVU145
 248:Middlewares/ST/STM32_USB_Device_Library/Class/MSC/Src/usbd_msc_bot.c ****   {
 534              		.loc 1 248 6 is_stmt 0 view .LVU146
 535 0006 F4B1     		cbz	r4, .L32
 536 0008 0546     		mov	r5, r0
 253:Middlewares/ST/STM32_USB_Device_Library/Class/MSC/Src/usbd_msc_bot.c ****   hmsc->csw.dDataResidue = hmsc->cbw.dDataLength;
 537              		.loc 1 253 3 is_stmt 1 view .LVU147
 253:Middlewares/ST/STM32_USB_Device_Library/Class/MSC/Src/usbd_msc_bot.c ****   hmsc->csw.dDataResidue = hmsc->cbw.dDataLength;
 538              		.loc 1 253 29 is_stmt 0 view .LVU148
 539 000a D4F81432 		ldr	r3, [r4, #532]
 253:Middlewares/ST/STM32_USB_Device_Library/Class/MSC/Src/usbd_msc_bot.c ****   hmsc->csw.dDataResidue = hmsc->cbw.dDataLength;
 540              		.loc 1 253 18 view .LVU149
 541 000e C4F83432 		str	r3, [r4, #564]
ARM GAS  C:\Users\Admin\AppData\Local\Temp\ccE6spAX.s 			page 19


 254:Middlewares/ST/STM32_USB_Device_Library/Class/MSC/Src/usbd_msc_bot.c **** 
 542              		.loc 1 254 3 is_stmt 1 view .LVU150
 254:Middlewares/ST/STM32_USB_Device_Library/Class/MSC/Src/usbd_msc_bot.c **** 
 543              		.loc 1 254 37 is_stmt 0 view .LVU151
 544 0012 D4F81832 		ldr	r3, [r4, #536]
 254:Middlewares/ST/STM32_USB_Device_Library/Class/MSC/Src/usbd_msc_bot.c **** 
 545              		.loc 1 254 26 view .LVU152
 546 0016 C4F83832 		str	r3, [r4, #568]
 256:Middlewares/ST/STM32_USB_Device_Library/Class/MSC/Src/usbd_msc_bot.c ****       (hmsc->cbw.dSignature != USBD_BOT_CBW_SIGNATURE) ||
 547              		.loc 1 256 3 is_stmt 1 view .LVU153
 256:Middlewares/ST/STM32_USB_Device_Library/Class/MSC/Src/usbd_msc_bot.c ****       (hmsc->cbw.dSignature != USBD_BOT_CBW_SIGNATURE) ||
 548              		.loc 1 256 8 is_stmt 0 view .LVU154
 549 001a 0121     		movs	r1, #1
 550 001c FFF7FEFF 		bl	USBD_LL_GetRxDataSize
 551              	.LVL46:
 256:Middlewares/ST/STM32_USB_Device_Library/Class/MSC/Src/usbd_msc_bot.c ****       (hmsc->cbw.dSignature != USBD_BOT_CBW_SIGNATURE) ||
 552              		.loc 1 256 6 view .LVU155
 553 0020 1F28     		cmp	r0, #31
 554 0022 04D1     		bne	.L34
 257:Middlewares/ST/STM32_USB_Device_Library/Class/MSC/Src/usbd_msc_bot.c ****       (hmsc->cbw.bLUN > 1U) || (hmsc->cbw.bCBLength < 1U) ||
 555              		.loc 1 257 17 discriminator 1 view .LVU156
 556 0024 D4F81022 		ldr	r2, [r4, #528]
 256:Middlewares/ST/STM32_USB_Device_Library/Class/MSC/Src/usbd_msc_bot.c ****       (hmsc->cbw.dSignature != USBD_BOT_CBW_SIGNATURE) ||
 557              		.loc 1 256 76 discriminator 1 view .LVU157
 558 0028 1F4B     		ldr	r3, .L43
 559 002a 9A42     		cmp	r2, r3
 560 002c 0CD0     		beq	.L40
 561              	.L34:
 261:Middlewares/ST/STM32_USB_Device_Library/Class/MSC/Src/usbd_msc_bot.c **** 
 562              		.loc 1 261 5 is_stmt 1 view .LVU158
 563 002e 2023     		movs	r3, #32
 564 0030 0522     		movs	r2, #5
 565 0032 94F81D12 		ldrb	r1, [r4, #541]	@ zero_extendqisi2
 566 0036 2846     		mov	r0, r5
 567 0038 FFF7FEFF 		bl	SCSI_SenseCode
 568              	.LVL47:
 263:Middlewares/ST/STM32_USB_Device_Library/Class/MSC/Src/usbd_msc_bot.c ****     MSC_BOT_Abort(pdev);
 569              		.loc 1 263 5 view .LVU159
 263:Middlewares/ST/STM32_USB_Device_Library/Class/MSC/Src/usbd_msc_bot.c ****     MSC_BOT_Abort(pdev);
 570              		.loc 1 263 22 is_stmt 0 view .LVU160
 571 003c 0223     		movs	r3, #2
 572 003e 6372     		strb	r3, [r4, #9]
 264:Middlewares/ST/STM32_USB_Device_Library/Class/MSC/Src/usbd_msc_bot.c ****   }
 573              		.loc 1 264 5 is_stmt 1 view .LVU161
 574 0040 2846     		mov	r0, r5
 575 0042 FFF7FEFF 		bl	MSC_BOT_Abort
 576              	.LVL48:
 577              	.L32:
 302:Middlewares/ST/STM32_USB_Device_Library/Class/MSC/Src/usbd_msc_bot.c **** 
 578              		.loc 1 302 1 is_stmt 0 view .LVU162
 579 0046 38BD     		pop	{r3, r4, r5, pc}
 580              	.LVL49:
 581              	.L40:
 258:Middlewares/ST/STM32_USB_Device_Library/Class/MSC/Src/usbd_msc_bot.c ****       (hmsc->cbw.bCBLength > 16U))
 582              		.loc 1 258 17 view .LVU163
 583 0048 94F81D12 		ldrb	r1, [r4, #541]	@ zero_extendqisi2
 257:Middlewares/ST/STM32_USB_Device_Library/Class/MSC/Src/usbd_msc_bot.c ****       (hmsc->cbw.bLUN > 1U) || (hmsc->cbw.bCBLength < 1U) ||
ARM GAS  C:\Users\Admin\AppData\Local\Temp\ccE6spAX.s 			page 20


 584              		.loc 1 257 56 view .LVU164
 585 004c 0129     		cmp	r1, #1
 586 004e EED8     		bhi	.L34
 258:Middlewares/ST/STM32_USB_Device_Library/Class/MSC/Src/usbd_msc_bot.c ****       (hmsc->cbw.bCBLength > 16U))
 587              		.loc 1 258 42 view .LVU165
 588 0050 94F81E32 		ldrb	r3, [r4, #542]	@ zero_extendqisi2
 258:Middlewares/ST/STM32_USB_Device_Library/Class/MSC/Src/usbd_msc_bot.c ****       (hmsc->cbw.bCBLength > 16U))
 589              		.loc 1 258 29 view .LVU166
 590 0054 002B     		cmp	r3, #0
 591 0056 EAD0     		beq	.L34
 258:Middlewares/ST/STM32_USB_Device_Library/Class/MSC/Src/usbd_msc_bot.c ****       (hmsc->cbw.bCBLength > 16U))
 592              		.loc 1 258 59 discriminator 1 view .LVU167
 593 0058 102B     		cmp	r3, #16
 594 005a E8D8     		bhi	.L34
 268:Middlewares/ST/STM32_USB_Device_Library/Class/MSC/Src/usbd_msc_bot.c ****     {
 595              		.loc 1 268 5 is_stmt 1 view .LVU168
 268:Middlewares/ST/STM32_USB_Device_Library/Class/MSC/Src/usbd_msc_bot.c ****     {
 596              		.loc 1 268 9 is_stmt 0 view .LVU169
 597 005c 04F21F22 		addw	r2, r4, #543
 598 0060 2846     		mov	r0, r5
 599 0062 FFF7FEFF 		bl	SCSI_ProcessCmd
 600              	.LVL50:
 268:Middlewares/ST/STM32_USB_Device_Library/Class/MSC/Src/usbd_msc_bot.c ****     {
 601              		.loc 1 268 8 view .LVU170
 602 0066 0028     		cmp	r0, #0
 603 0068 0CDB     		blt	.L41
 280:Middlewares/ST/STM32_USB_Device_Library/Class/MSC/Src/usbd_msc_bot.c ****              (hmsc->bot_state != USBD_BOT_DATA_OUT) &&
 604              		.loc 1 280 10 is_stmt 1 view .LVU171
 280:Middlewares/ST/STM32_USB_Device_Library/Class/MSC/Src/usbd_msc_bot.c ****              (hmsc->bot_state != USBD_BOT_DATA_OUT) &&
 605              		.loc 1 280 19 is_stmt 0 view .LVU172
 606 006a 237A     		ldrb	r3, [r4, #8]	@ zero_extendqisi2
 281:Middlewares/ST/STM32_USB_Device_Library/Class/MSC/Src/usbd_msc_bot.c ****              (hmsc->bot_state != USBD_BOT_LAST_DATA_IN))
 607              		.loc 1 281 53 view .LVU173
 608 006c 013B     		subs	r3, r3, #1
 609 006e DBB2     		uxtb	r3, r3
 280:Middlewares/ST/STM32_USB_Device_Library/Class/MSC/Src/usbd_msc_bot.c ****              (hmsc->bot_state != USBD_BOT_DATA_OUT) &&
 610              		.loc 1 280 13 view .LVU174
 611 0070 022B     		cmp	r3, #2
 612 0072 E8D9     		bls	.L32
 284:Middlewares/ST/STM32_USB_Device_Library/Class/MSC/Src/usbd_msc_bot.c ****       {
 613              		.loc 1 284 7 is_stmt 1 view .LVU175
 284:Middlewares/ST/STM32_USB_Device_Library/Class/MSC/Src/usbd_msc_bot.c ****       {
 614              		.loc 1 284 15 is_stmt 0 view .LVU176
 615 0074 E268     		ldr	r2, [r4, #12]
 284:Middlewares/ST/STM32_USB_Device_Library/Class/MSC/Src/usbd_msc_bot.c ****       {
 616              		.loc 1 284 10 view .LVU177
 617 0076 8AB1     		cbz	r2, .L38
 286:Middlewares/ST/STM32_USB_Device_Library/Class/MSC/Src/usbd_msc_bot.c ****       }
 618              		.loc 1 286 9 is_stmt 1 view .LVU178
 619 0078 04F11001 		add	r1, r4, #16
 620 007c 2846     		mov	r0, r5
 621 007e FFF7FEFF 		bl	MSC_BOT_SendData
 622              	.LVL51:
 623 0082 E0E7     		b	.L32
 624              	.L41:
 270:Middlewares/ST/STM32_USB_Device_Library/Class/MSC/Src/usbd_msc_bot.c ****       {
 625              		.loc 1 270 7 view .LVU179
ARM GAS  C:\Users\Admin\AppData\Local\Temp\ccE6spAX.s 			page 21


 270:Middlewares/ST/STM32_USB_Device_Library/Class/MSC/Src/usbd_msc_bot.c ****       {
 626              		.loc 1 270 15 is_stmt 0 view .LVU180
 627 0084 237A     		ldrb	r3, [r4, #8]	@ zero_extendqisi2
 270:Middlewares/ST/STM32_USB_Device_Library/Class/MSC/Src/usbd_msc_bot.c ****       {
 628              		.loc 1 270 10 view .LVU181
 629 0086 052B     		cmp	r3, #5
 630 0088 03D0     		beq	.L42
 276:Middlewares/ST/STM32_USB_Device_Library/Class/MSC/Src/usbd_msc_bot.c ****       }
 631              		.loc 1 276 9 is_stmt 1 view .LVU182
 632 008a 2846     		mov	r0, r5
 633 008c FFF7FEFF 		bl	MSC_BOT_Abort
 634              	.LVL52:
 635 0090 D9E7     		b	.L32
 636              	.L42:
 272:Middlewares/ST/STM32_USB_Device_Library/Class/MSC/Src/usbd_msc_bot.c ****       }
 637              		.loc 1 272 9 view .LVU183
 638 0092 0121     		movs	r1, #1
 639 0094 2846     		mov	r0, r5
 640 0096 FFF7FEFF 		bl	MSC_BOT_SendCSW
 641              	.LVL53:
 642 009a D4E7     		b	.L32
 643              	.L38:
 288:Middlewares/ST/STM32_USB_Device_Library/Class/MSC/Src/usbd_msc_bot.c ****       {
 644              		.loc 1 288 12 view .LVU184
 290:Middlewares/ST/STM32_USB_Device_Library/Class/MSC/Src/usbd_msc_bot.c ****       }
 645              		.loc 1 290 9 view .LVU185
 646 009c 0021     		movs	r1, #0
 647 009e 2846     		mov	r0, r5
 648 00a0 FFF7FEFF 		bl	MSC_BOT_SendCSW
 649              	.LVL54:
 650 00a4 CFE7     		b	.L32
 651              	.L44:
 652 00a6 00BF     		.align	2
 653              	.L43:
 654 00a8 55534243 		.word	1128420181
 655              		.cfi_endproc
 656              	.LFE141:
 658              		.section	.text.MSC_BOT_DataOut,"ax",%progbits
 659              		.align	1
 660              		.global	MSC_BOT_DataOut
 661              		.syntax unified
 662              		.thumb
 663              		.thumb_func
 664              		.fpu fpv4-sp-d16
 666              	MSC_BOT_DataOut:
 667              	.LVL55:
 668              	.LFB140:
 210:Middlewares/ST/STM32_USB_Device_Library/Class/MSC/Src/usbd_msc_bot.c ****   UNUSED(epnum);
 669              		.loc 1 210 1 view -0
 670              		.cfi_startproc
 671              		@ args = 0, pretend = 0, frame = 0
 672              		@ frame_needed = 0, uses_anonymous_args = 0
 211:Middlewares/ST/STM32_USB_Device_Library/Class/MSC/Src/usbd_msc_bot.c **** 
 673              		.loc 1 211 3 view .LVU187
 213:Middlewares/ST/STM32_USB_Device_Library/Class/MSC/Src/usbd_msc_bot.c **** 
 674              		.loc 1 213 3 view .LVU188
 213:Middlewares/ST/STM32_USB_Device_Library/Class/MSC/Src/usbd_msc_bot.c **** 
ARM GAS  C:\Users\Admin\AppData\Local\Temp\ccE6spAX.s 			page 22


 675              		.loc 1 213 31 is_stmt 0 view .LVU189
 676 0000 D0F8BC32 		ldr	r3, [r0, #700]
 677              	.LVL56:
 215:Middlewares/ST/STM32_USB_Device_Library/Class/MSC/Src/usbd_msc_bot.c ****   {
 678              		.loc 1 215 3 is_stmt 1 view .LVU190
 215:Middlewares/ST/STM32_USB_Device_Library/Class/MSC/Src/usbd_msc_bot.c ****   {
 679              		.loc 1 215 6 is_stmt 0 view .LVU191
 680 0004 B3B1     		cbz	r3, .L50
 210:Middlewares/ST/STM32_USB_Device_Library/Class/MSC/Src/usbd_msc_bot.c ****   UNUSED(epnum);
 681              		.loc 1 210 1 view .LVU192
 682 0006 10B5     		push	{r4, lr}
 683              	.LCFI8:
 684              		.cfi_def_cfa_offset 8
 685              		.cfi_offset 4, -8
 686              		.cfi_offset 14, -4
 687 0008 0446     		mov	r4, r0
 220:Middlewares/ST/STM32_USB_Device_Library/Class/MSC/Src/usbd_msc_bot.c ****   {
 688              		.loc 1 220 3 is_stmt 1 view .LVU193
 220:Middlewares/ST/STM32_USB_Device_Library/Class/MSC/Src/usbd_msc_bot.c ****   {
 689              		.loc 1 220 15 is_stmt 0 view .LVU194
 690 000a 1A7A     		ldrb	r2, [r3, #8]	@ zero_extendqisi2
 220:Middlewares/ST/STM32_USB_Device_Library/Class/MSC/Src/usbd_msc_bot.c ****   {
 691              		.loc 1 220 3 view .LVU195
 692 000c 12B1     		cbz	r2, .L47
 693 000e 012A     		cmp	r2, #1
 694 0010 03D0     		beq	.L48
 695              	.LVL57:
 696              	.L45:
 236:Middlewares/ST/STM32_USB_Device_Library/Class/MSC/Src/usbd_msc_bot.c **** 
 697              		.loc 1 236 1 view .LVU196
 698 0012 10BD     		pop	{r4, pc}
 699              	.LVL58:
 700              	.L47:
 223:Middlewares/ST/STM32_USB_Device_Library/Class/MSC/Src/usbd_msc_bot.c ****       break;
 701              		.loc 1 223 7 is_stmt 1 view .LVU197
 702 0014 FFF7FEFF 		bl	MSC_BOT_CBW_Decode
 703              	.LVL59:
 224:Middlewares/ST/STM32_USB_Device_Library/Class/MSC/Src/usbd_msc_bot.c **** 
 704              		.loc 1 224 7 view .LVU198
 705 0018 FBE7     		b	.L45
 706              	.LVL60:
 707              	.L48:
 227:Middlewares/ST/STM32_USB_Device_Library/Class/MSC/Src/usbd_msc_bot.c ****       {
 708              		.loc 1 227 7 view .LVU199
 227:Middlewares/ST/STM32_USB_Device_Library/Class/MSC/Src/usbd_msc_bot.c ****       {
 709              		.loc 1 227 11 is_stmt 0 view .LVU200
 710 001a 03F21F22 		addw	r2, r3, #543
 711 001e 93F81D12 		ldrb	r1, [r3, #541]	@ zero_extendqisi2
 712              	.LVL61:
 227:Middlewares/ST/STM32_USB_Device_Library/Class/MSC/Src/usbd_msc_bot.c ****       {
 713              		.loc 1 227 11 view .LVU201
 714 0022 FFF7FEFF 		bl	SCSI_ProcessCmd
 715              	.LVL62:
 227:Middlewares/ST/STM32_USB_Device_Library/Class/MSC/Src/usbd_msc_bot.c ****       {
 716              		.loc 1 227 10 view .LVU202
 717 0026 0028     		cmp	r0, #0
 718 0028 F3DA     		bge	.L45
ARM GAS  C:\Users\Admin\AppData\Local\Temp\ccE6spAX.s 			page 23


 229:Middlewares/ST/STM32_USB_Device_Library/Class/MSC/Src/usbd_msc_bot.c ****       }
 719              		.loc 1 229 9 is_stmt 1 view .LVU203
 720 002a 0121     		movs	r1, #1
 721 002c 2046     		mov	r0, r4
 722 002e FFF7FEFF 		bl	MSC_BOT_SendCSW
 723              	.LVL63:
 724 0032 EEE7     		b	.L45
 725              	.LVL64:
 726              	.L50:
 727              	.LCFI9:
 728              		.cfi_def_cfa_offset 0
 729              		.cfi_restore 4
 730              		.cfi_restore 14
 229:Middlewares/ST/STM32_USB_Device_Library/Class/MSC/Src/usbd_msc_bot.c ****       }
 731              		.loc 1 229 9 is_stmt 0 view .LVU204
 732 0034 7047     		bx	lr
 733              		.cfi_endproc
 734              	.LFE140:
 736              		.section	.text.MSC_BOT_CplClrFeature,"ax",%progbits
 737              		.align	1
 738              		.global	MSC_BOT_CplClrFeature
 739              		.syntax unified
 740              		.thumb
 741              		.thumb_func
 742              		.fpu fpv4-sp-d16
 744              	MSC_BOT_CplClrFeature:
 745              	.LVL65:
 746              	.LFB145:
 389:Middlewares/ST/STM32_USB_Device_Library/Class/MSC/Src/usbd_msc_bot.c **** 
 390:Middlewares/ST/STM32_USB_Device_Library/Class/MSC/Src/usbd_msc_bot.c **** /**
 391:Middlewares/ST/STM32_USB_Device_Library/Class/MSC/Src/usbd_msc_bot.c ****   * @brief  MSC_BOT_CplClrFeature
 392:Middlewares/ST/STM32_USB_Device_Library/Class/MSC/Src/usbd_msc_bot.c ****   *         Complete the clear feature request
 393:Middlewares/ST/STM32_USB_Device_Library/Class/MSC/Src/usbd_msc_bot.c ****   * @param  pdev: device instance
 394:Middlewares/ST/STM32_USB_Device_Library/Class/MSC/Src/usbd_msc_bot.c ****   * @param  epnum: endpoint index
 395:Middlewares/ST/STM32_USB_Device_Library/Class/MSC/Src/usbd_msc_bot.c ****   * @retval None
 396:Middlewares/ST/STM32_USB_Device_Library/Class/MSC/Src/usbd_msc_bot.c ****   */
 397:Middlewares/ST/STM32_USB_Device_Library/Class/MSC/Src/usbd_msc_bot.c **** 
 398:Middlewares/ST/STM32_USB_Device_Library/Class/MSC/Src/usbd_msc_bot.c **** void  MSC_BOT_CplClrFeature(USBD_HandleTypeDef *pdev, uint8_t epnum)
 399:Middlewares/ST/STM32_USB_Device_Library/Class/MSC/Src/usbd_msc_bot.c **** {
 747              		.loc 1 399 1 is_stmt 1 view -0
 748              		.cfi_startproc
 749              		@ args = 0, pretend = 0, frame = 0
 750              		@ frame_needed = 0, uses_anonymous_args = 0
 400:Middlewares/ST/STM32_USB_Device_Library/Class/MSC/Src/usbd_msc_bot.c ****   USBD_MSC_BOT_HandleTypeDef *hmsc = (USBD_MSC_BOT_HandleTypeDef *)pdev->pClassData;
 751              		.loc 1 400 3 view .LVU206
 752              		.loc 1 400 31 is_stmt 0 view .LVU207
 753 0000 D0F8BC32 		ldr	r3, [r0, #700]
 754              	.LVL66:
 401:Middlewares/ST/STM32_USB_Device_Library/Class/MSC/Src/usbd_msc_bot.c **** 
 402:Middlewares/ST/STM32_USB_Device_Library/Class/MSC/Src/usbd_msc_bot.c ****   if (hmsc == NULL)
 755              		.loc 1 402 3 is_stmt 1 view .LVU208
 756              		.loc 1 402 6 is_stmt 0 view .LVU209
 757 0004 ABB1     		cbz	r3, .L57
 399:Middlewares/ST/STM32_USB_Device_Library/Class/MSC/Src/usbd_msc_bot.c ****   USBD_MSC_BOT_HandleTypeDef *hmsc = (USBD_MSC_BOT_HandleTypeDef *)pdev->pClassData;
 758              		.loc 1 399 1 view .LVU210
 759 0006 10B5     		push	{r4, lr}
 760              	.LCFI10:
ARM GAS  C:\Users\Admin\AppData\Local\Temp\ccE6spAX.s 			page 24


 761              		.cfi_def_cfa_offset 8
 762              		.cfi_offset 4, -8
 763              		.cfi_offset 14, -4
 764 0008 0446     		mov	r4, r0
 403:Middlewares/ST/STM32_USB_Device_Library/Class/MSC/Src/usbd_msc_bot.c ****   {
 404:Middlewares/ST/STM32_USB_Device_Library/Class/MSC/Src/usbd_msc_bot.c ****     return;
 405:Middlewares/ST/STM32_USB_Device_Library/Class/MSC/Src/usbd_msc_bot.c ****   }
 406:Middlewares/ST/STM32_USB_Device_Library/Class/MSC/Src/usbd_msc_bot.c **** 
 407:Middlewares/ST/STM32_USB_Device_Library/Class/MSC/Src/usbd_msc_bot.c ****   if (hmsc->bot_status == USBD_BOT_STATUS_ERROR) /* Bad CBW Signature */
 765              		.loc 1 407 3 is_stmt 1 view .LVU211
 766              		.loc 1 407 11 is_stmt 0 view .LVU212
 767 000a 5B7A     		ldrb	r3, [r3, #9]	@ zero_extendqisi2
 768              	.LVL67:
 769              		.loc 1 407 6 view .LVU213
 770 000c 022B     		cmp	r3, #2
 771 000e 08D0     		beq	.L60
 408:Middlewares/ST/STM32_USB_Device_Library/Class/MSC/Src/usbd_msc_bot.c ****   {
 409:Middlewares/ST/STM32_USB_Device_Library/Class/MSC/Src/usbd_msc_bot.c ****     (void)USBD_LL_StallEP(pdev, MSC_EPIN_ADDR);
 410:Middlewares/ST/STM32_USB_Device_Library/Class/MSC/Src/usbd_msc_bot.c ****     (void)USBD_LL_StallEP(pdev, MSC_EPOUT_ADDR);
 411:Middlewares/ST/STM32_USB_Device_Library/Class/MSC/Src/usbd_msc_bot.c ****   }
 412:Middlewares/ST/STM32_USB_Device_Library/Class/MSC/Src/usbd_msc_bot.c ****   else if (((epnum & 0x80U) == 0x80U) && (hmsc->bot_status != USBD_BOT_STATUS_RECOVERY))
 772              		.loc 1 412 8 is_stmt 1 view .LVU214
 773              		.loc 1 412 11 is_stmt 0 view .LVU215
 774 0010 11F0800F 		tst	r1, #128
 775 0014 04D0     		beq	.L53
 776              		.loc 1 412 39 discriminator 1 view .LVU216
 777 0016 012B     		cmp	r3, #1
 778 0018 02D0     		beq	.L53
 413:Middlewares/ST/STM32_USB_Device_Library/Class/MSC/Src/usbd_msc_bot.c ****   {
 414:Middlewares/ST/STM32_USB_Device_Library/Class/MSC/Src/usbd_msc_bot.c ****     MSC_BOT_SendCSW(pdev, USBD_CSW_CMD_FAILED);
 779              		.loc 1 414 5 is_stmt 1 view .LVU217
 780 001a 0121     		movs	r1, #1
 781              	.LVL68:
 782              		.loc 1 414 5 is_stmt 0 view .LVU218
 783 001c FFF7FEFF 		bl	MSC_BOT_SendCSW
 784              	.LVL69:
 785              	.L53:
 415:Middlewares/ST/STM32_USB_Device_Library/Class/MSC/Src/usbd_msc_bot.c ****   }
 416:Middlewares/ST/STM32_USB_Device_Library/Class/MSC/Src/usbd_msc_bot.c ****   else
 417:Middlewares/ST/STM32_USB_Device_Library/Class/MSC/Src/usbd_msc_bot.c ****   {
 418:Middlewares/ST/STM32_USB_Device_Library/Class/MSC/Src/usbd_msc_bot.c ****     return;
 419:Middlewares/ST/STM32_USB_Device_Library/Class/MSC/Src/usbd_msc_bot.c ****   }
 420:Middlewares/ST/STM32_USB_Device_Library/Class/MSC/Src/usbd_msc_bot.c **** }
 786              		.loc 1 420 1 view .LVU219
 787 0020 10BD     		pop	{r4, pc}
 788              	.LVL70:
 789              	.L60:
 409:Middlewares/ST/STM32_USB_Device_Library/Class/MSC/Src/usbd_msc_bot.c ****     (void)USBD_LL_StallEP(pdev, MSC_EPOUT_ADDR);
 790              		.loc 1 409 5 is_stmt 1 view .LVU220
 409:Middlewares/ST/STM32_USB_Device_Library/Class/MSC/Src/usbd_msc_bot.c ****     (void)USBD_LL_StallEP(pdev, MSC_EPOUT_ADDR);
 791              		.loc 1 409 11 is_stmt 0 view .LVU221
 792 0022 8121     		movs	r1, #129
 793              	.LVL71:
 409:Middlewares/ST/STM32_USB_Device_Library/Class/MSC/Src/usbd_msc_bot.c ****     (void)USBD_LL_StallEP(pdev, MSC_EPOUT_ADDR);
 794              		.loc 1 409 11 view .LVU222
 795 0024 FFF7FEFF 		bl	USBD_LL_StallEP
 796              	.LVL72:
ARM GAS  C:\Users\Admin\AppData\Local\Temp\ccE6spAX.s 			page 25


 410:Middlewares/ST/STM32_USB_Device_Library/Class/MSC/Src/usbd_msc_bot.c ****   }
 797              		.loc 1 410 5 is_stmt 1 view .LVU223
 410:Middlewares/ST/STM32_USB_Device_Library/Class/MSC/Src/usbd_msc_bot.c ****   }
 798              		.loc 1 410 11 is_stmt 0 view .LVU224
 799 0028 0121     		movs	r1, #1
 800 002a 2046     		mov	r0, r4
 801 002c FFF7FEFF 		bl	USBD_LL_StallEP
 802              	.LVL73:
 803 0030 F6E7     		b	.L53
 804              	.LVL74:
 805              	.L57:
 806              	.LCFI11:
 807              		.cfi_def_cfa_offset 0
 808              		.cfi_restore 4
 809              		.cfi_restore 14
 410:Middlewares/ST/STM32_USB_Device_Library/Class/MSC/Src/usbd_msc_bot.c ****   }
 810              		.loc 1 410 11 view .LVU225
 811 0032 7047     		bx	lr
 812              		.cfi_endproc
 813              	.LFE145:
 815              		.text
 816              	.Letext0:
 817              		.file 2 "c:\\ncs\\v1.7.1\\toolchain\\opt\\arm-none-eabi\\include\\machine\\_default_types.h"
 818              		.file 3 "c:\\ncs\\v1.7.1\\toolchain\\opt\\arm-none-eabi\\include\\sys\\lock.h"
 819              		.file 4 "c:\\ncs\\v1.7.1\\toolchain\\opt\\arm-none-eabi\\include\\sys\\_types.h"
 820              		.file 5 "c:\\ncs\\v1.7.1\\toolchain\\opt\\lib\\gcc\\arm-none-eabi\\9.2.1\\include\\stddef.h"
 821              		.file 6 "c:\\ncs\\v1.7.1\\toolchain\\opt\\arm-none-eabi\\include\\sys\\reent.h"
 822              		.file 7 "c:\\ncs\\v1.7.1\\toolchain\\opt\\arm-none-eabi\\include\\sys\\_stdint.h"
 823              		.file 8 "c:\\ncs\\v1.7.1\\toolchain\\opt\\arm-none-eabi\\include\\stdlib.h"
 824              		.file 9 "Drivers/CMSIS/Include/core_cm4.h"
 825              		.file 10 "Drivers/CMSIS/Device/ST/STM32L4xx/Include/system_stm32l4xx.h"
 826              		.file 11 "Drivers/STM32L4xx_HAL_Driver/Inc/stm32l4xx_hal_def.h"
 827              		.file 12 "Drivers/STM32L4xx_HAL_Driver/Inc/stm32l4xx_hal_flash.h"
 828              		.file 13 "Drivers/STM32L4xx_HAL_Driver/Inc/stm32l4xx_hal.h"
 829              		.file 14 "Middlewares/ST/STM32_USB_Device_Library/Core/Inc/usbd_def.h"
 830              		.file 15 "Middlewares/ST/STM32_USB_Device_Library/Class/MSC/Inc/usbd_msc_bot.h"
 831              		.file 16 "Middlewares/ST/STM32_USB_Device_Library/Class/MSC/Inc/usbd_msc_scsi.h"
 832              		.file 17 "Middlewares/ST/STM32_USB_Device_Library/Class/MSC/Inc/usbd_msc.h"
 833              		.file 18 "Middlewares/ST/STM32_USB_Device_Library/Core/Inc/usbd_core.h"
ARM GAS  C:\Users\Admin\AppData\Local\Temp\ccE6spAX.s 			page 26

