ARM GAS  C:\Users\Admin\AppData\Local\Temp\ccCPzby3.s 			page 1


   1              		.cpu cortex-m4
   2              		.eabi_attribute 27, 1
   3              		.eabi_attribute 28, 1
   4              		.eabi_attribute 20, 1
   5              		.eabi_attribute 21, 1
   6              		.eabi_attribute 23, 3
   7              		.eabi_attribute 24, 1
   8              		.eabi_attribute 25, 1
   9              		.eabi_attribute 26, 1
  10              		.eabi_attribute 30, 1
  11              		.eabi_attribute 34, 1
  12              		.eabi_attribute 18, 4
  13              		.file	"usbd_msc_scsi.c"
  14              		.text
  15              	.Ltext0:
  16              		.cfi_sections	.debug_frame
  17              		.section	.text.SCSI_AllowPreventRemovable,"ax",%progbits
  18              		.align	1
  19              		.arch armv7e-m
  20              		.syntax unified
  21              		.thumb
  22              		.thumb_func
  23              		.fpu fpv4-sp-d16
  25              	SCSI_AllowPreventRemovable:
  26              	.LVL0:
  27              	.LFB147:
  28              		.file 1 "Middlewares/ST/STM32_USB_Device_Library/Class/MSC/Src/usbd_msc_scsi.c"
   1:Middlewares/ST/STM32_USB_Device_Library/Class/MSC/Src/usbd_msc_scsi.c **** /**
   2:Middlewares/ST/STM32_USB_Device_Library/Class/MSC/Src/usbd_msc_scsi.c ****   ******************************************************************************
   3:Middlewares/ST/STM32_USB_Device_Library/Class/MSC/Src/usbd_msc_scsi.c ****   * @file    usbd_msc_scsi.c
   4:Middlewares/ST/STM32_USB_Device_Library/Class/MSC/Src/usbd_msc_scsi.c ****   * @author  MCD Application Team
   5:Middlewares/ST/STM32_USB_Device_Library/Class/MSC/Src/usbd_msc_scsi.c ****   * @brief   This file provides all the USBD SCSI layer functions.
   6:Middlewares/ST/STM32_USB_Device_Library/Class/MSC/Src/usbd_msc_scsi.c ****   ******************************************************************************
   7:Middlewares/ST/STM32_USB_Device_Library/Class/MSC/Src/usbd_msc_scsi.c ****   * @attention
   8:Middlewares/ST/STM32_USB_Device_Library/Class/MSC/Src/usbd_msc_scsi.c ****   *
   9:Middlewares/ST/STM32_USB_Device_Library/Class/MSC/Src/usbd_msc_scsi.c ****   * <h2><center>&copy; Copyright (c) 2015 STMicroelectronics.
  10:Middlewares/ST/STM32_USB_Device_Library/Class/MSC/Src/usbd_msc_scsi.c ****   * All rights reserved.</center></h2>
  11:Middlewares/ST/STM32_USB_Device_Library/Class/MSC/Src/usbd_msc_scsi.c ****   *
  12:Middlewares/ST/STM32_USB_Device_Library/Class/MSC/Src/usbd_msc_scsi.c ****   * This software component is licensed by ST under Ultimate Liberty license
  13:Middlewares/ST/STM32_USB_Device_Library/Class/MSC/Src/usbd_msc_scsi.c ****   * SLA0044, the "License"; You may not use this file except in compliance with
  14:Middlewares/ST/STM32_USB_Device_Library/Class/MSC/Src/usbd_msc_scsi.c ****   * the License. You may obtain a copy of the License at:
  15:Middlewares/ST/STM32_USB_Device_Library/Class/MSC/Src/usbd_msc_scsi.c ****   *                      www.st.com/SLA0044
  16:Middlewares/ST/STM32_USB_Device_Library/Class/MSC/Src/usbd_msc_scsi.c ****   *
  17:Middlewares/ST/STM32_USB_Device_Library/Class/MSC/Src/usbd_msc_scsi.c ****   ******************************************************************************
  18:Middlewares/ST/STM32_USB_Device_Library/Class/MSC/Src/usbd_msc_scsi.c ****   */
  19:Middlewares/ST/STM32_USB_Device_Library/Class/MSC/Src/usbd_msc_scsi.c **** 
  20:Middlewares/ST/STM32_USB_Device_Library/Class/MSC/Src/usbd_msc_scsi.c **** /* BSPDependencies
  21:Middlewares/ST/STM32_USB_Device_Library/Class/MSC/Src/usbd_msc_scsi.c **** - "stm32xxxxx_{eval}{discovery}{nucleo_144}.c"
  22:Middlewares/ST/STM32_USB_Device_Library/Class/MSC/Src/usbd_msc_scsi.c **** - "stm32xxxxx_{eval}{discovery}_io.c"
  23:Middlewares/ST/STM32_USB_Device_Library/Class/MSC/Src/usbd_msc_scsi.c **** - "stm32xxxxx_{eval}{discovery}{adafruit}_sd.c"
  24:Middlewares/ST/STM32_USB_Device_Library/Class/MSC/Src/usbd_msc_scsi.c **** EndBSPDependencies */
  25:Middlewares/ST/STM32_USB_Device_Library/Class/MSC/Src/usbd_msc_scsi.c **** 
  26:Middlewares/ST/STM32_USB_Device_Library/Class/MSC/Src/usbd_msc_scsi.c **** /* Includes ------------------------------------------------------------------*/
  27:Middlewares/ST/STM32_USB_Device_Library/Class/MSC/Src/usbd_msc_scsi.c **** #include "usbd_msc_bot.h"
  28:Middlewares/ST/STM32_USB_Device_Library/Class/MSC/Src/usbd_msc_scsi.c **** #include "usbd_msc_scsi.h"
  29:Middlewares/ST/STM32_USB_Device_Library/Class/MSC/Src/usbd_msc_scsi.c **** #include "usbd_msc.h"
  30:Middlewares/ST/STM32_USB_Device_Library/Class/MSC/Src/usbd_msc_scsi.c **** #include "usbd_msc_data.h"
ARM GAS  C:\Users\Admin\AppData\Local\Temp\ccCPzby3.s 			page 2


  31:Middlewares/ST/STM32_USB_Device_Library/Class/MSC/Src/usbd_msc_scsi.c **** 
  32:Middlewares/ST/STM32_USB_Device_Library/Class/MSC/Src/usbd_msc_scsi.c **** 
  33:Middlewares/ST/STM32_USB_Device_Library/Class/MSC/Src/usbd_msc_scsi.c **** /** @addtogroup STM32_USB_DEVICE_LIBRARY
  34:Middlewares/ST/STM32_USB_Device_Library/Class/MSC/Src/usbd_msc_scsi.c ****   * @{
  35:Middlewares/ST/STM32_USB_Device_Library/Class/MSC/Src/usbd_msc_scsi.c ****   */
  36:Middlewares/ST/STM32_USB_Device_Library/Class/MSC/Src/usbd_msc_scsi.c **** 
  37:Middlewares/ST/STM32_USB_Device_Library/Class/MSC/Src/usbd_msc_scsi.c **** 
  38:Middlewares/ST/STM32_USB_Device_Library/Class/MSC/Src/usbd_msc_scsi.c **** /** @defgroup MSC_SCSI
  39:Middlewares/ST/STM32_USB_Device_Library/Class/MSC/Src/usbd_msc_scsi.c ****   * @brief Mass storage SCSI layer module
  40:Middlewares/ST/STM32_USB_Device_Library/Class/MSC/Src/usbd_msc_scsi.c ****   * @{
  41:Middlewares/ST/STM32_USB_Device_Library/Class/MSC/Src/usbd_msc_scsi.c ****   */
  42:Middlewares/ST/STM32_USB_Device_Library/Class/MSC/Src/usbd_msc_scsi.c **** 
  43:Middlewares/ST/STM32_USB_Device_Library/Class/MSC/Src/usbd_msc_scsi.c **** /** @defgroup MSC_SCSI_Private_TypesDefinitions
  44:Middlewares/ST/STM32_USB_Device_Library/Class/MSC/Src/usbd_msc_scsi.c ****   * @{
  45:Middlewares/ST/STM32_USB_Device_Library/Class/MSC/Src/usbd_msc_scsi.c ****   */
  46:Middlewares/ST/STM32_USB_Device_Library/Class/MSC/Src/usbd_msc_scsi.c **** /**
  47:Middlewares/ST/STM32_USB_Device_Library/Class/MSC/Src/usbd_msc_scsi.c ****   * @}
  48:Middlewares/ST/STM32_USB_Device_Library/Class/MSC/Src/usbd_msc_scsi.c ****   */
  49:Middlewares/ST/STM32_USB_Device_Library/Class/MSC/Src/usbd_msc_scsi.c **** 
  50:Middlewares/ST/STM32_USB_Device_Library/Class/MSC/Src/usbd_msc_scsi.c **** 
  51:Middlewares/ST/STM32_USB_Device_Library/Class/MSC/Src/usbd_msc_scsi.c **** /** @defgroup MSC_SCSI_Private_Defines
  52:Middlewares/ST/STM32_USB_Device_Library/Class/MSC/Src/usbd_msc_scsi.c ****   * @{
  53:Middlewares/ST/STM32_USB_Device_Library/Class/MSC/Src/usbd_msc_scsi.c ****   */
  54:Middlewares/ST/STM32_USB_Device_Library/Class/MSC/Src/usbd_msc_scsi.c **** 
  55:Middlewares/ST/STM32_USB_Device_Library/Class/MSC/Src/usbd_msc_scsi.c **** /**
  56:Middlewares/ST/STM32_USB_Device_Library/Class/MSC/Src/usbd_msc_scsi.c ****   * @}
  57:Middlewares/ST/STM32_USB_Device_Library/Class/MSC/Src/usbd_msc_scsi.c ****   */
  58:Middlewares/ST/STM32_USB_Device_Library/Class/MSC/Src/usbd_msc_scsi.c **** 
  59:Middlewares/ST/STM32_USB_Device_Library/Class/MSC/Src/usbd_msc_scsi.c **** 
  60:Middlewares/ST/STM32_USB_Device_Library/Class/MSC/Src/usbd_msc_scsi.c **** /** @defgroup MSC_SCSI_Private_Macros
  61:Middlewares/ST/STM32_USB_Device_Library/Class/MSC/Src/usbd_msc_scsi.c ****   * @{
  62:Middlewares/ST/STM32_USB_Device_Library/Class/MSC/Src/usbd_msc_scsi.c ****   */
  63:Middlewares/ST/STM32_USB_Device_Library/Class/MSC/Src/usbd_msc_scsi.c **** /**
  64:Middlewares/ST/STM32_USB_Device_Library/Class/MSC/Src/usbd_msc_scsi.c ****   * @}
  65:Middlewares/ST/STM32_USB_Device_Library/Class/MSC/Src/usbd_msc_scsi.c ****   */
  66:Middlewares/ST/STM32_USB_Device_Library/Class/MSC/Src/usbd_msc_scsi.c **** 
  67:Middlewares/ST/STM32_USB_Device_Library/Class/MSC/Src/usbd_msc_scsi.c **** 
  68:Middlewares/ST/STM32_USB_Device_Library/Class/MSC/Src/usbd_msc_scsi.c **** /** @defgroup MSC_SCSI_Private_Variables
  69:Middlewares/ST/STM32_USB_Device_Library/Class/MSC/Src/usbd_msc_scsi.c ****   * @{
  70:Middlewares/ST/STM32_USB_Device_Library/Class/MSC/Src/usbd_msc_scsi.c ****   */
  71:Middlewares/ST/STM32_USB_Device_Library/Class/MSC/Src/usbd_msc_scsi.c **** 
  72:Middlewares/ST/STM32_USB_Device_Library/Class/MSC/Src/usbd_msc_scsi.c **** /**
  73:Middlewares/ST/STM32_USB_Device_Library/Class/MSC/Src/usbd_msc_scsi.c ****   * @}
  74:Middlewares/ST/STM32_USB_Device_Library/Class/MSC/Src/usbd_msc_scsi.c ****   */
  75:Middlewares/ST/STM32_USB_Device_Library/Class/MSC/Src/usbd_msc_scsi.c **** 
  76:Middlewares/ST/STM32_USB_Device_Library/Class/MSC/Src/usbd_msc_scsi.c **** 
  77:Middlewares/ST/STM32_USB_Device_Library/Class/MSC/Src/usbd_msc_scsi.c **** /** @defgroup MSC_SCSI_Private_FunctionPrototypes
  78:Middlewares/ST/STM32_USB_Device_Library/Class/MSC/Src/usbd_msc_scsi.c ****   * @{
  79:Middlewares/ST/STM32_USB_Device_Library/Class/MSC/Src/usbd_msc_scsi.c ****   */
  80:Middlewares/ST/STM32_USB_Device_Library/Class/MSC/Src/usbd_msc_scsi.c **** static int8_t SCSI_TestUnitReady(USBD_HandleTypeDef *pdev, uint8_t lun, uint8_t *params);
  81:Middlewares/ST/STM32_USB_Device_Library/Class/MSC/Src/usbd_msc_scsi.c **** static int8_t SCSI_Inquiry(USBD_HandleTypeDef *pdev, uint8_t lun, uint8_t *params);
  82:Middlewares/ST/STM32_USB_Device_Library/Class/MSC/Src/usbd_msc_scsi.c **** static int8_t SCSI_ReadFormatCapacity(USBD_HandleTypeDef *pdev, uint8_t lun, uint8_t *params);
  83:Middlewares/ST/STM32_USB_Device_Library/Class/MSC/Src/usbd_msc_scsi.c **** static int8_t SCSI_ReadCapacity10(USBD_HandleTypeDef *pdev, uint8_t lun, uint8_t *params);
  84:Middlewares/ST/STM32_USB_Device_Library/Class/MSC/Src/usbd_msc_scsi.c **** static int8_t SCSI_ReadCapacity16(USBD_HandleTypeDef *pdev, uint8_t lun, uint8_t *params);
  85:Middlewares/ST/STM32_USB_Device_Library/Class/MSC/Src/usbd_msc_scsi.c **** static int8_t SCSI_RequestSense(USBD_HandleTypeDef *pdev, uint8_t lun, uint8_t *params);
  86:Middlewares/ST/STM32_USB_Device_Library/Class/MSC/Src/usbd_msc_scsi.c **** static int8_t SCSI_StartStopUnit(USBD_HandleTypeDef *pdev, uint8_t lun, uint8_t *params);
  87:Middlewares/ST/STM32_USB_Device_Library/Class/MSC/Src/usbd_msc_scsi.c **** static int8_t SCSI_AllowPreventRemovable(USBD_HandleTypeDef *pdev, uint8_t lun, uint8_t *params);
ARM GAS  C:\Users\Admin\AppData\Local\Temp\ccCPzby3.s 			page 3


  88:Middlewares/ST/STM32_USB_Device_Library/Class/MSC/Src/usbd_msc_scsi.c **** static int8_t SCSI_ModeSense6(USBD_HandleTypeDef *pdev, uint8_t lun, uint8_t *params);
  89:Middlewares/ST/STM32_USB_Device_Library/Class/MSC/Src/usbd_msc_scsi.c **** static int8_t SCSI_ModeSense10(USBD_HandleTypeDef *pdev, uint8_t lun, uint8_t *params);
  90:Middlewares/ST/STM32_USB_Device_Library/Class/MSC/Src/usbd_msc_scsi.c **** static int8_t SCSI_Write10(USBD_HandleTypeDef *pdev, uint8_t lun, uint8_t *params);
  91:Middlewares/ST/STM32_USB_Device_Library/Class/MSC/Src/usbd_msc_scsi.c **** static int8_t SCSI_Write12(USBD_HandleTypeDef *pdev, uint8_t lun, uint8_t *params);
  92:Middlewares/ST/STM32_USB_Device_Library/Class/MSC/Src/usbd_msc_scsi.c **** static int8_t SCSI_Read10(USBD_HandleTypeDef *pdev, uint8_t lun, uint8_t *params);
  93:Middlewares/ST/STM32_USB_Device_Library/Class/MSC/Src/usbd_msc_scsi.c **** static int8_t SCSI_Read12(USBD_HandleTypeDef *pdev, uint8_t lun, uint8_t *params);
  94:Middlewares/ST/STM32_USB_Device_Library/Class/MSC/Src/usbd_msc_scsi.c **** static int8_t SCSI_Verify10(USBD_HandleTypeDef *pdev, uint8_t lun, uint8_t *params);
  95:Middlewares/ST/STM32_USB_Device_Library/Class/MSC/Src/usbd_msc_scsi.c **** static int8_t SCSI_CheckAddressRange(USBD_HandleTypeDef *pdev, uint8_t lun,
  96:Middlewares/ST/STM32_USB_Device_Library/Class/MSC/Src/usbd_msc_scsi.c ****                                      uint32_t blk_offset, uint32_t blk_nbr);
  97:Middlewares/ST/STM32_USB_Device_Library/Class/MSC/Src/usbd_msc_scsi.c **** 
  98:Middlewares/ST/STM32_USB_Device_Library/Class/MSC/Src/usbd_msc_scsi.c **** static int8_t SCSI_ProcessRead(USBD_HandleTypeDef *pdev, uint8_t lun);
  99:Middlewares/ST/STM32_USB_Device_Library/Class/MSC/Src/usbd_msc_scsi.c **** static int8_t SCSI_ProcessWrite(USBD_HandleTypeDef *pdev, uint8_t lun);
 100:Middlewares/ST/STM32_USB_Device_Library/Class/MSC/Src/usbd_msc_scsi.c **** 
 101:Middlewares/ST/STM32_USB_Device_Library/Class/MSC/Src/usbd_msc_scsi.c **** static int8_t SCSI_UpdateBotData(USBD_MSC_BOT_HandleTypeDef *hmsc,
 102:Middlewares/ST/STM32_USB_Device_Library/Class/MSC/Src/usbd_msc_scsi.c ****                                  uint8_t *pBuff, uint16_t length);
 103:Middlewares/ST/STM32_USB_Device_Library/Class/MSC/Src/usbd_msc_scsi.c **** /**
 104:Middlewares/ST/STM32_USB_Device_Library/Class/MSC/Src/usbd_msc_scsi.c ****   * @}
 105:Middlewares/ST/STM32_USB_Device_Library/Class/MSC/Src/usbd_msc_scsi.c ****   */
 106:Middlewares/ST/STM32_USB_Device_Library/Class/MSC/Src/usbd_msc_scsi.c **** 
 107:Middlewares/ST/STM32_USB_Device_Library/Class/MSC/Src/usbd_msc_scsi.c **** 
 108:Middlewares/ST/STM32_USB_Device_Library/Class/MSC/Src/usbd_msc_scsi.c **** /** @defgroup MSC_SCSI_Private_Functions
 109:Middlewares/ST/STM32_USB_Device_Library/Class/MSC/Src/usbd_msc_scsi.c ****   * @{
 110:Middlewares/ST/STM32_USB_Device_Library/Class/MSC/Src/usbd_msc_scsi.c ****   */
 111:Middlewares/ST/STM32_USB_Device_Library/Class/MSC/Src/usbd_msc_scsi.c **** 
 112:Middlewares/ST/STM32_USB_Device_Library/Class/MSC/Src/usbd_msc_scsi.c **** 
 113:Middlewares/ST/STM32_USB_Device_Library/Class/MSC/Src/usbd_msc_scsi.c **** /**
 114:Middlewares/ST/STM32_USB_Device_Library/Class/MSC/Src/usbd_msc_scsi.c ****   * @brief  SCSI_ProcessCmd
 115:Middlewares/ST/STM32_USB_Device_Library/Class/MSC/Src/usbd_msc_scsi.c ****   *         Process SCSI commands
 116:Middlewares/ST/STM32_USB_Device_Library/Class/MSC/Src/usbd_msc_scsi.c ****   * @param  pdev: device instance
 117:Middlewares/ST/STM32_USB_Device_Library/Class/MSC/Src/usbd_msc_scsi.c ****   * @param  lun: Logical unit number
 118:Middlewares/ST/STM32_USB_Device_Library/Class/MSC/Src/usbd_msc_scsi.c ****   * @param  params: Command parameters
 119:Middlewares/ST/STM32_USB_Device_Library/Class/MSC/Src/usbd_msc_scsi.c ****   * @retval status
 120:Middlewares/ST/STM32_USB_Device_Library/Class/MSC/Src/usbd_msc_scsi.c ****   */
 121:Middlewares/ST/STM32_USB_Device_Library/Class/MSC/Src/usbd_msc_scsi.c **** int8_t SCSI_ProcessCmd(USBD_HandleTypeDef *pdev, uint8_t lun, uint8_t *cmd)
 122:Middlewares/ST/STM32_USB_Device_Library/Class/MSC/Src/usbd_msc_scsi.c **** {
 123:Middlewares/ST/STM32_USB_Device_Library/Class/MSC/Src/usbd_msc_scsi.c ****   int8_t ret;
 124:Middlewares/ST/STM32_USB_Device_Library/Class/MSC/Src/usbd_msc_scsi.c ****   USBD_MSC_BOT_HandleTypeDef *hmsc = (USBD_MSC_BOT_HandleTypeDef *)pdev->pClassData;
 125:Middlewares/ST/STM32_USB_Device_Library/Class/MSC/Src/usbd_msc_scsi.c **** 
 126:Middlewares/ST/STM32_USB_Device_Library/Class/MSC/Src/usbd_msc_scsi.c ****   if (hmsc == NULL)
 127:Middlewares/ST/STM32_USB_Device_Library/Class/MSC/Src/usbd_msc_scsi.c ****   {
 128:Middlewares/ST/STM32_USB_Device_Library/Class/MSC/Src/usbd_msc_scsi.c ****     return -1;
 129:Middlewares/ST/STM32_USB_Device_Library/Class/MSC/Src/usbd_msc_scsi.c ****   }
 130:Middlewares/ST/STM32_USB_Device_Library/Class/MSC/Src/usbd_msc_scsi.c **** 
 131:Middlewares/ST/STM32_USB_Device_Library/Class/MSC/Src/usbd_msc_scsi.c ****   switch (cmd[0])
 132:Middlewares/ST/STM32_USB_Device_Library/Class/MSC/Src/usbd_msc_scsi.c ****   {
 133:Middlewares/ST/STM32_USB_Device_Library/Class/MSC/Src/usbd_msc_scsi.c ****     case SCSI_TEST_UNIT_READY:
 134:Middlewares/ST/STM32_USB_Device_Library/Class/MSC/Src/usbd_msc_scsi.c ****       ret = SCSI_TestUnitReady(pdev, lun, cmd);
 135:Middlewares/ST/STM32_USB_Device_Library/Class/MSC/Src/usbd_msc_scsi.c ****       break;
 136:Middlewares/ST/STM32_USB_Device_Library/Class/MSC/Src/usbd_msc_scsi.c **** 
 137:Middlewares/ST/STM32_USB_Device_Library/Class/MSC/Src/usbd_msc_scsi.c ****     case SCSI_REQUEST_SENSE:
 138:Middlewares/ST/STM32_USB_Device_Library/Class/MSC/Src/usbd_msc_scsi.c ****       ret = SCSI_RequestSense(pdev, lun, cmd);
 139:Middlewares/ST/STM32_USB_Device_Library/Class/MSC/Src/usbd_msc_scsi.c ****       break;
 140:Middlewares/ST/STM32_USB_Device_Library/Class/MSC/Src/usbd_msc_scsi.c **** 
 141:Middlewares/ST/STM32_USB_Device_Library/Class/MSC/Src/usbd_msc_scsi.c ****     case SCSI_INQUIRY:
 142:Middlewares/ST/STM32_USB_Device_Library/Class/MSC/Src/usbd_msc_scsi.c ****       ret = SCSI_Inquiry(pdev, lun, cmd);
 143:Middlewares/ST/STM32_USB_Device_Library/Class/MSC/Src/usbd_msc_scsi.c ****       break;
 144:Middlewares/ST/STM32_USB_Device_Library/Class/MSC/Src/usbd_msc_scsi.c **** 
ARM GAS  C:\Users\Admin\AppData\Local\Temp\ccCPzby3.s 			page 4


 145:Middlewares/ST/STM32_USB_Device_Library/Class/MSC/Src/usbd_msc_scsi.c ****     case SCSI_START_STOP_UNIT:
 146:Middlewares/ST/STM32_USB_Device_Library/Class/MSC/Src/usbd_msc_scsi.c ****       ret = SCSI_StartStopUnit(pdev, lun, cmd);
 147:Middlewares/ST/STM32_USB_Device_Library/Class/MSC/Src/usbd_msc_scsi.c ****       break;
 148:Middlewares/ST/STM32_USB_Device_Library/Class/MSC/Src/usbd_msc_scsi.c **** 
 149:Middlewares/ST/STM32_USB_Device_Library/Class/MSC/Src/usbd_msc_scsi.c ****     case SCSI_ALLOW_MEDIUM_REMOVAL:
 150:Middlewares/ST/STM32_USB_Device_Library/Class/MSC/Src/usbd_msc_scsi.c ****       ret = SCSI_AllowPreventRemovable(pdev, lun, cmd);
 151:Middlewares/ST/STM32_USB_Device_Library/Class/MSC/Src/usbd_msc_scsi.c ****       break;
 152:Middlewares/ST/STM32_USB_Device_Library/Class/MSC/Src/usbd_msc_scsi.c **** 
 153:Middlewares/ST/STM32_USB_Device_Library/Class/MSC/Src/usbd_msc_scsi.c ****     case SCSI_MODE_SENSE6:
 154:Middlewares/ST/STM32_USB_Device_Library/Class/MSC/Src/usbd_msc_scsi.c ****       ret = SCSI_ModeSense6(pdev, lun, cmd);
 155:Middlewares/ST/STM32_USB_Device_Library/Class/MSC/Src/usbd_msc_scsi.c ****       break;
 156:Middlewares/ST/STM32_USB_Device_Library/Class/MSC/Src/usbd_msc_scsi.c **** 
 157:Middlewares/ST/STM32_USB_Device_Library/Class/MSC/Src/usbd_msc_scsi.c ****     case SCSI_MODE_SENSE10:
 158:Middlewares/ST/STM32_USB_Device_Library/Class/MSC/Src/usbd_msc_scsi.c ****       ret = SCSI_ModeSense10(pdev, lun, cmd);
 159:Middlewares/ST/STM32_USB_Device_Library/Class/MSC/Src/usbd_msc_scsi.c ****       break;
 160:Middlewares/ST/STM32_USB_Device_Library/Class/MSC/Src/usbd_msc_scsi.c **** 
 161:Middlewares/ST/STM32_USB_Device_Library/Class/MSC/Src/usbd_msc_scsi.c ****     case SCSI_READ_FORMAT_CAPACITIES:
 162:Middlewares/ST/STM32_USB_Device_Library/Class/MSC/Src/usbd_msc_scsi.c ****       ret = SCSI_ReadFormatCapacity(pdev, lun, cmd);
 163:Middlewares/ST/STM32_USB_Device_Library/Class/MSC/Src/usbd_msc_scsi.c ****       break;
 164:Middlewares/ST/STM32_USB_Device_Library/Class/MSC/Src/usbd_msc_scsi.c **** 
 165:Middlewares/ST/STM32_USB_Device_Library/Class/MSC/Src/usbd_msc_scsi.c ****     case SCSI_READ_CAPACITY10:
 166:Middlewares/ST/STM32_USB_Device_Library/Class/MSC/Src/usbd_msc_scsi.c ****       ret = SCSI_ReadCapacity10(pdev, lun, cmd);
 167:Middlewares/ST/STM32_USB_Device_Library/Class/MSC/Src/usbd_msc_scsi.c ****       break;
 168:Middlewares/ST/STM32_USB_Device_Library/Class/MSC/Src/usbd_msc_scsi.c **** 
 169:Middlewares/ST/STM32_USB_Device_Library/Class/MSC/Src/usbd_msc_scsi.c ****     case SCSI_READ_CAPACITY16:
 170:Middlewares/ST/STM32_USB_Device_Library/Class/MSC/Src/usbd_msc_scsi.c ****       ret = SCSI_ReadCapacity16(pdev, lun, cmd);
 171:Middlewares/ST/STM32_USB_Device_Library/Class/MSC/Src/usbd_msc_scsi.c ****       break;
 172:Middlewares/ST/STM32_USB_Device_Library/Class/MSC/Src/usbd_msc_scsi.c **** 
 173:Middlewares/ST/STM32_USB_Device_Library/Class/MSC/Src/usbd_msc_scsi.c ****     case SCSI_READ10:
 174:Middlewares/ST/STM32_USB_Device_Library/Class/MSC/Src/usbd_msc_scsi.c ****       ret = SCSI_Read10(pdev, lun, cmd);
 175:Middlewares/ST/STM32_USB_Device_Library/Class/MSC/Src/usbd_msc_scsi.c ****       break;
 176:Middlewares/ST/STM32_USB_Device_Library/Class/MSC/Src/usbd_msc_scsi.c **** 
 177:Middlewares/ST/STM32_USB_Device_Library/Class/MSC/Src/usbd_msc_scsi.c ****     case SCSI_READ12:
 178:Middlewares/ST/STM32_USB_Device_Library/Class/MSC/Src/usbd_msc_scsi.c ****       ret = SCSI_Read12(pdev, lun, cmd);
 179:Middlewares/ST/STM32_USB_Device_Library/Class/MSC/Src/usbd_msc_scsi.c ****       break;
 180:Middlewares/ST/STM32_USB_Device_Library/Class/MSC/Src/usbd_msc_scsi.c **** 
 181:Middlewares/ST/STM32_USB_Device_Library/Class/MSC/Src/usbd_msc_scsi.c ****     case SCSI_WRITE10:
 182:Middlewares/ST/STM32_USB_Device_Library/Class/MSC/Src/usbd_msc_scsi.c ****       ret = SCSI_Write10(pdev, lun, cmd);
 183:Middlewares/ST/STM32_USB_Device_Library/Class/MSC/Src/usbd_msc_scsi.c ****       break;
 184:Middlewares/ST/STM32_USB_Device_Library/Class/MSC/Src/usbd_msc_scsi.c **** 
 185:Middlewares/ST/STM32_USB_Device_Library/Class/MSC/Src/usbd_msc_scsi.c ****     case SCSI_WRITE12:
 186:Middlewares/ST/STM32_USB_Device_Library/Class/MSC/Src/usbd_msc_scsi.c ****       ret = SCSI_Write12(pdev, lun, cmd);
 187:Middlewares/ST/STM32_USB_Device_Library/Class/MSC/Src/usbd_msc_scsi.c ****       break;
 188:Middlewares/ST/STM32_USB_Device_Library/Class/MSC/Src/usbd_msc_scsi.c **** 
 189:Middlewares/ST/STM32_USB_Device_Library/Class/MSC/Src/usbd_msc_scsi.c ****     case SCSI_VERIFY10:
 190:Middlewares/ST/STM32_USB_Device_Library/Class/MSC/Src/usbd_msc_scsi.c ****       ret = SCSI_Verify10(pdev, lun, cmd);
 191:Middlewares/ST/STM32_USB_Device_Library/Class/MSC/Src/usbd_msc_scsi.c ****       break;
 192:Middlewares/ST/STM32_USB_Device_Library/Class/MSC/Src/usbd_msc_scsi.c **** 
 193:Middlewares/ST/STM32_USB_Device_Library/Class/MSC/Src/usbd_msc_scsi.c ****     default:
 194:Middlewares/ST/STM32_USB_Device_Library/Class/MSC/Src/usbd_msc_scsi.c ****       SCSI_SenseCode(pdev, lun, ILLEGAL_REQUEST, INVALID_CDB);
 195:Middlewares/ST/STM32_USB_Device_Library/Class/MSC/Src/usbd_msc_scsi.c ****       hmsc->bot_status = USBD_BOT_STATUS_ERROR;
 196:Middlewares/ST/STM32_USB_Device_Library/Class/MSC/Src/usbd_msc_scsi.c ****       ret = -1;
 197:Middlewares/ST/STM32_USB_Device_Library/Class/MSC/Src/usbd_msc_scsi.c ****       break;
 198:Middlewares/ST/STM32_USB_Device_Library/Class/MSC/Src/usbd_msc_scsi.c ****   }
 199:Middlewares/ST/STM32_USB_Device_Library/Class/MSC/Src/usbd_msc_scsi.c **** 
 200:Middlewares/ST/STM32_USB_Device_Library/Class/MSC/Src/usbd_msc_scsi.c ****   return ret;
 201:Middlewares/ST/STM32_USB_Device_Library/Class/MSC/Src/usbd_msc_scsi.c **** }
ARM GAS  C:\Users\Admin\AppData\Local\Temp\ccCPzby3.s 			page 5


 202:Middlewares/ST/STM32_USB_Device_Library/Class/MSC/Src/usbd_msc_scsi.c **** 
 203:Middlewares/ST/STM32_USB_Device_Library/Class/MSC/Src/usbd_msc_scsi.c **** 
 204:Middlewares/ST/STM32_USB_Device_Library/Class/MSC/Src/usbd_msc_scsi.c **** /**
 205:Middlewares/ST/STM32_USB_Device_Library/Class/MSC/Src/usbd_msc_scsi.c ****   * @brief  SCSI_TestUnitReady
 206:Middlewares/ST/STM32_USB_Device_Library/Class/MSC/Src/usbd_msc_scsi.c ****   *         Process SCSI Test Unit Ready Command
 207:Middlewares/ST/STM32_USB_Device_Library/Class/MSC/Src/usbd_msc_scsi.c ****   * @param  lun: Logical unit number
 208:Middlewares/ST/STM32_USB_Device_Library/Class/MSC/Src/usbd_msc_scsi.c ****   * @param  params: Command parameters
 209:Middlewares/ST/STM32_USB_Device_Library/Class/MSC/Src/usbd_msc_scsi.c ****   * @retval status
 210:Middlewares/ST/STM32_USB_Device_Library/Class/MSC/Src/usbd_msc_scsi.c ****   */
 211:Middlewares/ST/STM32_USB_Device_Library/Class/MSC/Src/usbd_msc_scsi.c **** static int8_t SCSI_TestUnitReady(USBD_HandleTypeDef *pdev, uint8_t lun, uint8_t *params)
 212:Middlewares/ST/STM32_USB_Device_Library/Class/MSC/Src/usbd_msc_scsi.c **** {
 213:Middlewares/ST/STM32_USB_Device_Library/Class/MSC/Src/usbd_msc_scsi.c ****   UNUSED(params);
 214:Middlewares/ST/STM32_USB_Device_Library/Class/MSC/Src/usbd_msc_scsi.c ****   USBD_MSC_BOT_HandleTypeDef *hmsc = (USBD_MSC_BOT_HandleTypeDef *)pdev->pClassData;
 215:Middlewares/ST/STM32_USB_Device_Library/Class/MSC/Src/usbd_msc_scsi.c **** 
 216:Middlewares/ST/STM32_USB_Device_Library/Class/MSC/Src/usbd_msc_scsi.c ****   if (hmsc == NULL)
 217:Middlewares/ST/STM32_USB_Device_Library/Class/MSC/Src/usbd_msc_scsi.c ****   {
 218:Middlewares/ST/STM32_USB_Device_Library/Class/MSC/Src/usbd_msc_scsi.c ****     return -1;
 219:Middlewares/ST/STM32_USB_Device_Library/Class/MSC/Src/usbd_msc_scsi.c ****   }
 220:Middlewares/ST/STM32_USB_Device_Library/Class/MSC/Src/usbd_msc_scsi.c **** 
 221:Middlewares/ST/STM32_USB_Device_Library/Class/MSC/Src/usbd_msc_scsi.c ****   /* case 9 : Hi > D0 */
 222:Middlewares/ST/STM32_USB_Device_Library/Class/MSC/Src/usbd_msc_scsi.c ****   if (hmsc->cbw.dDataLength != 0U)
 223:Middlewares/ST/STM32_USB_Device_Library/Class/MSC/Src/usbd_msc_scsi.c ****   {
 224:Middlewares/ST/STM32_USB_Device_Library/Class/MSC/Src/usbd_msc_scsi.c ****     SCSI_SenseCode(pdev, hmsc->cbw.bLUN, ILLEGAL_REQUEST, INVALID_CDB);
 225:Middlewares/ST/STM32_USB_Device_Library/Class/MSC/Src/usbd_msc_scsi.c **** 
 226:Middlewares/ST/STM32_USB_Device_Library/Class/MSC/Src/usbd_msc_scsi.c ****     return -1;
 227:Middlewares/ST/STM32_USB_Device_Library/Class/MSC/Src/usbd_msc_scsi.c ****   }
 228:Middlewares/ST/STM32_USB_Device_Library/Class/MSC/Src/usbd_msc_scsi.c **** 
 229:Middlewares/ST/STM32_USB_Device_Library/Class/MSC/Src/usbd_msc_scsi.c ****   if (hmsc->scsi_medium_state == SCSI_MEDIUM_EJECTED)
 230:Middlewares/ST/STM32_USB_Device_Library/Class/MSC/Src/usbd_msc_scsi.c ****   {
 231:Middlewares/ST/STM32_USB_Device_Library/Class/MSC/Src/usbd_msc_scsi.c ****     SCSI_SenseCode(pdev, lun, NOT_READY, MEDIUM_NOT_PRESENT);
 232:Middlewares/ST/STM32_USB_Device_Library/Class/MSC/Src/usbd_msc_scsi.c ****     hmsc->bot_state = USBD_BOT_NO_DATA;
 233:Middlewares/ST/STM32_USB_Device_Library/Class/MSC/Src/usbd_msc_scsi.c ****     return -1;
 234:Middlewares/ST/STM32_USB_Device_Library/Class/MSC/Src/usbd_msc_scsi.c ****   }
 235:Middlewares/ST/STM32_USB_Device_Library/Class/MSC/Src/usbd_msc_scsi.c **** 
 236:Middlewares/ST/STM32_USB_Device_Library/Class/MSC/Src/usbd_msc_scsi.c ****   if (((USBD_StorageTypeDef *)pdev->pUserData)->IsReady(lun) != 0)
 237:Middlewares/ST/STM32_USB_Device_Library/Class/MSC/Src/usbd_msc_scsi.c ****   {
 238:Middlewares/ST/STM32_USB_Device_Library/Class/MSC/Src/usbd_msc_scsi.c ****     SCSI_SenseCode(pdev, lun, NOT_READY, MEDIUM_NOT_PRESENT);
 239:Middlewares/ST/STM32_USB_Device_Library/Class/MSC/Src/usbd_msc_scsi.c ****     hmsc->bot_state = USBD_BOT_NO_DATA;
 240:Middlewares/ST/STM32_USB_Device_Library/Class/MSC/Src/usbd_msc_scsi.c **** 
 241:Middlewares/ST/STM32_USB_Device_Library/Class/MSC/Src/usbd_msc_scsi.c ****     return -1;
 242:Middlewares/ST/STM32_USB_Device_Library/Class/MSC/Src/usbd_msc_scsi.c ****   }
 243:Middlewares/ST/STM32_USB_Device_Library/Class/MSC/Src/usbd_msc_scsi.c ****   hmsc->bot_data_length = 0U;
 244:Middlewares/ST/STM32_USB_Device_Library/Class/MSC/Src/usbd_msc_scsi.c **** 
 245:Middlewares/ST/STM32_USB_Device_Library/Class/MSC/Src/usbd_msc_scsi.c ****   return 0;
 246:Middlewares/ST/STM32_USB_Device_Library/Class/MSC/Src/usbd_msc_scsi.c **** }
 247:Middlewares/ST/STM32_USB_Device_Library/Class/MSC/Src/usbd_msc_scsi.c **** 
 248:Middlewares/ST/STM32_USB_Device_Library/Class/MSC/Src/usbd_msc_scsi.c **** 
 249:Middlewares/ST/STM32_USB_Device_Library/Class/MSC/Src/usbd_msc_scsi.c **** /**
 250:Middlewares/ST/STM32_USB_Device_Library/Class/MSC/Src/usbd_msc_scsi.c ****   * @brief  SCSI_Inquiry
 251:Middlewares/ST/STM32_USB_Device_Library/Class/MSC/Src/usbd_msc_scsi.c ****   *         Process Inquiry command
 252:Middlewares/ST/STM32_USB_Device_Library/Class/MSC/Src/usbd_msc_scsi.c ****   * @param  lun: Logical unit number
 253:Middlewares/ST/STM32_USB_Device_Library/Class/MSC/Src/usbd_msc_scsi.c ****   * @param  params: Command parameters
 254:Middlewares/ST/STM32_USB_Device_Library/Class/MSC/Src/usbd_msc_scsi.c ****   * @retval status
 255:Middlewares/ST/STM32_USB_Device_Library/Class/MSC/Src/usbd_msc_scsi.c ****   */
 256:Middlewares/ST/STM32_USB_Device_Library/Class/MSC/Src/usbd_msc_scsi.c **** static int8_t SCSI_Inquiry(USBD_HandleTypeDef *pdev, uint8_t lun, uint8_t *params)
 257:Middlewares/ST/STM32_USB_Device_Library/Class/MSC/Src/usbd_msc_scsi.c **** {
 258:Middlewares/ST/STM32_USB_Device_Library/Class/MSC/Src/usbd_msc_scsi.c ****   uint8_t *pPage;
ARM GAS  C:\Users\Admin\AppData\Local\Temp\ccCPzby3.s 			page 6


 259:Middlewares/ST/STM32_USB_Device_Library/Class/MSC/Src/usbd_msc_scsi.c ****   uint16_t len;
 260:Middlewares/ST/STM32_USB_Device_Library/Class/MSC/Src/usbd_msc_scsi.c ****   USBD_MSC_BOT_HandleTypeDef *hmsc = (USBD_MSC_BOT_HandleTypeDef *)pdev->pClassData;
 261:Middlewares/ST/STM32_USB_Device_Library/Class/MSC/Src/usbd_msc_scsi.c **** 
 262:Middlewares/ST/STM32_USB_Device_Library/Class/MSC/Src/usbd_msc_scsi.c ****   if (hmsc == NULL)
 263:Middlewares/ST/STM32_USB_Device_Library/Class/MSC/Src/usbd_msc_scsi.c ****   {
 264:Middlewares/ST/STM32_USB_Device_Library/Class/MSC/Src/usbd_msc_scsi.c ****     return -1;
 265:Middlewares/ST/STM32_USB_Device_Library/Class/MSC/Src/usbd_msc_scsi.c ****   }
 266:Middlewares/ST/STM32_USB_Device_Library/Class/MSC/Src/usbd_msc_scsi.c **** 
 267:Middlewares/ST/STM32_USB_Device_Library/Class/MSC/Src/usbd_msc_scsi.c ****   if (hmsc->cbw.dDataLength == 0U)
 268:Middlewares/ST/STM32_USB_Device_Library/Class/MSC/Src/usbd_msc_scsi.c ****   {
 269:Middlewares/ST/STM32_USB_Device_Library/Class/MSC/Src/usbd_msc_scsi.c ****     SCSI_SenseCode(pdev, hmsc->cbw.bLUN, ILLEGAL_REQUEST, INVALID_CDB);
 270:Middlewares/ST/STM32_USB_Device_Library/Class/MSC/Src/usbd_msc_scsi.c ****     return -1;
 271:Middlewares/ST/STM32_USB_Device_Library/Class/MSC/Src/usbd_msc_scsi.c ****   }
 272:Middlewares/ST/STM32_USB_Device_Library/Class/MSC/Src/usbd_msc_scsi.c **** 
 273:Middlewares/ST/STM32_USB_Device_Library/Class/MSC/Src/usbd_msc_scsi.c ****   if ((params[1] & 0x01U) != 0U) /* Evpd is set */
 274:Middlewares/ST/STM32_USB_Device_Library/Class/MSC/Src/usbd_msc_scsi.c ****   {
 275:Middlewares/ST/STM32_USB_Device_Library/Class/MSC/Src/usbd_msc_scsi.c ****     if (params[2] == 0U) /* Request for Supported Vital Product Data Pages*/
 276:Middlewares/ST/STM32_USB_Device_Library/Class/MSC/Src/usbd_msc_scsi.c ****     {
 277:Middlewares/ST/STM32_USB_Device_Library/Class/MSC/Src/usbd_msc_scsi.c ****       (void)SCSI_UpdateBotData(hmsc, MSC_Page00_Inquiry_Data, LENGTH_INQUIRY_PAGE00);
 278:Middlewares/ST/STM32_USB_Device_Library/Class/MSC/Src/usbd_msc_scsi.c ****     }
 279:Middlewares/ST/STM32_USB_Device_Library/Class/MSC/Src/usbd_msc_scsi.c ****     else if (params[2] == 0x80U) /* Request for VPD page 0x80 Unit Serial Number */
 280:Middlewares/ST/STM32_USB_Device_Library/Class/MSC/Src/usbd_msc_scsi.c ****     {
 281:Middlewares/ST/STM32_USB_Device_Library/Class/MSC/Src/usbd_msc_scsi.c ****       (void)SCSI_UpdateBotData(hmsc, MSC_Page80_Inquiry_Data, LENGTH_INQUIRY_PAGE80);
 282:Middlewares/ST/STM32_USB_Device_Library/Class/MSC/Src/usbd_msc_scsi.c ****     }
 283:Middlewares/ST/STM32_USB_Device_Library/Class/MSC/Src/usbd_msc_scsi.c ****     else /* Request Not supported */
 284:Middlewares/ST/STM32_USB_Device_Library/Class/MSC/Src/usbd_msc_scsi.c ****     {
 285:Middlewares/ST/STM32_USB_Device_Library/Class/MSC/Src/usbd_msc_scsi.c ****       SCSI_SenseCode(pdev, hmsc->cbw.bLUN, ILLEGAL_REQUEST,
 286:Middlewares/ST/STM32_USB_Device_Library/Class/MSC/Src/usbd_msc_scsi.c ****                      INVALID_FIELED_IN_COMMAND);
 287:Middlewares/ST/STM32_USB_Device_Library/Class/MSC/Src/usbd_msc_scsi.c **** 
 288:Middlewares/ST/STM32_USB_Device_Library/Class/MSC/Src/usbd_msc_scsi.c ****       return -1;
 289:Middlewares/ST/STM32_USB_Device_Library/Class/MSC/Src/usbd_msc_scsi.c ****     }
 290:Middlewares/ST/STM32_USB_Device_Library/Class/MSC/Src/usbd_msc_scsi.c ****   }
 291:Middlewares/ST/STM32_USB_Device_Library/Class/MSC/Src/usbd_msc_scsi.c ****   else
 292:Middlewares/ST/STM32_USB_Device_Library/Class/MSC/Src/usbd_msc_scsi.c ****   {
 293:Middlewares/ST/STM32_USB_Device_Library/Class/MSC/Src/usbd_msc_scsi.c ****     pPage = (uint8_t *) &((USBD_StorageTypeDef *)pdev->pUserData)->pInquiry[lun * STANDARD_INQUIRY_
 294:Middlewares/ST/STM32_USB_Device_Library/Class/MSC/Src/usbd_msc_scsi.c ****     len = (uint16_t)pPage[4] + 5U;
 295:Middlewares/ST/STM32_USB_Device_Library/Class/MSC/Src/usbd_msc_scsi.c **** 
 296:Middlewares/ST/STM32_USB_Device_Library/Class/MSC/Src/usbd_msc_scsi.c ****     if (params[4] <= len)
 297:Middlewares/ST/STM32_USB_Device_Library/Class/MSC/Src/usbd_msc_scsi.c ****     {
 298:Middlewares/ST/STM32_USB_Device_Library/Class/MSC/Src/usbd_msc_scsi.c ****       len = params[4];
 299:Middlewares/ST/STM32_USB_Device_Library/Class/MSC/Src/usbd_msc_scsi.c ****     }
 300:Middlewares/ST/STM32_USB_Device_Library/Class/MSC/Src/usbd_msc_scsi.c **** 
 301:Middlewares/ST/STM32_USB_Device_Library/Class/MSC/Src/usbd_msc_scsi.c ****     (void)SCSI_UpdateBotData(hmsc, pPage, len);
 302:Middlewares/ST/STM32_USB_Device_Library/Class/MSC/Src/usbd_msc_scsi.c ****   }
 303:Middlewares/ST/STM32_USB_Device_Library/Class/MSC/Src/usbd_msc_scsi.c **** 
 304:Middlewares/ST/STM32_USB_Device_Library/Class/MSC/Src/usbd_msc_scsi.c ****   return 0;
 305:Middlewares/ST/STM32_USB_Device_Library/Class/MSC/Src/usbd_msc_scsi.c **** }
 306:Middlewares/ST/STM32_USB_Device_Library/Class/MSC/Src/usbd_msc_scsi.c **** 
 307:Middlewares/ST/STM32_USB_Device_Library/Class/MSC/Src/usbd_msc_scsi.c **** 
 308:Middlewares/ST/STM32_USB_Device_Library/Class/MSC/Src/usbd_msc_scsi.c **** /**
 309:Middlewares/ST/STM32_USB_Device_Library/Class/MSC/Src/usbd_msc_scsi.c ****   * @brief  SCSI_ReadCapacity10
 310:Middlewares/ST/STM32_USB_Device_Library/Class/MSC/Src/usbd_msc_scsi.c ****   *         Process Read Capacity 10 command
 311:Middlewares/ST/STM32_USB_Device_Library/Class/MSC/Src/usbd_msc_scsi.c ****   * @param  lun: Logical unit number
 312:Middlewares/ST/STM32_USB_Device_Library/Class/MSC/Src/usbd_msc_scsi.c ****   * @param  params: Command parameters
 313:Middlewares/ST/STM32_USB_Device_Library/Class/MSC/Src/usbd_msc_scsi.c ****   * @retval status
 314:Middlewares/ST/STM32_USB_Device_Library/Class/MSC/Src/usbd_msc_scsi.c ****   */
 315:Middlewares/ST/STM32_USB_Device_Library/Class/MSC/Src/usbd_msc_scsi.c **** static int8_t SCSI_ReadCapacity10(USBD_HandleTypeDef *pdev, uint8_t lun, uint8_t *params)
ARM GAS  C:\Users\Admin\AppData\Local\Temp\ccCPzby3.s 			page 7


 316:Middlewares/ST/STM32_USB_Device_Library/Class/MSC/Src/usbd_msc_scsi.c **** {
 317:Middlewares/ST/STM32_USB_Device_Library/Class/MSC/Src/usbd_msc_scsi.c ****   UNUSED(params);
 318:Middlewares/ST/STM32_USB_Device_Library/Class/MSC/Src/usbd_msc_scsi.c ****   int8_t ret;
 319:Middlewares/ST/STM32_USB_Device_Library/Class/MSC/Src/usbd_msc_scsi.c ****   USBD_MSC_BOT_HandleTypeDef *hmsc = (USBD_MSC_BOT_HandleTypeDef *)pdev->pClassData;
 320:Middlewares/ST/STM32_USB_Device_Library/Class/MSC/Src/usbd_msc_scsi.c **** 
 321:Middlewares/ST/STM32_USB_Device_Library/Class/MSC/Src/usbd_msc_scsi.c ****   if (hmsc == NULL)
 322:Middlewares/ST/STM32_USB_Device_Library/Class/MSC/Src/usbd_msc_scsi.c ****   {
 323:Middlewares/ST/STM32_USB_Device_Library/Class/MSC/Src/usbd_msc_scsi.c ****     return -1;
 324:Middlewares/ST/STM32_USB_Device_Library/Class/MSC/Src/usbd_msc_scsi.c ****   }
 325:Middlewares/ST/STM32_USB_Device_Library/Class/MSC/Src/usbd_msc_scsi.c **** 
 326:Middlewares/ST/STM32_USB_Device_Library/Class/MSC/Src/usbd_msc_scsi.c ****   ret = ((USBD_StorageTypeDef *)pdev->pUserData)->GetCapacity(lun, &hmsc->scsi_blk_nbr, &hmsc->scsi
 327:Middlewares/ST/STM32_USB_Device_Library/Class/MSC/Src/usbd_msc_scsi.c **** 
 328:Middlewares/ST/STM32_USB_Device_Library/Class/MSC/Src/usbd_msc_scsi.c ****   if ((ret != 0) || (hmsc->scsi_medium_state == SCSI_MEDIUM_EJECTED))
 329:Middlewares/ST/STM32_USB_Device_Library/Class/MSC/Src/usbd_msc_scsi.c ****   {
 330:Middlewares/ST/STM32_USB_Device_Library/Class/MSC/Src/usbd_msc_scsi.c ****     SCSI_SenseCode(pdev, lun, NOT_READY, MEDIUM_NOT_PRESENT);
 331:Middlewares/ST/STM32_USB_Device_Library/Class/MSC/Src/usbd_msc_scsi.c ****     return -1;
 332:Middlewares/ST/STM32_USB_Device_Library/Class/MSC/Src/usbd_msc_scsi.c ****   }
 333:Middlewares/ST/STM32_USB_Device_Library/Class/MSC/Src/usbd_msc_scsi.c **** 
 334:Middlewares/ST/STM32_USB_Device_Library/Class/MSC/Src/usbd_msc_scsi.c ****   hmsc->bot_data[0] = (uint8_t)((hmsc->scsi_blk_nbr - 1U) >> 24);
 335:Middlewares/ST/STM32_USB_Device_Library/Class/MSC/Src/usbd_msc_scsi.c ****   hmsc->bot_data[1] = (uint8_t)((hmsc->scsi_blk_nbr - 1U) >> 16);
 336:Middlewares/ST/STM32_USB_Device_Library/Class/MSC/Src/usbd_msc_scsi.c ****   hmsc->bot_data[2] = (uint8_t)((hmsc->scsi_blk_nbr - 1U) >>  8);
 337:Middlewares/ST/STM32_USB_Device_Library/Class/MSC/Src/usbd_msc_scsi.c ****   hmsc->bot_data[3] = (uint8_t)(hmsc->scsi_blk_nbr - 1U);
 338:Middlewares/ST/STM32_USB_Device_Library/Class/MSC/Src/usbd_msc_scsi.c **** 
 339:Middlewares/ST/STM32_USB_Device_Library/Class/MSC/Src/usbd_msc_scsi.c ****   hmsc->bot_data[4] = (uint8_t)(hmsc->scsi_blk_size >>  24);
 340:Middlewares/ST/STM32_USB_Device_Library/Class/MSC/Src/usbd_msc_scsi.c ****   hmsc->bot_data[5] = (uint8_t)(hmsc->scsi_blk_size >>  16);
 341:Middlewares/ST/STM32_USB_Device_Library/Class/MSC/Src/usbd_msc_scsi.c ****   hmsc->bot_data[6] = (uint8_t)(hmsc->scsi_blk_size >>  8);
 342:Middlewares/ST/STM32_USB_Device_Library/Class/MSC/Src/usbd_msc_scsi.c ****   hmsc->bot_data[7] = (uint8_t)(hmsc->scsi_blk_size);
 343:Middlewares/ST/STM32_USB_Device_Library/Class/MSC/Src/usbd_msc_scsi.c **** 
 344:Middlewares/ST/STM32_USB_Device_Library/Class/MSC/Src/usbd_msc_scsi.c ****   hmsc->bot_data_length = 8U;
 345:Middlewares/ST/STM32_USB_Device_Library/Class/MSC/Src/usbd_msc_scsi.c **** 
 346:Middlewares/ST/STM32_USB_Device_Library/Class/MSC/Src/usbd_msc_scsi.c ****   return 0;
 347:Middlewares/ST/STM32_USB_Device_Library/Class/MSC/Src/usbd_msc_scsi.c **** 
 348:Middlewares/ST/STM32_USB_Device_Library/Class/MSC/Src/usbd_msc_scsi.c **** }
 349:Middlewares/ST/STM32_USB_Device_Library/Class/MSC/Src/usbd_msc_scsi.c **** 
 350:Middlewares/ST/STM32_USB_Device_Library/Class/MSC/Src/usbd_msc_scsi.c **** 
 351:Middlewares/ST/STM32_USB_Device_Library/Class/MSC/Src/usbd_msc_scsi.c **** /**
 352:Middlewares/ST/STM32_USB_Device_Library/Class/MSC/Src/usbd_msc_scsi.c ****   * @brief  SCSI_ReadCapacity16
 353:Middlewares/ST/STM32_USB_Device_Library/Class/MSC/Src/usbd_msc_scsi.c ****   *         Process Read Capacity 16 command
 354:Middlewares/ST/STM32_USB_Device_Library/Class/MSC/Src/usbd_msc_scsi.c ****   * @param  lun: Logical unit number
 355:Middlewares/ST/STM32_USB_Device_Library/Class/MSC/Src/usbd_msc_scsi.c ****   * @param  params: Command parameters
 356:Middlewares/ST/STM32_USB_Device_Library/Class/MSC/Src/usbd_msc_scsi.c ****   * @retval status
 357:Middlewares/ST/STM32_USB_Device_Library/Class/MSC/Src/usbd_msc_scsi.c ****   */
 358:Middlewares/ST/STM32_USB_Device_Library/Class/MSC/Src/usbd_msc_scsi.c **** static int8_t SCSI_ReadCapacity16(USBD_HandleTypeDef *pdev, uint8_t lun, uint8_t *params)
 359:Middlewares/ST/STM32_USB_Device_Library/Class/MSC/Src/usbd_msc_scsi.c **** {
 360:Middlewares/ST/STM32_USB_Device_Library/Class/MSC/Src/usbd_msc_scsi.c ****   UNUSED(params);
 361:Middlewares/ST/STM32_USB_Device_Library/Class/MSC/Src/usbd_msc_scsi.c ****   uint8_t idx;
 362:Middlewares/ST/STM32_USB_Device_Library/Class/MSC/Src/usbd_msc_scsi.c ****   int8_t ret;
 363:Middlewares/ST/STM32_USB_Device_Library/Class/MSC/Src/usbd_msc_scsi.c ****   USBD_MSC_BOT_HandleTypeDef *hmsc = (USBD_MSC_BOT_HandleTypeDef *)pdev->pClassData;
 364:Middlewares/ST/STM32_USB_Device_Library/Class/MSC/Src/usbd_msc_scsi.c **** 
 365:Middlewares/ST/STM32_USB_Device_Library/Class/MSC/Src/usbd_msc_scsi.c ****   if (hmsc == NULL)
 366:Middlewares/ST/STM32_USB_Device_Library/Class/MSC/Src/usbd_msc_scsi.c ****   {
 367:Middlewares/ST/STM32_USB_Device_Library/Class/MSC/Src/usbd_msc_scsi.c ****     return -1;
 368:Middlewares/ST/STM32_USB_Device_Library/Class/MSC/Src/usbd_msc_scsi.c ****   }
 369:Middlewares/ST/STM32_USB_Device_Library/Class/MSC/Src/usbd_msc_scsi.c **** 
 370:Middlewares/ST/STM32_USB_Device_Library/Class/MSC/Src/usbd_msc_scsi.c ****   ret = ((USBD_StorageTypeDef *)pdev->pUserData)->GetCapacity(lun, &hmsc->scsi_blk_nbr, &hmsc->scsi
 371:Middlewares/ST/STM32_USB_Device_Library/Class/MSC/Src/usbd_msc_scsi.c **** 
 372:Middlewares/ST/STM32_USB_Device_Library/Class/MSC/Src/usbd_msc_scsi.c ****   if ((ret != 0) || (hmsc->scsi_medium_state == SCSI_MEDIUM_EJECTED))
ARM GAS  C:\Users\Admin\AppData\Local\Temp\ccCPzby3.s 			page 8


 373:Middlewares/ST/STM32_USB_Device_Library/Class/MSC/Src/usbd_msc_scsi.c ****   {
 374:Middlewares/ST/STM32_USB_Device_Library/Class/MSC/Src/usbd_msc_scsi.c ****     SCSI_SenseCode(pdev, lun, NOT_READY, MEDIUM_NOT_PRESENT);
 375:Middlewares/ST/STM32_USB_Device_Library/Class/MSC/Src/usbd_msc_scsi.c ****     return -1;
 376:Middlewares/ST/STM32_USB_Device_Library/Class/MSC/Src/usbd_msc_scsi.c ****   }
 377:Middlewares/ST/STM32_USB_Device_Library/Class/MSC/Src/usbd_msc_scsi.c **** 
 378:Middlewares/ST/STM32_USB_Device_Library/Class/MSC/Src/usbd_msc_scsi.c ****   hmsc->bot_data_length = ((uint32_t)params[10] << 24) |
 379:Middlewares/ST/STM32_USB_Device_Library/Class/MSC/Src/usbd_msc_scsi.c ****                           ((uint32_t)params[11] << 16) |
 380:Middlewares/ST/STM32_USB_Device_Library/Class/MSC/Src/usbd_msc_scsi.c ****                           ((uint32_t)params[12] <<  8) |
 381:Middlewares/ST/STM32_USB_Device_Library/Class/MSC/Src/usbd_msc_scsi.c ****                           (uint32_t)params[13];
 382:Middlewares/ST/STM32_USB_Device_Library/Class/MSC/Src/usbd_msc_scsi.c **** 
 383:Middlewares/ST/STM32_USB_Device_Library/Class/MSC/Src/usbd_msc_scsi.c ****   for (idx = 0U; idx < hmsc->bot_data_length; idx++)
 384:Middlewares/ST/STM32_USB_Device_Library/Class/MSC/Src/usbd_msc_scsi.c ****   {
 385:Middlewares/ST/STM32_USB_Device_Library/Class/MSC/Src/usbd_msc_scsi.c ****     hmsc->bot_data[idx] = 0U;
 386:Middlewares/ST/STM32_USB_Device_Library/Class/MSC/Src/usbd_msc_scsi.c ****   }
 387:Middlewares/ST/STM32_USB_Device_Library/Class/MSC/Src/usbd_msc_scsi.c **** 
 388:Middlewares/ST/STM32_USB_Device_Library/Class/MSC/Src/usbd_msc_scsi.c ****   hmsc->bot_data[4] = (uint8_t)((hmsc->scsi_blk_nbr - 1U) >> 24);
 389:Middlewares/ST/STM32_USB_Device_Library/Class/MSC/Src/usbd_msc_scsi.c ****   hmsc->bot_data[5] = (uint8_t)((hmsc->scsi_blk_nbr - 1U) >> 16);
 390:Middlewares/ST/STM32_USB_Device_Library/Class/MSC/Src/usbd_msc_scsi.c ****   hmsc->bot_data[6] = (uint8_t)((hmsc->scsi_blk_nbr - 1U) >>  8);
 391:Middlewares/ST/STM32_USB_Device_Library/Class/MSC/Src/usbd_msc_scsi.c ****   hmsc->bot_data[7] = (uint8_t)(hmsc->scsi_blk_nbr - 1U);
 392:Middlewares/ST/STM32_USB_Device_Library/Class/MSC/Src/usbd_msc_scsi.c **** 
 393:Middlewares/ST/STM32_USB_Device_Library/Class/MSC/Src/usbd_msc_scsi.c ****   hmsc->bot_data[8] = (uint8_t)(hmsc->scsi_blk_size >>  24);
 394:Middlewares/ST/STM32_USB_Device_Library/Class/MSC/Src/usbd_msc_scsi.c ****   hmsc->bot_data[9] = (uint8_t)(hmsc->scsi_blk_size >>  16);
 395:Middlewares/ST/STM32_USB_Device_Library/Class/MSC/Src/usbd_msc_scsi.c ****   hmsc->bot_data[10] = (uint8_t)(hmsc->scsi_blk_size >>  8);
 396:Middlewares/ST/STM32_USB_Device_Library/Class/MSC/Src/usbd_msc_scsi.c ****   hmsc->bot_data[11] = (uint8_t)(hmsc->scsi_blk_size);
 397:Middlewares/ST/STM32_USB_Device_Library/Class/MSC/Src/usbd_msc_scsi.c **** 
 398:Middlewares/ST/STM32_USB_Device_Library/Class/MSC/Src/usbd_msc_scsi.c ****   hmsc->bot_data_length = ((uint32_t)params[10] << 24) |
 399:Middlewares/ST/STM32_USB_Device_Library/Class/MSC/Src/usbd_msc_scsi.c ****                           ((uint32_t)params[11] << 16) |
 400:Middlewares/ST/STM32_USB_Device_Library/Class/MSC/Src/usbd_msc_scsi.c ****                           ((uint32_t)params[12] <<  8) |
 401:Middlewares/ST/STM32_USB_Device_Library/Class/MSC/Src/usbd_msc_scsi.c ****                           (uint32_t)params[13];
 402:Middlewares/ST/STM32_USB_Device_Library/Class/MSC/Src/usbd_msc_scsi.c **** 
 403:Middlewares/ST/STM32_USB_Device_Library/Class/MSC/Src/usbd_msc_scsi.c ****   return 0;
 404:Middlewares/ST/STM32_USB_Device_Library/Class/MSC/Src/usbd_msc_scsi.c **** }
 405:Middlewares/ST/STM32_USB_Device_Library/Class/MSC/Src/usbd_msc_scsi.c **** 
 406:Middlewares/ST/STM32_USB_Device_Library/Class/MSC/Src/usbd_msc_scsi.c **** 
 407:Middlewares/ST/STM32_USB_Device_Library/Class/MSC/Src/usbd_msc_scsi.c **** /**
 408:Middlewares/ST/STM32_USB_Device_Library/Class/MSC/Src/usbd_msc_scsi.c ****   * @brief  SCSI_ReadFormatCapacity
 409:Middlewares/ST/STM32_USB_Device_Library/Class/MSC/Src/usbd_msc_scsi.c ****   *         Process Read Format Capacity command
 410:Middlewares/ST/STM32_USB_Device_Library/Class/MSC/Src/usbd_msc_scsi.c ****   * @param  lun: Logical unit number
 411:Middlewares/ST/STM32_USB_Device_Library/Class/MSC/Src/usbd_msc_scsi.c ****   * @param  params: Command parameters
 412:Middlewares/ST/STM32_USB_Device_Library/Class/MSC/Src/usbd_msc_scsi.c ****   * @retval status
 413:Middlewares/ST/STM32_USB_Device_Library/Class/MSC/Src/usbd_msc_scsi.c ****   */
 414:Middlewares/ST/STM32_USB_Device_Library/Class/MSC/Src/usbd_msc_scsi.c **** static int8_t SCSI_ReadFormatCapacity(USBD_HandleTypeDef *pdev, uint8_t lun, uint8_t *params)
 415:Middlewares/ST/STM32_USB_Device_Library/Class/MSC/Src/usbd_msc_scsi.c **** {
 416:Middlewares/ST/STM32_USB_Device_Library/Class/MSC/Src/usbd_msc_scsi.c ****   UNUSED(params);
 417:Middlewares/ST/STM32_USB_Device_Library/Class/MSC/Src/usbd_msc_scsi.c ****   uint16_t blk_size;
 418:Middlewares/ST/STM32_USB_Device_Library/Class/MSC/Src/usbd_msc_scsi.c ****   uint32_t blk_nbr;
 419:Middlewares/ST/STM32_USB_Device_Library/Class/MSC/Src/usbd_msc_scsi.c ****   uint16_t i;
 420:Middlewares/ST/STM32_USB_Device_Library/Class/MSC/Src/usbd_msc_scsi.c ****   int8_t ret;
 421:Middlewares/ST/STM32_USB_Device_Library/Class/MSC/Src/usbd_msc_scsi.c ****   USBD_MSC_BOT_HandleTypeDef *hmsc = (USBD_MSC_BOT_HandleTypeDef *)pdev->pClassData;
 422:Middlewares/ST/STM32_USB_Device_Library/Class/MSC/Src/usbd_msc_scsi.c **** 
 423:Middlewares/ST/STM32_USB_Device_Library/Class/MSC/Src/usbd_msc_scsi.c ****   if (hmsc == NULL)
 424:Middlewares/ST/STM32_USB_Device_Library/Class/MSC/Src/usbd_msc_scsi.c ****   {
 425:Middlewares/ST/STM32_USB_Device_Library/Class/MSC/Src/usbd_msc_scsi.c ****     return -1;
 426:Middlewares/ST/STM32_USB_Device_Library/Class/MSC/Src/usbd_msc_scsi.c ****   }
 427:Middlewares/ST/STM32_USB_Device_Library/Class/MSC/Src/usbd_msc_scsi.c **** 
 428:Middlewares/ST/STM32_USB_Device_Library/Class/MSC/Src/usbd_msc_scsi.c ****   ret = ((USBD_StorageTypeDef *)pdev->pUserData)->GetCapacity(lun, &blk_nbr, &blk_size);
 429:Middlewares/ST/STM32_USB_Device_Library/Class/MSC/Src/usbd_msc_scsi.c **** 
ARM GAS  C:\Users\Admin\AppData\Local\Temp\ccCPzby3.s 			page 9


 430:Middlewares/ST/STM32_USB_Device_Library/Class/MSC/Src/usbd_msc_scsi.c ****   if ((ret != 0) || (hmsc->scsi_medium_state == SCSI_MEDIUM_EJECTED))
 431:Middlewares/ST/STM32_USB_Device_Library/Class/MSC/Src/usbd_msc_scsi.c ****   {
 432:Middlewares/ST/STM32_USB_Device_Library/Class/MSC/Src/usbd_msc_scsi.c ****     SCSI_SenseCode(pdev, lun, NOT_READY, MEDIUM_NOT_PRESENT);
 433:Middlewares/ST/STM32_USB_Device_Library/Class/MSC/Src/usbd_msc_scsi.c ****     return -1;
 434:Middlewares/ST/STM32_USB_Device_Library/Class/MSC/Src/usbd_msc_scsi.c ****   }
 435:Middlewares/ST/STM32_USB_Device_Library/Class/MSC/Src/usbd_msc_scsi.c **** 
 436:Middlewares/ST/STM32_USB_Device_Library/Class/MSC/Src/usbd_msc_scsi.c ****   for (i = 0U; i < 12U ; i++)
 437:Middlewares/ST/STM32_USB_Device_Library/Class/MSC/Src/usbd_msc_scsi.c ****   {
 438:Middlewares/ST/STM32_USB_Device_Library/Class/MSC/Src/usbd_msc_scsi.c ****     hmsc->bot_data[i] = 0U;
 439:Middlewares/ST/STM32_USB_Device_Library/Class/MSC/Src/usbd_msc_scsi.c ****   }
 440:Middlewares/ST/STM32_USB_Device_Library/Class/MSC/Src/usbd_msc_scsi.c **** 
 441:Middlewares/ST/STM32_USB_Device_Library/Class/MSC/Src/usbd_msc_scsi.c ****   hmsc->bot_data[3] = 0x08U;
 442:Middlewares/ST/STM32_USB_Device_Library/Class/MSC/Src/usbd_msc_scsi.c ****   hmsc->bot_data[4] = (uint8_t)((blk_nbr - 1U) >> 24);
 443:Middlewares/ST/STM32_USB_Device_Library/Class/MSC/Src/usbd_msc_scsi.c ****   hmsc->bot_data[5] = (uint8_t)((blk_nbr - 1U) >> 16);
 444:Middlewares/ST/STM32_USB_Device_Library/Class/MSC/Src/usbd_msc_scsi.c ****   hmsc->bot_data[6] = (uint8_t)((blk_nbr - 1U) >>  8);
 445:Middlewares/ST/STM32_USB_Device_Library/Class/MSC/Src/usbd_msc_scsi.c ****   hmsc->bot_data[7] = (uint8_t)(blk_nbr - 1U);
 446:Middlewares/ST/STM32_USB_Device_Library/Class/MSC/Src/usbd_msc_scsi.c **** 
 447:Middlewares/ST/STM32_USB_Device_Library/Class/MSC/Src/usbd_msc_scsi.c ****   hmsc->bot_data[8] = 0x02U;
 448:Middlewares/ST/STM32_USB_Device_Library/Class/MSC/Src/usbd_msc_scsi.c ****   hmsc->bot_data[9] = (uint8_t)(blk_size >>  16);
 449:Middlewares/ST/STM32_USB_Device_Library/Class/MSC/Src/usbd_msc_scsi.c ****   hmsc->bot_data[10] = (uint8_t)(blk_size >>  8);
 450:Middlewares/ST/STM32_USB_Device_Library/Class/MSC/Src/usbd_msc_scsi.c ****   hmsc->bot_data[11] = (uint8_t)(blk_size);
 451:Middlewares/ST/STM32_USB_Device_Library/Class/MSC/Src/usbd_msc_scsi.c **** 
 452:Middlewares/ST/STM32_USB_Device_Library/Class/MSC/Src/usbd_msc_scsi.c ****   hmsc->bot_data_length = 12U;
 453:Middlewares/ST/STM32_USB_Device_Library/Class/MSC/Src/usbd_msc_scsi.c **** 
 454:Middlewares/ST/STM32_USB_Device_Library/Class/MSC/Src/usbd_msc_scsi.c ****   return 0;
 455:Middlewares/ST/STM32_USB_Device_Library/Class/MSC/Src/usbd_msc_scsi.c **** }
 456:Middlewares/ST/STM32_USB_Device_Library/Class/MSC/Src/usbd_msc_scsi.c **** 
 457:Middlewares/ST/STM32_USB_Device_Library/Class/MSC/Src/usbd_msc_scsi.c **** 
 458:Middlewares/ST/STM32_USB_Device_Library/Class/MSC/Src/usbd_msc_scsi.c **** /**
 459:Middlewares/ST/STM32_USB_Device_Library/Class/MSC/Src/usbd_msc_scsi.c ****   * @brief  SCSI_ModeSense6
 460:Middlewares/ST/STM32_USB_Device_Library/Class/MSC/Src/usbd_msc_scsi.c ****   *         Process Mode Sense6 command
 461:Middlewares/ST/STM32_USB_Device_Library/Class/MSC/Src/usbd_msc_scsi.c ****   * @param  lun: Logical unit number
 462:Middlewares/ST/STM32_USB_Device_Library/Class/MSC/Src/usbd_msc_scsi.c ****   * @param  params: Command parameters
 463:Middlewares/ST/STM32_USB_Device_Library/Class/MSC/Src/usbd_msc_scsi.c ****   * @retval status
 464:Middlewares/ST/STM32_USB_Device_Library/Class/MSC/Src/usbd_msc_scsi.c ****   */
 465:Middlewares/ST/STM32_USB_Device_Library/Class/MSC/Src/usbd_msc_scsi.c **** static int8_t SCSI_ModeSense6(USBD_HandleTypeDef *pdev, uint8_t lun, uint8_t *params)
 466:Middlewares/ST/STM32_USB_Device_Library/Class/MSC/Src/usbd_msc_scsi.c **** {
 467:Middlewares/ST/STM32_USB_Device_Library/Class/MSC/Src/usbd_msc_scsi.c ****   UNUSED(lun);
 468:Middlewares/ST/STM32_USB_Device_Library/Class/MSC/Src/usbd_msc_scsi.c ****   USBD_MSC_BOT_HandleTypeDef *hmsc = (USBD_MSC_BOT_HandleTypeDef *)pdev->pClassData;
 469:Middlewares/ST/STM32_USB_Device_Library/Class/MSC/Src/usbd_msc_scsi.c ****   uint16_t len = MODE_SENSE6_LEN;
 470:Middlewares/ST/STM32_USB_Device_Library/Class/MSC/Src/usbd_msc_scsi.c **** 
 471:Middlewares/ST/STM32_USB_Device_Library/Class/MSC/Src/usbd_msc_scsi.c ****   if (hmsc == NULL)
 472:Middlewares/ST/STM32_USB_Device_Library/Class/MSC/Src/usbd_msc_scsi.c ****   {
 473:Middlewares/ST/STM32_USB_Device_Library/Class/MSC/Src/usbd_msc_scsi.c ****     return -1;
 474:Middlewares/ST/STM32_USB_Device_Library/Class/MSC/Src/usbd_msc_scsi.c ****   }
 475:Middlewares/ST/STM32_USB_Device_Library/Class/MSC/Src/usbd_msc_scsi.c **** 
 476:Middlewares/ST/STM32_USB_Device_Library/Class/MSC/Src/usbd_msc_scsi.c ****   if (params[4] <= len)
 477:Middlewares/ST/STM32_USB_Device_Library/Class/MSC/Src/usbd_msc_scsi.c ****   {
 478:Middlewares/ST/STM32_USB_Device_Library/Class/MSC/Src/usbd_msc_scsi.c ****     len = params[4];
 479:Middlewares/ST/STM32_USB_Device_Library/Class/MSC/Src/usbd_msc_scsi.c ****   }
 480:Middlewares/ST/STM32_USB_Device_Library/Class/MSC/Src/usbd_msc_scsi.c **** 
 481:Middlewares/ST/STM32_USB_Device_Library/Class/MSC/Src/usbd_msc_scsi.c ****   (void)SCSI_UpdateBotData(hmsc, MSC_Mode_Sense6_data, len);
 482:Middlewares/ST/STM32_USB_Device_Library/Class/MSC/Src/usbd_msc_scsi.c **** 
 483:Middlewares/ST/STM32_USB_Device_Library/Class/MSC/Src/usbd_msc_scsi.c ****   return 0;
 484:Middlewares/ST/STM32_USB_Device_Library/Class/MSC/Src/usbd_msc_scsi.c **** }
 485:Middlewares/ST/STM32_USB_Device_Library/Class/MSC/Src/usbd_msc_scsi.c **** 
 486:Middlewares/ST/STM32_USB_Device_Library/Class/MSC/Src/usbd_msc_scsi.c **** 
ARM GAS  C:\Users\Admin\AppData\Local\Temp\ccCPzby3.s 			page 10


 487:Middlewares/ST/STM32_USB_Device_Library/Class/MSC/Src/usbd_msc_scsi.c **** /**
 488:Middlewares/ST/STM32_USB_Device_Library/Class/MSC/Src/usbd_msc_scsi.c ****   * @brief  SCSI_ModeSense10
 489:Middlewares/ST/STM32_USB_Device_Library/Class/MSC/Src/usbd_msc_scsi.c ****   *         Process Mode Sense10 command
 490:Middlewares/ST/STM32_USB_Device_Library/Class/MSC/Src/usbd_msc_scsi.c ****   * @param  lun: Logical unit number
 491:Middlewares/ST/STM32_USB_Device_Library/Class/MSC/Src/usbd_msc_scsi.c ****   * @param  params: Command parameters
 492:Middlewares/ST/STM32_USB_Device_Library/Class/MSC/Src/usbd_msc_scsi.c ****   * @retval status
 493:Middlewares/ST/STM32_USB_Device_Library/Class/MSC/Src/usbd_msc_scsi.c ****   */
 494:Middlewares/ST/STM32_USB_Device_Library/Class/MSC/Src/usbd_msc_scsi.c **** static int8_t SCSI_ModeSense10(USBD_HandleTypeDef *pdev, uint8_t lun, uint8_t *params)
 495:Middlewares/ST/STM32_USB_Device_Library/Class/MSC/Src/usbd_msc_scsi.c **** {
 496:Middlewares/ST/STM32_USB_Device_Library/Class/MSC/Src/usbd_msc_scsi.c ****   UNUSED(lun);
 497:Middlewares/ST/STM32_USB_Device_Library/Class/MSC/Src/usbd_msc_scsi.c ****   USBD_MSC_BOT_HandleTypeDef *hmsc = (USBD_MSC_BOT_HandleTypeDef *)pdev->pClassData;
 498:Middlewares/ST/STM32_USB_Device_Library/Class/MSC/Src/usbd_msc_scsi.c ****   uint16_t len = MODE_SENSE10_LEN;
 499:Middlewares/ST/STM32_USB_Device_Library/Class/MSC/Src/usbd_msc_scsi.c **** 
 500:Middlewares/ST/STM32_USB_Device_Library/Class/MSC/Src/usbd_msc_scsi.c ****   if (hmsc == NULL)
 501:Middlewares/ST/STM32_USB_Device_Library/Class/MSC/Src/usbd_msc_scsi.c ****   {
 502:Middlewares/ST/STM32_USB_Device_Library/Class/MSC/Src/usbd_msc_scsi.c ****     return -1;
 503:Middlewares/ST/STM32_USB_Device_Library/Class/MSC/Src/usbd_msc_scsi.c ****   }
 504:Middlewares/ST/STM32_USB_Device_Library/Class/MSC/Src/usbd_msc_scsi.c **** 
 505:Middlewares/ST/STM32_USB_Device_Library/Class/MSC/Src/usbd_msc_scsi.c ****   if (params[8] <= len)
 506:Middlewares/ST/STM32_USB_Device_Library/Class/MSC/Src/usbd_msc_scsi.c ****   {
 507:Middlewares/ST/STM32_USB_Device_Library/Class/MSC/Src/usbd_msc_scsi.c ****     len = params[8];
 508:Middlewares/ST/STM32_USB_Device_Library/Class/MSC/Src/usbd_msc_scsi.c ****   }
 509:Middlewares/ST/STM32_USB_Device_Library/Class/MSC/Src/usbd_msc_scsi.c **** 
 510:Middlewares/ST/STM32_USB_Device_Library/Class/MSC/Src/usbd_msc_scsi.c ****   (void)SCSI_UpdateBotData(hmsc, MSC_Mode_Sense10_data, len);
 511:Middlewares/ST/STM32_USB_Device_Library/Class/MSC/Src/usbd_msc_scsi.c **** 
 512:Middlewares/ST/STM32_USB_Device_Library/Class/MSC/Src/usbd_msc_scsi.c ****   return 0;
 513:Middlewares/ST/STM32_USB_Device_Library/Class/MSC/Src/usbd_msc_scsi.c **** }
 514:Middlewares/ST/STM32_USB_Device_Library/Class/MSC/Src/usbd_msc_scsi.c **** 
 515:Middlewares/ST/STM32_USB_Device_Library/Class/MSC/Src/usbd_msc_scsi.c **** 
 516:Middlewares/ST/STM32_USB_Device_Library/Class/MSC/Src/usbd_msc_scsi.c **** /**
 517:Middlewares/ST/STM32_USB_Device_Library/Class/MSC/Src/usbd_msc_scsi.c ****   * @brief  SCSI_RequestSense
 518:Middlewares/ST/STM32_USB_Device_Library/Class/MSC/Src/usbd_msc_scsi.c ****   *         Process Request Sense command
 519:Middlewares/ST/STM32_USB_Device_Library/Class/MSC/Src/usbd_msc_scsi.c ****   * @param  lun: Logical unit number
 520:Middlewares/ST/STM32_USB_Device_Library/Class/MSC/Src/usbd_msc_scsi.c ****   * @param  params: Command parameters
 521:Middlewares/ST/STM32_USB_Device_Library/Class/MSC/Src/usbd_msc_scsi.c ****   * @retval status
 522:Middlewares/ST/STM32_USB_Device_Library/Class/MSC/Src/usbd_msc_scsi.c ****   */
 523:Middlewares/ST/STM32_USB_Device_Library/Class/MSC/Src/usbd_msc_scsi.c **** static int8_t SCSI_RequestSense(USBD_HandleTypeDef *pdev, uint8_t lun, uint8_t *params)
 524:Middlewares/ST/STM32_USB_Device_Library/Class/MSC/Src/usbd_msc_scsi.c **** {
 525:Middlewares/ST/STM32_USB_Device_Library/Class/MSC/Src/usbd_msc_scsi.c ****   UNUSED(lun);
 526:Middlewares/ST/STM32_USB_Device_Library/Class/MSC/Src/usbd_msc_scsi.c ****   uint8_t i;
 527:Middlewares/ST/STM32_USB_Device_Library/Class/MSC/Src/usbd_msc_scsi.c ****   USBD_MSC_BOT_HandleTypeDef *hmsc = (USBD_MSC_BOT_HandleTypeDef *)pdev->pClassData;
 528:Middlewares/ST/STM32_USB_Device_Library/Class/MSC/Src/usbd_msc_scsi.c **** 
 529:Middlewares/ST/STM32_USB_Device_Library/Class/MSC/Src/usbd_msc_scsi.c ****   if (hmsc == NULL)
 530:Middlewares/ST/STM32_USB_Device_Library/Class/MSC/Src/usbd_msc_scsi.c ****   {
 531:Middlewares/ST/STM32_USB_Device_Library/Class/MSC/Src/usbd_msc_scsi.c ****     return -1;
 532:Middlewares/ST/STM32_USB_Device_Library/Class/MSC/Src/usbd_msc_scsi.c ****   }
 533:Middlewares/ST/STM32_USB_Device_Library/Class/MSC/Src/usbd_msc_scsi.c **** 
 534:Middlewares/ST/STM32_USB_Device_Library/Class/MSC/Src/usbd_msc_scsi.c ****   if (hmsc->cbw.dDataLength == 0U)
 535:Middlewares/ST/STM32_USB_Device_Library/Class/MSC/Src/usbd_msc_scsi.c ****   {
 536:Middlewares/ST/STM32_USB_Device_Library/Class/MSC/Src/usbd_msc_scsi.c ****     SCSI_SenseCode(pdev, hmsc->cbw.bLUN, ILLEGAL_REQUEST, INVALID_CDB);
 537:Middlewares/ST/STM32_USB_Device_Library/Class/MSC/Src/usbd_msc_scsi.c ****     return -1;
 538:Middlewares/ST/STM32_USB_Device_Library/Class/MSC/Src/usbd_msc_scsi.c ****   }
 539:Middlewares/ST/STM32_USB_Device_Library/Class/MSC/Src/usbd_msc_scsi.c **** 
 540:Middlewares/ST/STM32_USB_Device_Library/Class/MSC/Src/usbd_msc_scsi.c ****   for (i = 0U; i < REQUEST_SENSE_DATA_LEN; i++)
 541:Middlewares/ST/STM32_USB_Device_Library/Class/MSC/Src/usbd_msc_scsi.c ****   {
 542:Middlewares/ST/STM32_USB_Device_Library/Class/MSC/Src/usbd_msc_scsi.c ****     hmsc->bot_data[i] = 0U;
 543:Middlewares/ST/STM32_USB_Device_Library/Class/MSC/Src/usbd_msc_scsi.c ****   }
ARM GAS  C:\Users\Admin\AppData\Local\Temp\ccCPzby3.s 			page 11


 544:Middlewares/ST/STM32_USB_Device_Library/Class/MSC/Src/usbd_msc_scsi.c **** 
 545:Middlewares/ST/STM32_USB_Device_Library/Class/MSC/Src/usbd_msc_scsi.c ****   hmsc->bot_data[0] = 0x70U;
 546:Middlewares/ST/STM32_USB_Device_Library/Class/MSC/Src/usbd_msc_scsi.c ****   hmsc->bot_data[7] = REQUEST_SENSE_DATA_LEN - 6U;
 547:Middlewares/ST/STM32_USB_Device_Library/Class/MSC/Src/usbd_msc_scsi.c **** 
 548:Middlewares/ST/STM32_USB_Device_Library/Class/MSC/Src/usbd_msc_scsi.c ****   if ((hmsc->scsi_sense_head != hmsc->scsi_sense_tail))
 549:Middlewares/ST/STM32_USB_Device_Library/Class/MSC/Src/usbd_msc_scsi.c ****   {
 550:Middlewares/ST/STM32_USB_Device_Library/Class/MSC/Src/usbd_msc_scsi.c ****     hmsc->bot_data[2] = (uint8_t)hmsc->scsi_sense[hmsc->scsi_sense_head].Skey;
 551:Middlewares/ST/STM32_USB_Device_Library/Class/MSC/Src/usbd_msc_scsi.c ****     hmsc->bot_data[12] = (uint8_t)hmsc->scsi_sense[hmsc->scsi_sense_head].w.b.ASC;
 552:Middlewares/ST/STM32_USB_Device_Library/Class/MSC/Src/usbd_msc_scsi.c ****     hmsc->bot_data[13] = (uint8_t)hmsc->scsi_sense[hmsc->scsi_sense_head].w.b.ASCQ;
 553:Middlewares/ST/STM32_USB_Device_Library/Class/MSC/Src/usbd_msc_scsi.c ****     hmsc->scsi_sense_head++;
 554:Middlewares/ST/STM32_USB_Device_Library/Class/MSC/Src/usbd_msc_scsi.c **** 
 555:Middlewares/ST/STM32_USB_Device_Library/Class/MSC/Src/usbd_msc_scsi.c ****     if (hmsc->scsi_sense_head == SENSE_LIST_DEEPTH)
 556:Middlewares/ST/STM32_USB_Device_Library/Class/MSC/Src/usbd_msc_scsi.c ****     {
 557:Middlewares/ST/STM32_USB_Device_Library/Class/MSC/Src/usbd_msc_scsi.c ****       hmsc->scsi_sense_head = 0U;
 558:Middlewares/ST/STM32_USB_Device_Library/Class/MSC/Src/usbd_msc_scsi.c ****     }
 559:Middlewares/ST/STM32_USB_Device_Library/Class/MSC/Src/usbd_msc_scsi.c ****   }
 560:Middlewares/ST/STM32_USB_Device_Library/Class/MSC/Src/usbd_msc_scsi.c **** 
 561:Middlewares/ST/STM32_USB_Device_Library/Class/MSC/Src/usbd_msc_scsi.c ****   hmsc->bot_data_length = REQUEST_SENSE_DATA_LEN;
 562:Middlewares/ST/STM32_USB_Device_Library/Class/MSC/Src/usbd_msc_scsi.c **** 
 563:Middlewares/ST/STM32_USB_Device_Library/Class/MSC/Src/usbd_msc_scsi.c ****   if (params[4] <= REQUEST_SENSE_DATA_LEN)
 564:Middlewares/ST/STM32_USB_Device_Library/Class/MSC/Src/usbd_msc_scsi.c ****   {
 565:Middlewares/ST/STM32_USB_Device_Library/Class/MSC/Src/usbd_msc_scsi.c ****     hmsc->bot_data_length = params[4];
 566:Middlewares/ST/STM32_USB_Device_Library/Class/MSC/Src/usbd_msc_scsi.c ****   }
 567:Middlewares/ST/STM32_USB_Device_Library/Class/MSC/Src/usbd_msc_scsi.c **** 
 568:Middlewares/ST/STM32_USB_Device_Library/Class/MSC/Src/usbd_msc_scsi.c ****   return 0;
 569:Middlewares/ST/STM32_USB_Device_Library/Class/MSC/Src/usbd_msc_scsi.c **** }
 570:Middlewares/ST/STM32_USB_Device_Library/Class/MSC/Src/usbd_msc_scsi.c **** 
 571:Middlewares/ST/STM32_USB_Device_Library/Class/MSC/Src/usbd_msc_scsi.c **** 
 572:Middlewares/ST/STM32_USB_Device_Library/Class/MSC/Src/usbd_msc_scsi.c **** /**
 573:Middlewares/ST/STM32_USB_Device_Library/Class/MSC/Src/usbd_msc_scsi.c ****   * @brief  SCSI_SenseCode
 574:Middlewares/ST/STM32_USB_Device_Library/Class/MSC/Src/usbd_msc_scsi.c ****   *         Load the last error code in the error list
 575:Middlewares/ST/STM32_USB_Device_Library/Class/MSC/Src/usbd_msc_scsi.c ****   * @param  lun: Logical unit number
 576:Middlewares/ST/STM32_USB_Device_Library/Class/MSC/Src/usbd_msc_scsi.c ****   * @param  sKey: Sense Key
 577:Middlewares/ST/STM32_USB_Device_Library/Class/MSC/Src/usbd_msc_scsi.c ****   * @param  ASC: Additional Sense Code
 578:Middlewares/ST/STM32_USB_Device_Library/Class/MSC/Src/usbd_msc_scsi.c ****   * @retval none
 579:Middlewares/ST/STM32_USB_Device_Library/Class/MSC/Src/usbd_msc_scsi.c **** 
 580:Middlewares/ST/STM32_USB_Device_Library/Class/MSC/Src/usbd_msc_scsi.c ****   */
 581:Middlewares/ST/STM32_USB_Device_Library/Class/MSC/Src/usbd_msc_scsi.c **** void SCSI_SenseCode(USBD_HandleTypeDef *pdev, uint8_t lun, uint8_t sKey, uint8_t ASC)
 582:Middlewares/ST/STM32_USB_Device_Library/Class/MSC/Src/usbd_msc_scsi.c **** {
 583:Middlewares/ST/STM32_USB_Device_Library/Class/MSC/Src/usbd_msc_scsi.c ****   UNUSED(lun);
 584:Middlewares/ST/STM32_USB_Device_Library/Class/MSC/Src/usbd_msc_scsi.c ****   USBD_MSC_BOT_HandleTypeDef *hmsc = (USBD_MSC_BOT_HandleTypeDef *)pdev->pClassData;
 585:Middlewares/ST/STM32_USB_Device_Library/Class/MSC/Src/usbd_msc_scsi.c **** 
 586:Middlewares/ST/STM32_USB_Device_Library/Class/MSC/Src/usbd_msc_scsi.c ****   if (hmsc == NULL)
 587:Middlewares/ST/STM32_USB_Device_Library/Class/MSC/Src/usbd_msc_scsi.c ****   {
 588:Middlewares/ST/STM32_USB_Device_Library/Class/MSC/Src/usbd_msc_scsi.c ****     return;
 589:Middlewares/ST/STM32_USB_Device_Library/Class/MSC/Src/usbd_msc_scsi.c ****   }
 590:Middlewares/ST/STM32_USB_Device_Library/Class/MSC/Src/usbd_msc_scsi.c **** 
 591:Middlewares/ST/STM32_USB_Device_Library/Class/MSC/Src/usbd_msc_scsi.c ****   hmsc->scsi_sense[hmsc->scsi_sense_tail].Skey = sKey;
 592:Middlewares/ST/STM32_USB_Device_Library/Class/MSC/Src/usbd_msc_scsi.c ****   hmsc->scsi_sense[hmsc->scsi_sense_tail].w.b.ASC = ASC;
 593:Middlewares/ST/STM32_USB_Device_Library/Class/MSC/Src/usbd_msc_scsi.c ****   hmsc->scsi_sense[hmsc->scsi_sense_tail].w.b.ASCQ = 0U;
 594:Middlewares/ST/STM32_USB_Device_Library/Class/MSC/Src/usbd_msc_scsi.c ****   hmsc->scsi_sense_tail++;
 595:Middlewares/ST/STM32_USB_Device_Library/Class/MSC/Src/usbd_msc_scsi.c **** 
 596:Middlewares/ST/STM32_USB_Device_Library/Class/MSC/Src/usbd_msc_scsi.c ****   if (hmsc->scsi_sense_tail == SENSE_LIST_DEEPTH)
 597:Middlewares/ST/STM32_USB_Device_Library/Class/MSC/Src/usbd_msc_scsi.c ****   {
 598:Middlewares/ST/STM32_USB_Device_Library/Class/MSC/Src/usbd_msc_scsi.c ****     hmsc->scsi_sense_tail = 0U;
 599:Middlewares/ST/STM32_USB_Device_Library/Class/MSC/Src/usbd_msc_scsi.c ****   }
 600:Middlewares/ST/STM32_USB_Device_Library/Class/MSC/Src/usbd_msc_scsi.c **** }
ARM GAS  C:\Users\Admin\AppData\Local\Temp\ccCPzby3.s 			page 12


 601:Middlewares/ST/STM32_USB_Device_Library/Class/MSC/Src/usbd_msc_scsi.c **** 
 602:Middlewares/ST/STM32_USB_Device_Library/Class/MSC/Src/usbd_msc_scsi.c **** 
 603:Middlewares/ST/STM32_USB_Device_Library/Class/MSC/Src/usbd_msc_scsi.c **** /**
 604:Middlewares/ST/STM32_USB_Device_Library/Class/MSC/Src/usbd_msc_scsi.c ****   * @brief  SCSI_StartStopUnit
 605:Middlewares/ST/STM32_USB_Device_Library/Class/MSC/Src/usbd_msc_scsi.c ****   *         Process Start Stop Unit command
 606:Middlewares/ST/STM32_USB_Device_Library/Class/MSC/Src/usbd_msc_scsi.c ****   * @param  lun: Logical unit number
 607:Middlewares/ST/STM32_USB_Device_Library/Class/MSC/Src/usbd_msc_scsi.c ****   * @param  params: Command parameters
 608:Middlewares/ST/STM32_USB_Device_Library/Class/MSC/Src/usbd_msc_scsi.c ****   * @retval status
 609:Middlewares/ST/STM32_USB_Device_Library/Class/MSC/Src/usbd_msc_scsi.c ****   */
 610:Middlewares/ST/STM32_USB_Device_Library/Class/MSC/Src/usbd_msc_scsi.c **** static int8_t SCSI_StartStopUnit(USBD_HandleTypeDef *pdev, uint8_t lun, uint8_t *params)
 611:Middlewares/ST/STM32_USB_Device_Library/Class/MSC/Src/usbd_msc_scsi.c **** {
 612:Middlewares/ST/STM32_USB_Device_Library/Class/MSC/Src/usbd_msc_scsi.c ****   UNUSED(lun);
 613:Middlewares/ST/STM32_USB_Device_Library/Class/MSC/Src/usbd_msc_scsi.c ****   USBD_MSC_BOT_HandleTypeDef *hmsc = (USBD_MSC_BOT_HandleTypeDef *)pdev->pClassData;
 614:Middlewares/ST/STM32_USB_Device_Library/Class/MSC/Src/usbd_msc_scsi.c **** 
 615:Middlewares/ST/STM32_USB_Device_Library/Class/MSC/Src/usbd_msc_scsi.c ****   if (hmsc == NULL)
 616:Middlewares/ST/STM32_USB_Device_Library/Class/MSC/Src/usbd_msc_scsi.c ****   {
 617:Middlewares/ST/STM32_USB_Device_Library/Class/MSC/Src/usbd_msc_scsi.c ****     return -1;
 618:Middlewares/ST/STM32_USB_Device_Library/Class/MSC/Src/usbd_msc_scsi.c ****   }
 619:Middlewares/ST/STM32_USB_Device_Library/Class/MSC/Src/usbd_msc_scsi.c **** 
 620:Middlewares/ST/STM32_USB_Device_Library/Class/MSC/Src/usbd_msc_scsi.c ****   if ((hmsc->scsi_medium_state == SCSI_MEDIUM_LOCKED) && ((params[4] & 0x3U) == 2U))
 621:Middlewares/ST/STM32_USB_Device_Library/Class/MSC/Src/usbd_msc_scsi.c ****   {
 622:Middlewares/ST/STM32_USB_Device_Library/Class/MSC/Src/usbd_msc_scsi.c ****     SCSI_SenseCode(pdev, lun, ILLEGAL_REQUEST, INVALID_FIELED_IN_COMMAND);
 623:Middlewares/ST/STM32_USB_Device_Library/Class/MSC/Src/usbd_msc_scsi.c **** 
 624:Middlewares/ST/STM32_USB_Device_Library/Class/MSC/Src/usbd_msc_scsi.c ****     return -1;
 625:Middlewares/ST/STM32_USB_Device_Library/Class/MSC/Src/usbd_msc_scsi.c ****   }
 626:Middlewares/ST/STM32_USB_Device_Library/Class/MSC/Src/usbd_msc_scsi.c **** 
 627:Middlewares/ST/STM32_USB_Device_Library/Class/MSC/Src/usbd_msc_scsi.c ****   if ((params[4] & 0x3U) == 0x1U) /* START=1 */
 628:Middlewares/ST/STM32_USB_Device_Library/Class/MSC/Src/usbd_msc_scsi.c ****   {
 629:Middlewares/ST/STM32_USB_Device_Library/Class/MSC/Src/usbd_msc_scsi.c ****     hmsc->scsi_medium_state = SCSI_MEDIUM_UNLOCKED;
 630:Middlewares/ST/STM32_USB_Device_Library/Class/MSC/Src/usbd_msc_scsi.c ****   }
 631:Middlewares/ST/STM32_USB_Device_Library/Class/MSC/Src/usbd_msc_scsi.c ****   else if ((params[4] & 0x3U) == 0x2U) /* START=0 and LOEJ Load Eject=1 */
 632:Middlewares/ST/STM32_USB_Device_Library/Class/MSC/Src/usbd_msc_scsi.c ****   {
 633:Middlewares/ST/STM32_USB_Device_Library/Class/MSC/Src/usbd_msc_scsi.c ****     hmsc->scsi_medium_state = SCSI_MEDIUM_EJECTED;
 634:Middlewares/ST/STM32_USB_Device_Library/Class/MSC/Src/usbd_msc_scsi.c ****   }
 635:Middlewares/ST/STM32_USB_Device_Library/Class/MSC/Src/usbd_msc_scsi.c ****   else if ((params[4] & 0x3U) == 0x3U) /* START=1 and LOEJ Load Eject=1 */
 636:Middlewares/ST/STM32_USB_Device_Library/Class/MSC/Src/usbd_msc_scsi.c ****   {
 637:Middlewares/ST/STM32_USB_Device_Library/Class/MSC/Src/usbd_msc_scsi.c ****     hmsc->scsi_medium_state = SCSI_MEDIUM_UNLOCKED;
 638:Middlewares/ST/STM32_USB_Device_Library/Class/MSC/Src/usbd_msc_scsi.c ****   }
 639:Middlewares/ST/STM32_USB_Device_Library/Class/MSC/Src/usbd_msc_scsi.c ****   else
 640:Middlewares/ST/STM32_USB_Device_Library/Class/MSC/Src/usbd_msc_scsi.c ****   {
 641:Middlewares/ST/STM32_USB_Device_Library/Class/MSC/Src/usbd_msc_scsi.c ****     /* .. */
 642:Middlewares/ST/STM32_USB_Device_Library/Class/MSC/Src/usbd_msc_scsi.c ****   }
 643:Middlewares/ST/STM32_USB_Device_Library/Class/MSC/Src/usbd_msc_scsi.c ****   hmsc->bot_data_length = 0U;
 644:Middlewares/ST/STM32_USB_Device_Library/Class/MSC/Src/usbd_msc_scsi.c **** 
 645:Middlewares/ST/STM32_USB_Device_Library/Class/MSC/Src/usbd_msc_scsi.c ****   return 0;
 646:Middlewares/ST/STM32_USB_Device_Library/Class/MSC/Src/usbd_msc_scsi.c **** }
 647:Middlewares/ST/STM32_USB_Device_Library/Class/MSC/Src/usbd_msc_scsi.c **** 
 648:Middlewares/ST/STM32_USB_Device_Library/Class/MSC/Src/usbd_msc_scsi.c **** 
 649:Middlewares/ST/STM32_USB_Device_Library/Class/MSC/Src/usbd_msc_scsi.c **** /**
 650:Middlewares/ST/STM32_USB_Device_Library/Class/MSC/Src/usbd_msc_scsi.c ****   * @brief  SCSI_AllowPreventRemovable
 651:Middlewares/ST/STM32_USB_Device_Library/Class/MSC/Src/usbd_msc_scsi.c ****   *         Process Allow Prevent Removable medium command
 652:Middlewares/ST/STM32_USB_Device_Library/Class/MSC/Src/usbd_msc_scsi.c ****   * @param  lun: Logical unit number
 653:Middlewares/ST/STM32_USB_Device_Library/Class/MSC/Src/usbd_msc_scsi.c ****   * @param  params: Command parameters
 654:Middlewares/ST/STM32_USB_Device_Library/Class/MSC/Src/usbd_msc_scsi.c ****   * @retval status
 655:Middlewares/ST/STM32_USB_Device_Library/Class/MSC/Src/usbd_msc_scsi.c ****   */
 656:Middlewares/ST/STM32_USB_Device_Library/Class/MSC/Src/usbd_msc_scsi.c **** static int8_t SCSI_AllowPreventRemovable(USBD_HandleTypeDef *pdev, uint8_t lun, uint8_t *params)
 657:Middlewares/ST/STM32_USB_Device_Library/Class/MSC/Src/usbd_msc_scsi.c **** {
ARM GAS  C:\Users\Admin\AppData\Local\Temp\ccCPzby3.s 			page 13


  29              		.loc 1 657 1 view -0
  30              		.cfi_startproc
  31              		@ args = 0, pretend = 0, frame = 0
  32              		@ frame_needed = 0, uses_anonymous_args = 0
  33              		@ link register save eliminated.
 658:Middlewares/ST/STM32_USB_Device_Library/Class/MSC/Src/usbd_msc_scsi.c ****   UNUSED(lun);
  34              		.loc 1 658 3 view .LVU1
 659:Middlewares/ST/STM32_USB_Device_Library/Class/MSC/Src/usbd_msc_scsi.c ****   USBD_MSC_BOT_HandleTypeDef *hmsc = (USBD_MSC_BOT_HandleTypeDef *)pdev->pClassData;
  35              		.loc 1 659 3 view .LVU2
  36              		.loc 1 659 31 is_stmt 0 view .LVU3
  37 0000 D0F8BC32 		ldr	r3, [r0, #700]
  38              	.LVL1:
 660:Middlewares/ST/STM32_USB_Device_Library/Class/MSC/Src/usbd_msc_scsi.c **** 
 661:Middlewares/ST/STM32_USB_Device_Library/Class/MSC/Src/usbd_msc_scsi.c ****   if (hmsc == NULL)
  39              		.loc 1 661 3 is_stmt 1 view .LVU4
  40              		.loc 1 661 6 is_stmt 0 view .LVU5
  41 0004 53B1     		cbz	r3, .L5
 662:Middlewares/ST/STM32_USB_Device_Library/Class/MSC/Src/usbd_msc_scsi.c ****   {
 663:Middlewares/ST/STM32_USB_Device_Library/Class/MSC/Src/usbd_msc_scsi.c ****     return -1;
 664:Middlewares/ST/STM32_USB_Device_Library/Class/MSC/Src/usbd_msc_scsi.c ****   }
 665:Middlewares/ST/STM32_USB_Device_Library/Class/MSC/Src/usbd_msc_scsi.c **** 
 666:Middlewares/ST/STM32_USB_Device_Library/Class/MSC/Src/usbd_msc_scsi.c ****   if (params[4] == 0U)
  42              		.loc 1 666 3 is_stmt 1 view .LVU6
  43              		.loc 1 666 13 is_stmt 0 view .LVU7
  44 0006 1279     		ldrb	r2, [r2, #4]	@ zero_extendqisi2
  45              	.LVL2:
  46              		.loc 1 666 6 view .LVU8
  47 0008 22B9     		cbnz	r2, .L3
 667:Middlewares/ST/STM32_USB_Device_Library/Class/MSC/Src/usbd_msc_scsi.c ****   {
 668:Middlewares/ST/STM32_USB_Device_Library/Class/MSC/Src/usbd_msc_scsi.c ****     hmsc->scsi_medium_state = SCSI_MEDIUM_UNLOCKED;
  48              		.loc 1 668 5 is_stmt 1 view .LVU9
  49              		.loc 1 668 29 is_stmt 0 view .LVU10
  50 000a 83F86222 		strb	r2, [r3, #610]
  51              	.L4:
 669:Middlewares/ST/STM32_USB_Device_Library/Class/MSC/Src/usbd_msc_scsi.c ****   }
 670:Middlewares/ST/STM32_USB_Device_Library/Class/MSC/Src/usbd_msc_scsi.c ****   else
 671:Middlewares/ST/STM32_USB_Device_Library/Class/MSC/Src/usbd_msc_scsi.c ****   {
 672:Middlewares/ST/STM32_USB_Device_Library/Class/MSC/Src/usbd_msc_scsi.c ****     hmsc->scsi_medium_state = SCSI_MEDIUM_LOCKED;
 673:Middlewares/ST/STM32_USB_Device_Library/Class/MSC/Src/usbd_msc_scsi.c ****   }
 674:Middlewares/ST/STM32_USB_Device_Library/Class/MSC/Src/usbd_msc_scsi.c **** 
 675:Middlewares/ST/STM32_USB_Device_Library/Class/MSC/Src/usbd_msc_scsi.c ****   hmsc->bot_data_length = 0U;
  52              		.loc 1 675 3 is_stmt 1 view .LVU11
  53              		.loc 1 675 25 is_stmt 0 view .LVU12
  54 000e 0020     		movs	r0, #0
  55              	.LVL3:
  56              		.loc 1 675 25 view .LVU13
  57 0010 D860     		str	r0, [r3, #12]
 676:Middlewares/ST/STM32_USB_Device_Library/Class/MSC/Src/usbd_msc_scsi.c **** 
 677:Middlewares/ST/STM32_USB_Device_Library/Class/MSC/Src/usbd_msc_scsi.c ****   return 0;
  58              		.loc 1 677 3 is_stmt 1 view .LVU14
  59              		.loc 1 677 10 is_stmt 0 view .LVU15
  60 0012 7047     		bx	lr
  61              	.LVL4:
  62              	.L3:
 672:Middlewares/ST/STM32_USB_Device_Library/Class/MSC/Src/usbd_msc_scsi.c ****   }
  63              		.loc 1 672 5 is_stmt 1 view .LVU16
 672:Middlewares/ST/STM32_USB_Device_Library/Class/MSC/Src/usbd_msc_scsi.c ****   }
ARM GAS  C:\Users\Admin\AppData\Local\Temp\ccCPzby3.s 			page 14


  64              		.loc 1 672 29 is_stmt 0 view .LVU17
  65 0014 0122     		movs	r2, #1
  66 0016 83F86222 		strb	r2, [r3, #610]
  67 001a F8E7     		b	.L4
  68              	.LVL5:
  69              	.L5:
 663:Middlewares/ST/STM32_USB_Device_Library/Class/MSC/Src/usbd_msc_scsi.c ****   }
  70              		.loc 1 663 12 view .LVU18
  71 001c 4FF0FF30 		mov	r0, #-1
  72              	.LVL6:
 678:Middlewares/ST/STM32_USB_Device_Library/Class/MSC/Src/usbd_msc_scsi.c **** }
  73              		.loc 1 678 1 view .LVU19
  74 0020 7047     		bx	lr
  75              		.cfi_endproc
  76              	.LFE147:
  78              		.section	.text.SCSI_UpdateBotData,"ax",%progbits
  79              		.align	1
  80              		.syntax unified
  81              		.thumb
  82              		.thumb_func
  83              		.fpu fpv4-sp-d16
  85              	SCSI_UpdateBotData:
  86              	.LVL7:
  87              	.LFB156:
 679:Middlewares/ST/STM32_USB_Device_Library/Class/MSC/Src/usbd_msc_scsi.c **** 
 680:Middlewares/ST/STM32_USB_Device_Library/Class/MSC/Src/usbd_msc_scsi.c **** 
 681:Middlewares/ST/STM32_USB_Device_Library/Class/MSC/Src/usbd_msc_scsi.c **** /**
 682:Middlewares/ST/STM32_USB_Device_Library/Class/MSC/Src/usbd_msc_scsi.c ****   * @brief  SCSI_Read10
 683:Middlewares/ST/STM32_USB_Device_Library/Class/MSC/Src/usbd_msc_scsi.c ****   *         Process Read10 command
 684:Middlewares/ST/STM32_USB_Device_Library/Class/MSC/Src/usbd_msc_scsi.c ****   * @param  lun: Logical unit number
 685:Middlewares/ST/STM32_USB_Device_Library/Class/MSC/Src/usbd_msc_scsi.c ****   * @param  params: Command parameters
 686:Middlewares/ST/STM32_USB_Device_Library/Class/MSC/Src/usbd_msc_scsi.c ****   * @retval status
 687:Middlewares/ST/STM32_USB_Device_Library/Class/MSC/Src/usbd_msc_scsi.c ****   */
 688:Middlewares/ST/STM32_USB_Device_Library/Class/MSC/Src/usbd_msc_scsi.c **** static int8_t SCSI_Read10(USBD_HandleTypeDef *pdev, uint8_t lun, uint8_t *params)
 689:Middlewares/ST/STM32_USB_Device_Library/Class/MSC/Src/usbd_msc_scsi.c **** {
 690:Middlewares/ST/STM32_USB_Device_Library/Class/MSC/Src/usbd_msc_scsi.c ****   USBD_MSC_BOT_HandleTypeDef *hmsc = (USBD_MSC_BOT_HandleTypeDef *)pdev->pClassData;
 691:Middlewares/ST/STM32_USB_Device_Library/Class/MSC/Src/usbd_msc_scsi.c **** 
 692:Middlewares/ST/STM32_USB_Device_Library/Class/MSC/Src/usbd_msc_scsi.c ****   if (hmsc == NULL)
 693:Middlewares/ST/STM32_USB_Device_Library/Class/MSC/Src/usbd_msc_scsi.c ****   {
 694:Middlewares/ST/STM32_USB_Device_Library/Class/MSC/Src/usbd_msc_scsi.c ****     return -1;
 695:Middlewares/ST/STM32_USB_Device_Library/Class/MSC/Src/usbd_msc_scsi.c ****   }
 696:Middlewares/ST/STM32_USB_Device_Library/Class/MSC/Src/usbd_msc_scsi.c **** 
 697:Middlewares/ST/STM32_USB_Device_Library/Class/MSC/Src/usbd_msc_scsi.c ****   if (hmsc->bot_state == USBD_BOT_IDLE) /* Idle */
 698:Middlewares/ST/STM32_USB_Device_Library/Class/MSC/Src/usbd_msc_scsi.c ****   {
 699:Middlewares/ST/STM32_USB_Device_Library/Class/MSC/Src/usbd_msc_scsi.c ****     /* case 10 : Ho <> Di */
 700:Middlewares/ST/STM32_USB_Device_Library/Class/MSC/Src/usbd_msc_scsi.c ****     if ((hmsc->cbw.bmFlags & 0x80U) != 0x80U)
 701:Middlewares/ST/STM32_USB_Device_Library/Class/MSC/Src/usbd_msc_scsi.c ****     {
 702:Middlewares/ST/STM32_USB_Device_Library/Class/MSC/Src/usbd_msc_scsi.c ****       SCSI_SenseCode(pdev, hmsc->cbw.bLUN, ILLEGAL_REQUEST, INVALID_CDB);
 703:Middlewares/ST/STM32_USB_Device_Library/Class/MSC/Src/usbd_msc_scsi.c ****       return -1;
 704:Middlewares/ST/STM32_USB_Device_Library/Class/MSC/Src/usbd_msc_scsi.c ****     }
 705:Middlewares/ST/STM32_USB_Device_Library/Class/MSC/Src/usbd_msc_scsi.c **** 
 706:Middlewares/ST/STM32_USB_Device_Library/Class/MSC/Src/usbd_msc_scsi.c ****     if (hmsc->scsi_medium_state == SCSI_MEDIUM_EJECTED)
 707:Middlewares/ST/STM32_USB_Device_Library/Class/MSC/Src/usbd_msc_scsi.c ****     {
 708:Middlewares/ST/STM32_USB_Device_Library/Class/MSC/Src/usbd_msc_scsi.c ****       SCSI_SenseCode(pdev, lun, NOT_READY, MEDIUM_NOT_PRESENT);
 709:Middlewares/ST/STM32_USB_Device_Library/Class/MSC/Src/usbd_msc_scsi.c **** 
 710:Middlewares/ST/STM32_USB_Device_Library/Class/MSC/Src/usbd_msc_scsi.c ****       return -1;
 711:Middlewares/ST/STM32_USB_Device_Library/Class/MSC/Src/usbd_msc_scsi.c ****     }
ARM GAS  C:\Users\Admin\AppData\Local\Temp\ccCPzby3.s 			page 15


 712:Middlewares/ST/STM32_USB_Device_Library/Class/MSC/Src/usbd_msc_scsi.c **** 
 713:Middlewares/ST/STM32_USB_Device_Library/Class/MSC/Src/usbd_msc_scsi.c ****     if (((USBD_StorageTypeDef *)pdev->pUserData)->IsReady(lun) != 0)
 714:Middlewares/ST/STM32_USB_Device_Library/Class/MSC/Src/usbd_msc_scsi.c ****     {
 715:Middlewares/ST/STM32_USB_Device_Library/Class/MSC/Src/usbd_msc_scsi.c ****       SCSI_SenseCode(pdev, lun, NOT_READY, MEDIUM_NOT_PRESENT);
 716:Middlewares/ST/STM32_USB_Device_Library/Class/MSC/Src/usbd_msc_scsi.c ****       return -1;
 717:Middlewares/ST/STM32_USB_Device_Library/Class/MSC/Src/usbd_msc_scsi.c ****     }
 718:Middlewares/ST/STM32_USB_Device_Library/Class/MSC/Src/usbd_msc_scsi.c **** 
 719:Middlewares/ST/STM32_USB_Device_Library/Class/MSC/Src/usbd_msc_scsi.c ****     hmsc->scsi_blk_addr = ((uint32_t)params[2] << 24) |
 720:Middlewares/ST/STM32_USB_Device_Library/Class/MSC/Src/usbd_msc_scsi.c ****                           ((uint32_t)params[3] << 16) |
 721:Middlewares/ST/STM32_USB_Device_Library/Class/MSC/Src/usbd_msc_scsi.c ****                           ((uint32_t)params[4] <<  8) |
 722:Middlewares/ST/STM32_USB_Device_Library/Class/MSC/Src/usbd_msc_scsi.c ****                           (uint32_t)params[5];
 723:Middlewares/ST/STM32_USB_Device_Library/Class/MSC/Src/usbd_msc_scsi.c **** 
 724:Middlewares/ST/STM32_USB_Device_Library/Class/MSC/Src/usbd_msc_scsi.c ****     hmsc->scsi_blk_len = ((uint32_t)params[7] <<  8) | (uint32_t)params[8];
 725:Middlewares/ST/STM32_USB_Device_Library/Class/MSC/Src/usbd_msc_scsi.c **** 
 726:Middlewares/ST/STM32_USB_Device_Library/Class/MSC/Src/usbd_msc_scsi.c ****     if (SCSI_CheckAddressRange(pdev, lun, hmsc->scsi_blk_addr,
 727:Middlewares/ST/STM32_USB_Device_Library/Class/MSC/Src/usbd_msc_scsi.c ****                                hmsc->scsi_blk_len) < 0)
 728:Middlewares/ST/STM32_USB_Device_Library/Class/MSC/Src/usbd_msc_scsi.c ****     {
 729:Middlewares/ST/STM32_USB_Device_Library/Class/MSC/Src/usbd_msc_scsi.c ****       return -1; /* error */
 730:Middlewares/ST/STM32_USB_Device_Library/Class/MSC/Src/usbd_msc_scsi.c ****     }
 731:Middlewares/ST/STM32_USB_Device_Library/Class/MSC/Src/usbd_msc_scsi.c **** 
 732:Middlewares/ST/STM32_USB_Device_Library/Class/MSC/Src/usbd_msc_scsi.c ****     /* cases 4,5 : Hi <> Dn */
 733:Middlewares/ST/STM32_USB_Device_Library/Class/MSC/Src/usbd_msc_scsi.c ****     if (hmsc->cbw.dDataLength != (hmsc->scsi_blk_len * hmsc->scsi_blk_size))
 734:Middlewares/ST/STM32_USB_Device_Library/Class/MSC/Src/usbd_msc_scsi.c ****     {
 735:Middlewares/ST/STM32_USB_Device_Library/Class/MSC/Src/usbd_msc_scsi.c ****       SCSI_SenseCode(pdev, hmsc->cbw.bLUN, ILLEGAL_REQUEST, INVALID_CDB);
 736:Middlewares/ST/STM32_USB_Device_Library/Class/MSC/Src/usbd_msc_scsi.c ****       return -1;
 737:Middlewares/ST/STM32_USB_Device_Library/Class/MSC/Src/usbd_msc_scsi.c ****     }
 738:Middlewares/ST/STM32_USB_Device_Library/Class/MSC/Src/usbd_msc_scsi.c **** 
 739:Middlewares/ST/STM32_USB_Device_Library/Class/MSC/Src/usbd_msc_scsi.c ****     hmsc->bot_state = USBD_BOT_DATA_IN;
 740:Middlewares/ST/STM32_USB_Device_Library/Class/MSC/Src/usbd_msc_scsi.c ****   }
 741:Middlewares/ST/STM32_USB_Device_Library/Class/MSC/Src/usbd_msc_scsi.c ****   hmsc->bot_data_length = MSC_MEDIA_PACKET;
 742:Middlewares/ST/STM32_USB_Device_Library/Class/MSC/Src/usbd_msc_scsi.c **** 
 743:Middlewares/ST/STM32_USB_Device_Library/Class/MSC/Src/usbd_msc_scsi.c ****   return SCSI_ProcessRead(pdev, lun);
 744:Middlewares/ST/STM32_USB_Device_Library/Class/MSC/Src/usbd_msc_scsi.c **** }
 745:Middlewares/ST/STM32_USB_Device_Library/Class/MSC/Src/usbd_msc_scsi.c **** 
 746:Middlewares/ST/STM32_USB_Device_Library/Class/MSC/Src/usbd_msc_scsi.c **** 
 747:Middlewares/ST/STM32_USB_Device_Library/Class/MSC/Src/usbd_msc_scsi.c **** /**
 748:Middlewares/ST/STM32_USB_Device_Library/Class/MSC/Src/usbd_msc_scsi.c ****   * @brief  SCSI_Read12
 749:Middlewares/ST/STM32_USB_Device_Library/Class/MSC/Src/usbd_msc_scsi.c ****   *         Process Read12 command
 750:Middlewares/ST/STM32_USB_Device_Library/Class/MSC/Src/usbd_msc_scsi.c ****   * @param  lun: Logical unit number
 751:Middlewares/ST/STM32_USB_Device_Library/Class/MSC/Src/usbd_msc_scsi.c ****   * @param  params: Command parameters
 752:Middlewares/ST/STM32_USB_Device_Library/Class/MSC/Src/usbd_msc_scsi.c ****   * @retval status
 753:Middlewares/ST/STM32_USB_Device_Library/Class/MSC/Src/usbd_msc_scsi.c ****   */
 754:Middlewares/ST/STM32_USB_Device_Library/Class/MSC/Src/usbd_msc_scsi.c **** static int8_t SCSI_Read12(USBD_HandleTypeDef *pdev, uint8_t lun, uint8_t *params)
 755:Middlewares/ST/STM32_USB_Device_Library/Class/MSC/Src/usbd_msc_scsi.c **** {
 756:Middlewares/ST/STM32_USB_Device_Library/Class/MSC/Src/usbd_msc_scsi.c ****   USBD_MSC_BOT_HandleTypeDef *hmsc = (USBD_MSC_BOT_HandleTypeDef *)pdev->pClassData;
 757:Middlewares/ST/STM32_USB_Device_Library/Class/MSC/Src/usbd_msc_scsi.c **** 
 758:Middlewares/ST/STM32_USB_Device_Library/Class/MSC/Src/usbd_msc_scsi.c ****   if (hmsc == NULL)
 759:Middlewares/ST/STM32_USB_Device_Library/Class/MSC/Src/usbd_msc_scsi.c ****   {
 760:Middlewares/ST/STM32_USB_Device_Library/Class/MSC/Src/usbd_msc_scsi.c ****     return -1;
 761:Middlewares/ST/STM32_USB_Device_Library/Class/MSC/Src/usbd_msc_scsi.c ****   }
 762:Middlewares/ST/STM32_USB_Device_Library/Class/MSC/Src/usbd_msc_scsi.c **** 
 763:Middlewares/ST/STM32_USB_Device_Library/Class/MSC/Src/usbd_msc_scsi.c ****   if (hmsc->bot_state == USBD_BOT_IDLE) /* Idle */
 764:Middlewares/ST/STM32_USB_Device_Library/Class/MSC/Src/usbd_msc_scsi.c ****   {
 765:Middlewares/ST/STM32_USB_Device_Library/Class/MSC/Src/usbd_msc_scsi.c ****     /* case 10 : Ho <> Di */
 766:Middlewares/ST/STM32_USB_Device_Library/Class/MSC/Src/usbd_msc_scsi.c ****     if ((hmsc->cbw.bmFlags & 0x80U) != 0x80U)
 767:Middlewares/ST/STM32_USB_Device_Library/Class/MSC/Src/usbd_msc_scsi.c ****     {
 768:Middlewares/ST/STM32_USB_Device_Library/Class/MSC/Src/usbd_msc_scsi.c ****       SCSI_SenseCode(pdev, hmsc->cbw.bLUN, ILLEGAL_REQUEST, INVALID_CDB);
ARM GAS  C:\Users\Admin\AppData\Local\Temp\ccCPzby3.s 			page 16


 769:Middlewares/ST/STM32_USB_Device_Library/Class/MSC/Src/usbd_msc_scsi.c ****       return -1;
 770:Middlewares/ST/STM32_USB_Device_Library/Class/MSC/Src/usbd_msc_scsi.c ****     }
 771:Middlewares/ST/STM32_USB_Device_Library/Class/MSC/Src/usbd_msc_scsi.c **** 
 772:Middlewares/ST/STM32_USB_Device_Library/Class/MSC/Src/usbd_msc_scsi.c ****     if (hmsc->scsi_medium_state == SCSI_MEDIUM_EJECTED)
 773:Middlewares/ST/STM32_USB_Device_Library/Class/MSC/Src/usbd_msc_scsi.c ****     {
 774:Middlewares/ST/STM32_USB_Device_Library/Class/MSC/Src/usbd_msc_scsi.c ****       SCSI_SenseCode(pdev, lun, NOT_READY, MEDIUM_NOT_PRESENT);
 775:Middlewares/ST/STM32_USB_Device_Library/Class/MSC/Src/usbd_msc_scsi.c ****       return -1;
 776:Middlewares/ST/STM32_USB_Device_Library/Class/MSC/Src/usbd_msc_scsi.c ****     }
 777:Middlewares/ST/STM32_USB_Device_Library/Class/MSC/Src/usbd_msc_scsi.c **** 
 778:Middlewares/ST/STM32_USB_Device_Library/Class/MSC/Src/usbd_msc_scsi.c ****     if (((USBD_StorageTypeDef *)pdev->pUserData)->IsReady(lun) != 0)
 779:Middlewares/ST/STM32_USB_Device_Library/Class/MSC/Src/usbd_msc_scsi.c ****     {
 780:Middlewares/ST/STM32_USB_Device_Library/Class/MSC/Src/usbd_msc_scsi.c ****       SCSI_SenseCode(pdev, lun, NOT_READY, MEDIUM_NOT_PRESENT);
 781:Middlewares/ST/STM32_USB_Device_Library/Class/MSC/Src/usbd_msc_scsi.c ****       return -1;
 782:Middlewares/ST/STM32_USB_Device_Library/Class/MSC/Src/usbd_msc_scsi.c ****     }
 783:Middlewares/ST/STM32_USB_Device_Library/Class/MSC/Src/usbd_msc_scsi.c **** 
 784:Middlewares/ST/STM32_USB_Device_Library/Class/MSC/Src/usbd_msc_scsi.c ****     hmsc->scsi_blk_addr = ((uint32_t)params[2] << 24) |
 785:Middlewares/ST/STM32_USB_Device_Library/Class/MSC/Src/usbd_msc_scsi.c ****                           ((uint32_t)params[3] << 16) |
 786:Middlewares/ST/STM32_USB_Device_Library/Class/MSC/Src/usbd_msc_scsi.c ****                           ((uint32_t)params[4] <<  8) |
 787:Middlewares/ST/STM32_USB_Device_Library/Class/MSC/Src/usbd_msc_scsi.c ****                           (uint32_t)params[5];
 788:Middlewares/ST/STM32_USB_Device_Library/Class/MSC/Src/usbd_msc_scsi.c **** 
 789:Middlewares/ST/STM32_USB_Device_Library/Class/MSC/Src/usbd_msc_scsi.c ****     hmsc->scsi_blk_len = ((uint32_t)params[6] << 24) |
 790:Middlewares/ST/STM32_USB_Device_Library/Class/MSC/Src/usbd_msc_scsi.c ****                          ((uint32_t)params[7] << 16) |
 791:Middlewares/ST/STM32_USB_Device_Library/Class/MSC/Src/usbd_msc_scsi.c ****                          ((uint32_t)params[8] << 8) |
 792:Middlewares/ST/STM32_USB_Device_Library/Class/MSC/Src/usbd_msc_scsi.c ****                          (uint32_t)params[9];
 793:Middlewares/ST/STM32_USB_Device_Library/Class/MSC/Src/usbd_msc_scsi.c **** 
 794:Middlewares/ST/STM32_USB_Device_Library/Class/MSC/Src/usbd_msc_scsi.c ****     if (SCSI_CheckAddressRange(pdev, lun, hmsc->scsi_blk_addr,
 795:Middlewares/ST/STM32_USB_Device_Library/Class/MSC/Src/usbd_msc_scsi.c ****                                hmsc->scsi_blk_len) < 0)
 796:Middlewares/ST/STM32_USB_Device_Library/Class/MSC/Src/usbd_msc_scsi.c ****     {
 797:Middlewares/ST/STM32_USB_Device_Library/Class/MSC/Src/usbd_msc_scsi.c ****       return -1; /* error */
 798:Middlewares/ST/STM32_USB_Device_Library/Class/MSC/Src/usbd_msc_scsi.c ****     }
 799:Middlewares/ST/STM32_USB_Device_Library/Class/MSC/Src/usbd_msc_scsi.c **** 
 800:Middlewares/ST/STM32_USB_Device_Library/Class/MSC/Src/usbd_msc_scsi.c ****     /* cases 4,5 : Hi <> Dn */
 801:Middlewares/ST/STM32_USB_Device_Library/Class/MSC/Src/usbd_msc_scsi.c ****     if (hmsc->cbw.dDataLength != (hmsc->scsi_blk_len * hmsc->scsi_blk_size))
 802:Middlewares/ST/STM32_USB_Device_Library/Class/MSC/Src/usbd_msc_scsi.c ****     {
 803:Middlewares/ST/STM32_USB_Device_Library/Class/MSC/Src/usbd_msc_scsi.c ****       SCSI_SenseCode(pdev, hmsc->cbw.bLUN, ILLEGAL_REQUEST, INVALID_CDB);
 804:Middlewares/ST/STM32_USB_Device_Library/Class/MSC/Src/usbd_msc_scsi.c ****       return -1;
 805:Middlewares/ST/STM32_USB_Device_Library/Class/MSC/Src/usbd_msc_scsi.c ****     }
 806:Middlewares/ST/STM32_USB_Device_Library/Class/MSC/Src/usbd_msc_scsi.c **** 
 807:Middlewares/ST/STM32_USB_Device_Library/Class/MSC/Src/usbd_msc_scsi.c ****     hmsc->bot_state = USBD_BOT_DATA_IN;
 808:Middlewares/ST/STM32_USB_Device_Library/Class/MSC/Src/usbd_msc_scsi.c ****   }
 809:Middlewares/ST/STM32_USB_Device_Library/Class/MSC/Src/usbd_msc_scsi.c ****   hmsc->bot_data_length = MSC_MEDIA_PACKET;
 810:Middlewares/ST/STM32_USB_Device_Library/Class/MSC/Src/usbd_msc_scsi.c **** 
 811:Middlewares/ST/STM32_USB_Device_Library/Class/MSC/Src/usbd_msc_scsi.c ****   return SCSI_ProcessRead(pdev, lun);
 812:Middlewares/ST/STM32_USB_Device_Library/Class/MSC/Src/usbd_msc_scsi.c **** }
 813:Middlewares/ST/STM32_USB_Device_Library/Class/MSC/Src/usbd_msc_scsi.c **** 
 814:Middlewares/ST/STM32_USB_Device_Library/Class/MSC/Src/usbd_msc_scsi.c **** 
 815:Middlewares/ST/STM32_USB_Device_Library/Class/MSC/Src/usbd_msc_scsi.c **** /**
 816:Middlewares/ST/STM32_USB_Device_Library/Class/MSC/Src/usbd_msc_scsi.c ****   * @brief  SCSI_Write10
 817:Middlewares/ST/STM32_USB_Device_Library/Class/MSC/Src/usbd_msc_scsi.c ****   *         Process Write10 command
 818:Middlewares/ST/STM32_USB_Device_Library/Class/MSC/Src/usbd_msc_scsi.c ****   * @param  lun: Logical unit number
 819:Middlewares/ST/STM32_USB_Device_Library/Class/MSC/Src/usbd_msc_scsi.c ****   * @param  params: Command parameters
 820:Middlewares/ST/STM32_USB_Device_Library/Class/MSC/Src/usbd_msc_scsi.c ****   * @retval status
 821:Middlewares/ST/STM32_USB_Device_Library/Class/MSC/Src/usbd_msc_scsi.c ****   */
 822:Middlewares/ST/STM32_USB_Device_Library/Class/MSC/Src/usbd_msc_scsi.c **** static int8_t SCSI_Write10(USBD_HandleTypeDef *pdev, uint8_t lun, uint8_t *params)
 823:Middlewares/ST/STM32_USB_Device_Library/Class/MSC/Src/usbd_msc_scsi.c **** {
 824:Middlewares/ST/STM32_USB_Device_Library/Class/MSC/Src/usbd_msc_scsi.c ****   USBD_MSC_BOT_HandleTypeDef *hmsc = (USBD_MSC_BOT_HandleTypeDef *)pdev->pClassData;
 825:Middlewares/ST/STM32_USB_Device_Library/Class/MSC/Src/usbd_msc_scsi.c ****   uint32_t len;
ARM GAS  C:\Users\Admin\AppData\Local\Temp\ccCPzby3.s 			page 17


 826:Middlewares/ST/STM32_USB_Device_Library/Class/MSC/Src/usbd_msc_scsi.c **** 
 827:Middlewares/ST/STM32_USB_Device_Library/Class/MSC/Src/usbd_msc_scsi.c ****   if (hmsc == NULL)
 828:Middlewares/ST/STM32_USB_Device_Library/Class/MSC/Src/usbd_msc_scsi.c ****   {
 829:Middlewares/ST/STM32_USB_Device_Library/Class/MSC/Src/usbd_msc_scsi.c ****     return -1;
 830:Middlewares/ST/STM32_USB_Device_Library/Class/MSC/Src/usbd_msc_scsi.c ****   }
 831:Middlewares/ST/STM32_USB_Device_Library/Class/MSC/Src/usbd_msc_scsi.c **** 
 832:Middlewares/ST/STM32_USB_Device_Library/Class/MSC/Src/usbd_msc_scsi.c ****   if (hmsc->bot_state == USBD_BOT_IDLE) /* Idle */
 833:Middlewares/ST/STM32_USB_Device_Library/Class/MSC/Src/usbd_msc_scsi.c ****   {
 834:Middlewares/ST/STM32_USB_Device_Library/Class/MSC/Src/usbd_msc_scsi.c ****     if (hmsc->cbw.dDataLength == 0U)
 835:Middlewares/ST/STM32_USB_Device_Library/Class/MSC/Src/usbd_msc_scsi.c ****     {
 836:Middlewares/ST/STM32_USB_Device_Library/Class/MSC/Src/usbd_msc_scsi.c ****       SCSI_SenseCode(pdev, hmsc->cbw.bLUN, ILLEGAL_REQUEST, INVALID_CDB);
 837:Middlewares/ST/STM32_USB_Device_Library/Class/MSC/Src/usbd_msc_scsi.c ****       return -1;
 838:Middlewares/ST/STM32_USB_Device_Library/Class/MSC/Src/usbd_msc_scsi.c ****     }
 839:Middlewares/ST/STM32_USB_Device_Library/Class/MSC/Src/usbd_msc_scsi.c **** 
 840:Middlewares/ST/STM32_USB_Device_Library/Class/MSC/Src/usbd_msc_scsi.c ****     /* case 8 : Hi <> Do */
 841:Middlewares/ST/STM32_USB_Device_Library/Class/MSC/Src/usbd_msc_scsi.c ****     if ((hmsc->cbw.bmFlags & 0x80U) == 0x80U)
 842:Middlewares/ST/STM32_USB_Device_Library/Class/MSC/Src/usbd_msc_scsi.c ****     {
 843:Middlewares/ST/STM32_USB_Device_Library/Class/MSC/Src/usbd_msc_scsi.c ****       SCSI_SenseCode(pdev, hmsc->cbw.bLUN, ILLEGAL_REQUEST, INVALID_CDB);
 844:Middlewares/ST/STM32_USB_Device_Library/Class/MSC/Src/usbd_msc_scsi.c ****       return -1;
 845:Middlewares/ST/STM32_USB_Device_Library/Class/MSC/Src/usbd_msc_scsi.c ****     }
 846:Middlewares/ST/STM32_USB_Device_Library/Class/MSC/Src/usbd_msc_scsi.c **** 
 847:Middlewares/ST/STM32_USB_Device_Library/Class/MSC/Src/usbd_msc_scsi.c ****     /* Check whether Media is ready */
 848:Middlewares/ST/STM32_USB_Device_Library/Class/MSC/Src/usbd_msc_scsi.c ****     if (((USBD_StorageTypeDef *)pdev->pUserData)->IsReady(lun) != 0)
 849:Middlewares/ST/STM32_USB_Device_Library/Class/MSC/Src/usbd_msc_scsi.c ****     {
 850:Middlewares/ST/STM32_USB_Device_Library/Class/MSC/Src/usbd_msc_scsi.c ****       SCSI_SenseCode(pdev, lun, NOT_READY, MEDIUM_NOT_PRESENT);
 851:Middlewares/ST/STM32_USB_Device_Library/Class/MSC/Src/usbd_msc_scsi.c ****       return -1;
 852:Middlewares/ST/STM32_USB_Device_Library/Class/MSC/Src/usbd_msc_scsi.c ****     }
 853:Middlewares/ST/STM32_USB_Device_Library/Class/MSC/Src/usbd_msc_scsi.c **** 
 854:Middlewares/ST/STM32_USB_Device_Library/Class/MSC/Src/usbd_msc_scsi.c ****     /* Check If media is write-protected */
 855:Middlewares/ST/STM32_USB_Device_Library/Class/MSC/Src/usbd_msc_scsi.c ****     if (((USBD_StorageTypeDef *)pdev->pUserData)->IsWriteProtected(lun) != 0)
 856:Middlewares/ST/STM32_USB_Device_Library/Class/MSC/Src/usbd_msc_scsi.c ****     {
 857:Middlewares/ST/STM32_USB_Device_Library/Class/MSC/Src/usbd_msc_scsi.c ****       SCSI_SenseCode(pdev, lun, NOT_READY, WRITE_PROTECTED);
 858:Middlewares/ST/STM32_USB_Device_Library/Class/MSC/Src/usbd_msc_scsi.c ****       return -1;
 859:Middlewares/ST/STM32_USB_Device_Library/Class/MSC/Src/usbd_msc_scsi.c ****     }
 860:Middlewares/ST/STM32_USB_Device_Library/Class/MSC/Src/usbd_msc_scsi.c **** 
 861:Middlewares/ST/STM32_USB_Device_Library/Class/MSC/Src/usbd_msc_scsi.c ****     hmsc->scsi_blk_addr = ((uint32_t)params[2] << 24) |
 862:Middlewares/ST/STM32_USB_Device_Library/Class/MSC/Src/usbd_msc_scsi.c ****                           ((uint32_t)params[3] << 16) |
 863:Middlewares/ST/STM32_USB_Device_Library/Class/MSC/Src/usbd_msc_scsi.c ****                           ((uint32_t)params[4] << 8) |
 864:Middlewares/ST/STM32_USB_Device_Library/Class/MSC/Src/usbd_msc_scsi.c ****                           (uint32_t)params[5];
 865:Middlewares/ST/STM32_USB_Device_Library/Class/MSC/Src/usbd_msc_scsi.c **** 
 866:Middlewares/ST/STM32_USB_Device_Library/Class/MSC/Src/usbd_msc_scsi.c ****     hmsc->scsi_blk_len = ((uint32_t)params[7] << 8) |
 867:Middlewares/ST/STM32_USB_Device_Library/Class/MSC/Src/usbd_msc_scsi.c ****                          (uint32_t)params[8];
 868:Middlewares/ST/STM32_USB_Device_Library/Class/MSC/Src/usbd_msc_scsi.c **** 
 869:Middlewares/ST/STM32_USB_Device_Library/Class/MSC/Src/usbd_msc_scsi.c ****     /* check if LBA address is in the right range */
 870:Middlewares/ST/STM32_USB_Device_Library/Class/MSC/Src/usbd_msc_scsi.c ****     if (SCSI_CheckAddressRange(pdev, lun, hmsc->scsi_blk_addr,
 871:Middlewares/ST/STM32_USB_Device_Library/Class/MSC/Src/usbd_msc_scsi.c ****                                hmsc->scsi_blk_len) < 0)
 872:Middlewares/ST/STM32_USB_Device_Library/Class/MSC/Src/usbd_msc_scsi.c ****     {
 873:Middlewares/ST/STM32_USB_Device_Library/Class/MSC/Src/usbd_msc_scsi.c ****       return -1; /* error */
 874:Middlewares/ST/STM32_USB_Device_Library/Class/MSC/Src/usbd_msc_scsi.c ****     }
 875:Middlewares/ST/STM32_USB_Device_Library/Class/MSC/Src/usbd_msc_scsi.c **** 
 876:Middlewares/ST/STM32_USB_Device_Library/Class/MSC/Src/usbd_msc_scsi.c ****     len = hmsc->scsi_blk_len * hmsc->scsi_blk_size;
 877:Middlewares/ST/STM32_USB_Device_Library/Class/MSC/Src/usbd_msc_scsi.c **** 
 878:Middlewares/ST/STM32_USB_Device_Library/Class/MSC/Src/usbd_msc_scsi.c ****     /* cases 3,11,13 : Hn,Ho <> D0 */
 879:Middlewares/ST/STM32_USB_Device_Library/Class/MSC/Src/usbd_msc_scsi.c ****     if (hmsc->cbw.dDataLength != len)
 880:Middlewares/ST/STM32_USB_Device_Library/Class/MSC/Src/usbd_msc_scsi.c ****     {
 881:Middlewares/ST/STM32_USB_Device_Library/Class/MSC/Src/usbd_msc_scsi.c ****       SCSI_SenseCode(pdev, hmsc->cbw.bLUN, ILLEGAL_REQUEST, INVALID_CDB);
 882:Middlewares/ST/STM32_USB_Device_Library/Class/MSC/Src/usbd_msc_scsi.c ****       return -1;
ARM GAS  C:\Users\Admin\AppData\Local\Temp\ccCPzby3.s 			page 18


 883:Middlewares/ST/STM32_USB_Device_Library/Class/MSC/Src/usbd_msc_scsi.c ****     }
 884:Middlewares/ST/STM32_USB_Device_Library/Class/MSC/Src/usbd_msc_scsi.c **** 
 885:Middlewares/ST/STM32_USB_Device_Library/Class/MSC/Src/usbd_msc_scsi.c ****     len = MIN(len, MSC_MEDIA_PACKET);
 886:Middlewares/ST/STM32_USB_Device_Library/Class/MSC/Src/usbd_msc_scsi.c **** 
 887:Middlewares/ST/STM32_USB_Device_Library/Class/MSC/Src/usbd_msc_scsi.c ****     /* Prepare EP to receive first data packet */
 888:Middlewares/ST/STM32_USB_Device_Library/Class/MSC/Src/usbd_msc_scsi.c ****     hmsc->bot_state = USBD_BOT_DATA_OUT;
 889:Middlewares/ST/STM32_USB_Device_Library/Class/MSC/Src/usbd_msc_scsi.c ****     (void)USBD_LL_PrepareReceive(pdev, MSC_EPOUT_ADDR, hmsc->bot_data, len);
 890:Middlewares/ST/STM32_USB_Device_Library/Class/MSC/Src/usbd_msc_scsi.c ****   }
 891:Middlewares/ST/STM32_USB_Device_Library/Class/MSC/Src/usbd_msc_scsi.c ****   else /* Write Process ongoing */
 892:Middlewares/ST/STM32_USB_Device_Library/Class/MSC/Src/usbd_msc_scsi.c ****   {
 893:Middlewares/ST/STM32_USB_Device_Library/Class/MSC/Src/usbd_msc_scsi.c ****     return SCSI_ProcessWrite(pdev, lun);
 894:Middlewares/ST/STM32_USB_Device_Library/Class/MSC/Src/usbd_msc_scsi.c ****   }
 895:Middlewares/ST/STM32_USB_Device_Library/Class/MSC/Src/usbd_msc_scsi.c **** 
 896:Middlewares/ST/STM32_USB_Device_Library/Class/MSC/Src/usbd_msc_scsi.c ****   return 0;
 897:Middlewares/ST/STM32_USB_Device_Library/Class/MSC/Src/usbd_msc_scsi.c **** }
 898:Middlewares/ST/STM32_USB_Device_Library/Class/MSC/Src/usbd_msc_scsi.c **** 
 899:Middlewares/ST/STM32_USB_Device_Library/Class/MSC/Src/usbd_msc_scsi.c **** 
 900:Middlewares/ST/STM32_USB_Device_Library/Class/MSC/Src/usbd_msc_scsi.c **** /**
 901:Middlewares/ST/STM32_USB_Device_Library/Class/MSC/Src/usbd_msc_scsi.c ****   * @brief  SCSI_Write12
 902:Middlewares/ST/STM32_USB_Device_Library/Class/MSC/Src/usbd_msc_scsi.c ****   *         Process Write12 command
 903:Middlewares/ST/STM32_USB_Device_Library/Class/MSC/Src/usbd_msc_scsi.c ****   * @param  lun: Logical unit number
 904:Middlewares/ST/STM32_USB_Device_Library/Class/MSC/Src/usbd_msc_scsi.c ****   * @param  params: Command parameters
 905:Middlewares/ST/STM32_USB_Device_Library/Class/MSC/Src/usbd_msc_scsi.c ****   * @retval status
 906:Middlewares/ST/STM32_USB_Device_Library/Class/MSC/Src/usbd_msc_scsi.c ****   */
 907:Middlewares/ST/STM32_USB_Device_Library/Class/MSC/Src/usbd_msc_scsi.c **** static int8_t SCSI_Write12(USBD_HandleTypeDef *pdev, uint8_t lun, uint8_t *params)
 908:Middlewares/ST/STM32_USB_Device_Library/Class/MSC/Src/usbd_msc_scsi.c **** {
 909:Middlewares/ST/STM32_USB_Device_Library/Class/MSC/Src/usbd_msc_scsi.c ****   USBD_MSC_BOT_HandleTypeDef *hmsc = (USBD_MSC_BOT_HandleTypeDef *)pdev->pClassData;
 910:Middlewares/ST/STM32_USB_Device_Library/Class/MSC/Src/usbd_msc_scsi.c ****   uint32_t len;
 911:Middlewares/ST/STM32_USB_Device_Library/Class/MSC/Src/usbd_msc_scsi.c **** 
 912:Middlewares/ST/STM32_USB_Device_Library/Class/MSC/Src/usbd_msc_scsi.c ****   if (hmsc == NULL)
 913:Middlewares/ST/STM32_USB_Device_Library/Class/MSC/Src/usbd_msc_scsi.c ****   {
 914:Middlewares/ST/STM32_USB_Device_Library/Class/MSC/Src/usbd_msc_scsi.c ****     return -1;
 915:Middlewares/ST/STM32_USB_Device_Library/Class/MSC/Src/usbd_msc_scsi.c ****   }
 916:Middlewares/ST/STM32_USB_Device_Library/Class/MSC/Src/usbd_msc_scsi.c **** 
 917:Middlewares/ST/STM32_USB_Device_Library/Class/MSC/Src/usbd_msc_scsi.c ****   if (hmsc->bot_state == USBD_BOT_IDLE) /* Idle */
 918:Middlewares/ST/STM32_USB_Device_Library/Class/MSC/Src/usbd_msc_scsi.c ****   {
 919:Middlewares/ST/STM32_USB_Device_Library/Class/MSC/Src/usbd_msc_scsi.c ****     if (hmsc->cbw.dDataLength == 0U)
 920:Middlewares/ST/STM32_USB_Device_Library/Class/MSC/Src/usbd_msc_scsi.c ****     {
 921:Middlewares/ST/STM32_USB_Device_Library/Class/MSC/Src/usbd_msc_scsi.c ****       SCSI_SenseCode(pdev, hmsc->cbw.bLUN, ILLEGAL_REQUEST, INVALID_CDB);
 922:Middlewares/ST/STM32_USB_Device_Library/Class/MSC/Src/usbd_msc_scsi.c ****       return -1;
 923:Middlewares/ST/STM32_USB_Device_Library/Class/MSC/Src/usbd_msc_scsi.c ****     }
 924:Middlewares/ST/STM32_USB_Device_Library/Class/MSC/Src/usbd_msc_scsi.c **** 
 925:Middlewares/ST/STM32_USB_Device_Library/Class/MSC/Src/usbd_msc_scsi.c ****     /* case 8 : Hi <> Do */
 926:Middlewares/ST/STM32_USB_Device_Library/Class/MSC/Src/usbd_msc_scsi.c ****     if ((hmsc->cbw.bmFlags & 0x80U) == 0x80U)
 927:Middlewares/ST/STM32_USB_Device_Library/Class/MSC/Src/usbd_msc_scsi.c ****     {
 928:Middlewares/ST/STM32_USB_Device_Library/Class/MSC/Src/usbd_msc_scsi.c ****       SCSI_SenseCode(pdev, hmsc->cbw.bLUN, ILLEGAL_REQUEST, INVALID_CDB);
 929:Middlewares/ST/STM32_USB_Device_Library/Class/MSC/Src/usbd_msc_scsi.c ****       return -1;
 930:Middlewares/ST/STM32_USB_Device_Library/Class/MSC/Src/usbd_msc_scsi.c ****     }
 931:Middlewares/ST/STM32_USB_Device_Library/Class/MSC/Src/usbd_msc_scsi.c **** 
 932:Middlewares/ST/STM32_USB_Device_Library/Class/MSC/Src/usbd_msc_scsi.c ****     /* Check whether Media is ready */
 933:Middlewares/ST/STM32_USB_Device_Library/Class/MSC/Src/usbd_msc_scsi.c ****     if (((USBD_StorageTypeDef *)pdev->pUserData)->IsReady(lun) != 0)
 934:Middlewares/ST/STM32_USB_Device_Library/Class/MSC/Src/usbd_msc_scsi.c ****     {
 935:Middlewares/ST/STM32_USB_Device_Library/Class/MSC/Src/usbd_msc_scsi.c ****       SCSI_SenseCode(pdev, lun, NOT_READY, MEDIUM_NOT_PRESENT);
 936:Middlewares/ST/STM32_USB_Device_Library/Class/MSC/Src/usbd_msc_scsi.c ****       hmsc->bot_state = USBD_BOT_NO_DATA;
 937:Middlewares/ST/STM32_USB_Device_Library/Class/MSC/Src/usbd_msc_scsi.c ****       return -1;
 938:Middlewares/ST/STM32_USB_Device_Library/Class/MSC/Src/usbd_msc_scsi.c ****     }
 939:Middlewares/ST/STM32_USB_Device_Library/Class/MSC/Src/usbd_msc_scsi.c **** 
ARM GAS  C:\Users\Admin\AppData\Local\Temp\ccCPzby3.s 			page 19


 940:Middlewares/ST/STM32_USB_Device_Library/Class/MSC/Src/usbd_msc_scsi.c ****     /* Check If media is write-protected */
 941:Middlewares/ST/STM32_USB_Device_Library/Class/MSC/Src/usbd_msc_scsi.c ****     if (((USBD_StorageTypeDef *)pdev->pUserData)->IsWriteProtected(lun) != 0)
 942:Middlewares/ST/STM32_USB_Device_Library/Class/MSC/Src/usbd_msc_scsi.c ****     {
 943:Middlewares/ST/STM32_USB_Device_Library/Class/MSC/Src/usbd_msc_scsi.c ****       SCSI_SenseCode(pdev, lun, NOT_READY, WRITE_PROTECTED);
 944:Middlewares/ST/STM32_USB_Device_Library/Class/MSC/Src/usbd_msc_scsi.c ****       hmsc->bot_state = USBD_BOT_NO_DATA;
 945:Middlewares/ST/STM32_USB_Device_Library/Class/MSC/Src/usbd_msc_scsi.c ****       return -1;
 946:Middlewares/ST/STM32_USB_Device_Library/Class/MSC/Src/usbd_msc_scsi.c ****     }
 947:Middlewares/ST/STM32_USB_Device_Library/Class/MSC/Src/usbd_msc_scsi.c **** 
 948:Middlewares/ST/STM32_USB_Device_Library/Class/MSC/Src/usbd_msc_scsi.c ****     hmsc->scsi_blk_addr = ((uint32_t)params[2] << 24) |
 949:Middlewares/ST/STM32_USB_Device_Library/Class/MSC/Src/usbd_msc_scsi.c ****                           ((uint32_t)params[3] << 16) |
 950:Middlewares/ST/STM32_USB_Device_Library/Class/MSC/Src/usbd_msc_scsi.c ****                           ((uint32_t)params[4] << 8) |
 951:Middlewares/ST/STM32_USB_Device_Library/Class/MSC/Src/usbd_msc_scsi.c ****                           (uint32_t)params[5];
 952:Middlewares/ST/STM32_USB_Device_Library/Class/MSC/Src/usbd_msc_scsi.c **** 
 953:Middlewares/ST/STM32_USB_Device_Library/Class/MSC/Src/usbd_msc_scsi.c ****     hmsc->scsi_blk_len = ((uint32_t)params[6] << 24) |
 954:Middlewares/ST/STM32_USB_Device_Library/Class/MSC/Src/usbd_msc_scsi.c ****                          ((uint32_t)params[7] << 16) |
 955:Middlewares/ST/STM32_USB_Device_Library/Class/MSC/Src/usbd_msc_scsi.c ****                          ((uint32_t)params[8] << 8) |
 956:Middlewares/ST/STM32_USB_Device_Library/Class/MSC/Src/usbd_msc_scsi.c ****                          (uint32_t)params[9];
 957:Middlewares/ST/STM32_USB_Device_Library/Class/MSC/Src/usbd_msc_scsi.c **** 
 958:Middlewares/ST/STM32_USB_Device_Library/Class/MSC/Src/usbd_msc_scsi.c ****     /* check if LBA address is in the right range */
 959:Middlewares/ST/STM32_USB_Device_Library/Class/MSC/Src/usbd_msc_scsi.c ****     if (SCSI_CheckAddressRange(pdev, lun, hmsc->scsi_blk_addr,
 960:Middlewares/ST/STM32_USB_Device_Library/Class/MSC/Src/usbd_msc_scsi.c ****                                hmsc->scsi_blk_len) < 0)
 961:Middlewares/ST/STM32_USB_Device_Library/Class/MSC/Src/usbd_msc_scsi.c ****     {
 962:Middlewares/ST/STM32_USB_Device_Library/Class/MSC/Src/usbd_msc_scsi.c ****       return -1; /* error */
 963:Middlewares/ST/STM32_USB_Device_Library/Class/MSC/Src/usbd_msc_scsi.c ****     }
 964:Middlewares/ST/STM32_USB_Device_Library/Class/MSC/Src/usbd_msc_scsi.c **** 
 965:Middlewares/ST/STM32_USB_Device_Library/Class/MSC/Src/usbd_msc_scsi.c ****     len = hmsc->scsi_blk_len * hmsc->scsi_blk_size;
 966:Middlewares/ST/STM32_USB_Device_Library/Class/MSC/Src/usbd_msc_scsi.c **** 
 967:Middlewares/ST/STM32_USB_Device_Library/Class/MSC/Src/usbd_msc_scsi.c ****     /* cases 3,11,13 : Hn,Ho <> D0 */
 968:Middlewares/ST/STM32_USB_Device_Library/Class/MSC/Src/usbd_msc_scsi.c ****     if (hmsc->cbw.dDataLength != len)
 969:Middlewares/ST/STM32_USB_Device_Library/Class/MSC/Src/usbd_msc_scsi.c ****     {
 970:Middlewares/ST/STM32_USB_Device_Library/Class/MSC/Src/usbd_msc_scsi.c ****       SCSI_SenseCode(pdev, hmsc->cbw.bLUN, ILLEGAL_REQUEST, INVALID_CDB);
 971:Middlewares/ST/STM32_USB_Device_Library/Class/MSC/Src/usbd_msc_scsi.c ****       return -1;
 972:Middlewares/ST/STM32_USB_Device_Library/Class/MSC/Src/usbd_msc_scsi.c ****     }
 973:Middlewares/ST/STM32_USB_Device_Library/Class/MSC/Src/usbd_msc_scsi.c **** 
 974:Middlewares/ST/STM32_USB_Device_Library/Class/MSC/Src/usbd_msc_scsi.c ****     len = MIN(len, MSC_MEDIA_PACKET);
 975:Middlewares/ST/STM32_USB_Device_Library/Class/MSC/Src/usbd_msc_scsi.c **** 
 976:Middlewares/ST/STM32_USB_Device_Library/Class/MSC/Src/usbd_msc_scsi.c ****     /* Prepare EP to receive first data packet */
 977:Middlewares/ST/STM32_USB_Device_Library/Class/MSC/Src/usbd_msc_scsi.c ****     hmsc->bot_state = USBD_BOT_DATA_OUT;
 978:Middlewares/ST/STM32_USB_Device_Library/Class/MSC/Src/usbd_msc_scsi.c ****     (void)USBD_LL_PrepareReceive(pdev, MSC_EPOUT_ADDR, hmsc->bot_data, len);
 979:Middlewares/ST/STM32_USB_Device_Library/Class/MSC/Src/usbd_msc_scsi.c ****   }
 980:Middlewares/ST/STM32_USB_Device_Library/Class/MSC/Src/usbd_msc_scsi.c ****   else /* Write Process ongoing */
 981:Middlewares/ST/STM32_USB_Device_Library/Class/MSC/Src/usbd_msc_scsi.c ****   {
 982:Middlewares/ST/STM32_USB_Device_Library/Class/MSC/Src/usbd_msc_scsi.c ****     return SCSI_ProcessWrite(pdev, lun);
 983:Middlewares/ST/STM32_USB_Device_Library/Class/MSC/Src/usbd_msc_scsi.c ****   }
 984:Middlewares/ST/STM32_USB_Device_Library/Class/MSC/Src/usbd_msc_scsi.c **** 
 985:Middlewares/ST/STM32_USB_Device_Library/Class/MSC/Src/usbd_msc_scsi.c ****   return 0;
 986:Middlewares/ST/STM32_USB_Device_Library/Class/MSC/Src/usbd_msc_scsi.c **** }
 987:Middlewares/ST/STM32_USB_Device_Library/Class/MSC/Src/usbd_msc_scsi.c **** 
 988:Middlewares/ST/STM32_USB_Device_Library/Class/MSC/Src/usbd_msc_scsi.c **** 
 989:Middlewares/ST/STM32_USB_Device_Library/Class/MSC/Src/usbd_msc_scsi.c **** /**
 990:Middlewares/ST/STM32_USB_Device_Library/Class/MSC/Src/usbd_msc_scsi.c ****   * @brief  SCSI_Verify10
 991:Middlewares/ST/STM32_USB_Device_Library/Class/MSC/Src/usbd_msc_scsi.c ****   *         Process Verify10 command
 992:Middlewares/ST/STM32_USB_Device_Library/Class/MSC/Src/usbd_msc_scsi.c ****   * @param  lun: Logical unit number
 993:Middlewares/ST/STM32_USB_Device_Library/Class/MSC/Src/usbd_msc_scsi.c ****   * @param  params: Command parameters
 994:Middlewares/ST/STM32_USB_Device_Library/Class/MSC/Src/usbd_msc_scsi.c ****   * @retval status
 995:Middlewares/ST/STM32_USB_Device_Library/Class/MSC/Src/usbd_msc_scsi.c ****   */
 996:Middlewares/ST/STM32_USB_Device_Library/Class/MSC/Src/usbd_msc_scsi.c **** static int8_t SCSI_Verify10(USBD_HandleTypeDef *pdev, uint8_t lun, uint8_t *params)
ARM GAS  C:\Users\Admin\AppData\Local\Temp\ccCPzby3.s 			page 20


 997:Middlewares/ST/STM32_USB_Device_Library/Class/MSC/Src/usbd_msc_scsi.c **** {
 998:Middlewares/ST/STM32_USB_Device_Library/Class/MSC/Src/usbd_msc_scsi.c ****   USBD_MSC_BOT_HandleTypeDef *hmsc = (USBD_MSC_BOT_HandleTypeDef *)pdev->pClassData;
 999:Middlewares/ST/STM32_USB_Device_Library/Class/MSC/Src/usbd_msc_scsi.c **** 
1000:Middlewares/ST/STM32_USB_Device_Library/Class/MSC/Src/usbd_msc_scsi.c ****   if (hmsc == NULL)
1001:Middlewares/ST/STM32_USB_Device_Library/Class/MSC/Src/usbd_msc_scsi.c ****   {
1002:Middlewares/ST/STM32_USB_Device_Library/Class/MSC/Src/usbd_msc_scsi.c ****     return -1;
1003:Middlewares/ST/STM32_USB_Device_Library/Class/MSC/Src/usbd_msc_scsi.c ****   }
1004:Middlewares/ST/STM32_USB_Device_Library/Class/MSC/Src/usbd_msc_scsi.c **** 
1005:Middlewares/ST/STM32_USB_Device_Library/Class/MSC/Src/usbd_msc_scsi.c ****   if ((params[1] & 0x02U) == 0x02U)
1006:Middlewares/ST/STM32_USB_Device_Library/Class/MSC/Src/usbd_msc_scsi.c ****   {
1007:Middlewares/ST/STM32_USB_Device_Library/Class/MSC/Src/usbd_msc_scsi.c ****     SCSI_SenseCode(pdev, lun, ILLEGAL_REQUEST, INVALID_FIELED_IN_COMMAND);
1008:Middlewares/ST/STM32_USB_Device_Library/Class/MSC/Src/usbd_msc_scsi.c ****     return -1; /* Error, Verify Mode Not supported*/
1009:Middlewares/ST/STM32_USB_Device_Library/Class/MSC/Src/usbd_msc_scsi.c ****   }
1010:Middlewares/ST/STM32_USB_Device_Library/Class/MSC/Src/usbd_msc_scsi.c **** 
1011:Middlewares/ST/STM32_USB_Device_Library/Class/MSC/Src/usbd_msc_scsi.c ****   if (SCSI_CheckAddressRange(pdev, lun, hmsc->scsi_blk_addr, hmsc->scsi_blk_len) < 0)
1012:Middlewares/ST/STM32_USB_Device_Library/Class/MSC/Src/usbd_msc_scsi.c ****   {
1013:Middlewares/ST/STM32_USB_Device_Library/Class/MSC/Src/usbd_msc_scsi.c ****     return -1; /* error */
1014:Middlewares/ST/STM32_USB_Device_Library/Class/MSC/Src/usbd_msc_scsi.c ****   }
1015:Middlewares/ST/STM32_USB_Device_Library/Class/MSC/Src/usbd_msc_scsi.c **** 
1016:Middlewares/ST/STM32_USB_Device_Library/Class/MSC/Src/usbd_msc_scsi.c ****   hmsc->bot_data_length = 0U;
1017:Middlewares/ST/STM32_USB_Device_Library/Class/MSC/Src/usbd_msc_scsi.c **** 
1018:Middlewares/ST/STM32_USB_Device_Library/Class/MSC/Src/usbd_msc_scsi.c ****   return 0;
1019:Middlewares/ST/STM32_USB_Device_Library/Class/MSC/Src/usbd_msc_scsi.c **** }
1020:Middlewares/ST/STM32_USB_Device_Library/Class/MSC/Src/usbd_msc_scsi.c **** 
1021:Middlewares/ST/STM32_USB_Device_Library/Class/MSC/Src/usbd_msc_scsi.c **** /**
1022:Middlewares/ST/STM32_USB_Device_Library/Class/MSC/Src/usbd_msc_scsi.c ****   * @brief  SCSI_CheckAddressRange
1023:Middlewares/ST/STM32_USB_Device_Library/Class/MSC/Src/usbd_msc_scsi.c ****   *         Check address range
1024:Middlewares/ST/STM32_USB_Device_Library/Class/MSC/Src/usbd_msc_scsi.c ****   * @param  lun: Logical unit number
1025:Middlewares/ST/STM32_USB_Device_Library/Class/MSC/Src/usbd_msc_scsi.c ****   * @param  blk_offset: first block address
1026:Middlewares/ST/STM32_USB_Device_Library/Class/MSC/Src/usbd_msc_scsi.c ****   * @param  blk_nbr: number of block to be processed
1027:Middlewares/ST/STM32_USB_Device_Library/Class/MSC/Src/usbd_msc_scsi.c ****   * @retval status
1028:Middlewares/ST/STM32_USB_Device_Library/Class/MSC/Src/usbd_msc_scsi.c ****   */
1029:Middlewares/ST/STM32_USB_Device_Library/Class/MSC/Src/usbd_msc_scsi.c **** static int8_t SCSI_CheckAddressRange(USBD_HandleTypeDef *pdev, uint8_t lun,
1030:Middlewares/ST/STM32_USB_Device_Library/Class/MSC/Src/usbd_msc_scsi.c ****                                      uint32_t blk_offset, uint32_t blk_nbr)
1031:Middlewares/ST/STM32_USB_Device_Library/Class/MSC/Src/usbd_msc_scsi.c **** {
1032:Middlewares/ST/STM32_USB_Device_Library/Class/MSC/Src/usbd_msc_scsi.c ****   USBD_MSC_BOT_HandleTypeDef *hmsc = (USBD_MSC_BOT_HandleTypeDef *)pdev->pClassData;
1033:Middlewares/ST/STM32_USB_Device_Library/Class/MSC/Src/usbd_msc_scsi.c **** 
1034:Middlewares/ST/STM32_USB_Device_Library/Class/MSC/Src/usbd_msc_scsi.c ****   if (hmsc == NULL)
1035:Middlewares/ST/STM32_USB_Device_Library/Class/MSC/Src/usbd_msc_scsi.c ****   {
1036:Middlewares/ST/STM32_USB_Device_Library/Class/MSC/Src/usbd_msc_scsi.c ****     return -1;
1037:Middlewares/ST/STM32_USB_Device_Library/Class/MSC/Src/usbd_msc_scsi.c ****   }
1038:Middlewares/ST/STM32_USB_Device_Library/Class/MSC/Src/usbd_msc_scsi.c **** 
1039:Middlewares/ST/STM32_USB_Device_Library/Class/MSC/Src/usbd_msc_scsi.c ****   if ((blk_offset + blk_nbr) > hmsc->scsi_blk_nbr)
1040:Middlewares/ST/STM32_USB_Device_Library/Class/MSC/Src/usbd_msc_scsi.c ****   {
1041:Middlewares/ST/STM32_USB_Device_Library/Class/MSC/Src/usbd_msc_scsi.c ****     SCSI_SenseCode(pdev, lun, ILLEGAL_REQUEST, ADDRESS_OUT_OF_RANGE);
1042:Middlewares/ST/STM32_USB_Device_Library/Class/MSC/Src/usbd_msc_scsi.c ****     return -1;
1043:Middlewares/ST/STM32_USB_Device_Library/Class/MSC/Src/usbd_msc_scsi.c ****   }
1044:Middlewares/ST/STM32_USB_Device_Library/Class/MSC/Src/usbd_msc_scsi.c **** 
1045:Middlewares/ST/STM32_USB_Device_Library/Class/MSC/Src/usbd_msc_scsi.c ****   return 0;
1046:Middlewares/ST/STM32_USB_Device_Library/Class/MSC/Src/usbd_msc_scsi.c **** }
1047:Middlewares/ST/STM32_USB_Device_Library/Class/MSC/Src/usbd_msc_scsi.c **** 
1048:Middlewares/ST/STM32_USB_Device_Library/Class/MSC/Src/usbd_msc_scsi.c **** /**
1049:Middlewares/ST/STM32_USB_Device_Library/Class/MSC/Src/usbd_msc_scsi.c ****   * @brief  SCSI_ProcessRead
1050:Middlewares/ST/STM32_USB_Device_Library/Class/MSC/Src/usbd_msc_scsi.c ****   *         Handle Read Process
1051:Middlewares/ST/STM32_USB_Device_Library/Class/MSC/Src/usbd_msc_scsi.c ****   * @param  lun: Logical unit number
1052:Middlewares/ST/STM32_USB_Device_Library/Class/MSC/Src/usbd_msc_scsi.c ****   * @retval status
1053:Middlewares/ST/STM32_USB_Device_Library/Class/MSC/Src/usbd_msc_scsi.c ****   */
ARM GAS  C:\Users\Admin\AppData\Local\Temp\ccCPzby3.s 			page 21


1054:Middlewares/ST/STM32_USB_Device_Library/Class/MSC/Src/usbd_msc_scsi.c **** static int8_t SCSI_ProcessRead(USBD_HandleTypeDef *pdev, uint8_t lun)
1055:Middlewares/ST/STM32_USB_Device_Library/Class/MSC/Src/usbd_msc_scsi.c **** {
1056:Middlewares/ST/STM32_USB_Device_Library/Class/MSC/Src/usbd_msc_scsi.c ****   USBD_MSC_BOT_HandleTypeDef *hmsc = (USBD_MSC_BOT_HandleTypeDef *)pdev->pClassData;
1057:Middlewares/ST/STM32_USB_Device_Library/Class/MSC/Src/usbd_msc_scsi.c ****   uint32_t len = hmsc->scsi_blk_len * hmsc->scsi_blk_size;
1058:Middlewares/ST/STM32_USB_Device_Library/Class/MSC/Src/usbd_msc_scsi.c **** 
1059:Middlewares/ST/STM32_USB_Device_Library/Class/MSC/Src/usbd_msc_scsi.c ****   if (hmsc == NULL)
1060:Middlewares/ST/STM32_USB_Device_Library/Class/MSC/Src/usbd_msc_scsi.c ****   {
1061:Middlewares/ST/STM32_USB_Device_Library/Class/MSC/Src/usbd_msc_scsi.c ****     return -1;
1062:Middlewares/ST/STM32_USB_Device_Library/Class/MSC/Src/usbd_msc_scsi.c ****   }
1063:Middlewares/ST/STM32_USB_Device_Library/Class/MSC/Src/usbd_msc_scsi.c **** 
1064:Middlewares/ST/STM32_USB_Device_Library/Class/MSC/Src/usbd_msc_scsi.c ****   len = MIN(len, MSC_MEDIA_PACKET);
1065:Middlewares/ST/STM32_USB_Device_Library/Class/MSC/Src/usbd_msc_scsi.c **** 
1066:Middlewares/ST/STM32_USB_Device_Library/Class/MSC/Src/usbd_msc_scsi.c ****   if (((USBD_StorageTypeDef *)pdev->pUserData)->Read(lun, hmsc->bot_data,
1067:Middlewares/ST/STM32_USB_Device_Library/Class/MSC/Src/usbd_msc_scsi.c ****                                                      hmsc->scsi_blk_addr,
1068:Middlewares/ST/STM32_USB_Device_Library/Class/MSC/Src/usbd_msc_scsi.c ****                                                      (len / hmsc->scsi_blk_size)) < 0)
1069:Middlewares/ST/STM32_USB_Device_Library/Class/MSC/Src/usbd_msc_scsi.c ****   {
1070:Middlewares/ST/STM32_USB_Device_Library/Class/MSC/Src/usbd_msc_scsi.c ****     SCSI_SenseCode(pdev, lun, HARDWARE_ERROR, UNRECOVERED_READ_ERROR);
1071:Middlewares/ST/STM32_USB_Device_Library/Class/MSC/Src/usbd_msc_scsi.c ****     return -1;
1072:Middlewares/ST/STM32_USB_Device_Library/Class/MSC/Src/usbd_msc_scsi.c ****   }
1073:Middlewares/ST/STM32_USB_Device_Library/Class/MSC/Src/usbd_msc_scsi.c **** 
1074:Middlewares/ST/STM32_USB_Device_Library/Class/MSC/Src/usbd_msc_scsi.c ****   (void)USBD_LL_Transmit(pdev, MSC_EPIN_ADDR, hmsc->bot_data, len);
1075:Middlewares/ST/STM32_USB_Device_Library/Class/MSC/Src/usbd_msc_scsi.c **** 
1076:Middlewares/ST/STM32_USB_Device_Library/Class/MSC/Src/usbd_msc_scsi.c ****   hmsc->scsi_blk_addr += (len / hmsc->scsi_blk_size);
1077:Middlewares/ST/STM32_USB_Device_Library/Class/MSC/Src/usbd_msc_scsi.c ****   hmsc->scsi_blk_len -= (len / hmsc->scsi_blk_size);
1078:Middlewares/ST/STM32_USB_Device_Library/Class/MSC/Src/usbd_msc_scsi.c **** 
1079:Middlewares/ST/STM32_USB_Device_Library/Class/MSC/Src/usbd_msc_scsi.c ****   /* case 6 : Hi = Di */
1080:Middlewares/ST/STM32_USB_Device_Library/Class/MSC/Src/usbd_msc_scsi.c ****   hmsc->csw.dDataResidue -= len;
1081:Middlewares/ST/STM32_USB_Device_Library/Class/MSC/Src/usbd_msc_scsi.c **** 
1082:Middlewares/ST/STM32_USB_Device_Library/Class/MSC/Src/usbd_msc_scsi.c ****   if (hmsc->scsi_blk_len == 0U)
1083:Middlewares/ST/STM32_USB_Device_Library/Class/MSC/Src/usbd_msc_scsi.c ****   {
1084:Middlewares/ST/STM32_USB_Device_Library/Class/MSC/Src/usbd_msc_scsi.c ****     hmsc->bot_state = USBD_BOT_LAST_DATA_IN;
1085:Middlewares/ST/STM32_USB_Device_Library/Class/MSC/Src/usbd_msc_scsi.c ****   }
1086:Middlewares/ST/STM32_USB_Device_Library/Class/MSC/Src/usbd_msc_scsi.c **** 
1087:Middlewares/ST/STM32_USB_Device_Library/Class/MSC/Src/usbd_msc_scsi.c ****   return 0;
1088:Middlewares/ST/STM32_USB_Device_Library/Class/MSC/Src/usbd_msc_scsi.c **** }
1089:Middlewares/ST/STM32_USB_Device_Library/Class/MSC/Src/usbd_msc_scsi.c **** 
1090:Middlewares/ST/STM32_USB_Device_Library/Class/MSC/Src/usbd_msc_scsi.c **** /**
1091:Middlewares/ST/STM32_USB_Device_Library/Class/MSC/Src/usbd_msc_scsi.c ****   * @brief  SCSI_ProcessWrite
1092:Middlewares/ST/STM32_USB_Device_Library/Class/MSC/Src/usbd_msc_scsi.c ****   *         Handle Write Process
1093:Middlewares/ST/STM32_USB_Device_Library/Class/MSC/Src/usbd_msc_scsi.c ****   * @param  lun: Logical unit number
1094:Middlewares/ST/STM32_USB_Device_Library/Class/MSC/Src/usbd_msc_scsi.c ****   * @retval status
1095:Middlewares/ST/STM32_USB_Device_Library/Class/MSC/Src/usbd_msc_scsi.c ****   */
1096:Middlewares/ST/STM32_USB_Device_Library/Class/MSC/Src/usbd_msc_scsi.c **** static int8_t SCSI_ProcessWrite(USBD_HandleTypeDef *pdev, uint8_t lun)
1097:Middlewares/ST/STM32_USB_Device_Library/Class/MSC/Src/usbd_msc_scsi.c **** {
1098:Middlewares/ST/STM32_USB_Device_Library/Class/MSC/Src/usbd_msc_scsi.c ****   USBD_MSC_BOT_HandleTypeDef *hmsc = (USBD_MSC_BOT_HandleTypeDef *)pdev->pClassData;
1099:Middlewares/ST/STM32_USB_Device_Library/Class/MSC/Src/usbd_msc_scsi.c ****   uint32_t len = hmsc->scsi_blk_len * hmsc->scsi_blk_size;
1100:Middlewares/ST/STM32_USB_Device_Library/Class/MSC/Src/usbd_msc_scsi.c **** 
1101:Middlewares/ST/STM32_USB_Device_Library/Class/MSC/Src/usbd_msc_scsi.c ****   if (hmsc == NULL)
1102:Middlewares/ST/STM32_USB_Device_Library/Class/MSC/Src/usbd_msc_scsi.c ****   {
1103:Middlewares/ST/STM32_USB_Device_Library/Class/MSC/Src/usbd_msc_scsi.c ****     return -1;
1104:Middlewares/ST/STM32_USB_Device_Library/Class/MSC/Src/usbd_msc_scsi.c ****   }
1105:Middlewares/ST/STM32_USB_Device_Library/Class/MSC/Src/usbd_msc_scsi.c **** 
1106:Middlewares/ST/STM32_USB_Device_Library/Class/MSC/Src/usbd_msc_scsi.c ****   len = MIN(len, MSC_MEDIA_PACKET);
1107:Middlewares/ST/STM32_USB_Device_Library/Class/MSC/Src/usbd_msc_scsi.c **** 
1108:Middlewares/ST/STM32_USB_Device_Library/Class/MSC/Src/usbd_msc_scsi.c ****   if (((USBD_StorageTypeDef *)pdev->pUserData)->Write(lun, hmsc->bot_data,
1109:Middlewares/ST/STM32_USB_Device_Library/Class/MSC/Src/usbd_msc_scsi.c ****                                                       hmsc->scsi_blk_addr,
1110:Middlewares/ST/STM32_USB_Device_Library/Class/MSC/Src/usbd_msc_scsi.c ****                                                       (len / hmsc->scsi_blk_size)) < 0)
ARM GAS  C:\Users\Admin\AppData\Local\Temp\ccCPzby3.s 			page 22


1111:Middlewares/ST/STM32_USB_Device_Library/Class/MSC/Src/usbd_msc_scsi.c ****   {
1112:Middlewares/ST/STM32_USB_Device_Library/Class/MSC/Src/usbd_msc_scsi.c ****     SCSI_SenseCode(pdev, lun, HARDWARE_ERROR, WRITE_FAULT);
1113:Middlewares/ST/STM32_USB_Device_Library/Class/MSC/Src/usbd_msc_scsi.c ****     return -1;
1114:Middlewares/ST/STM32_USB_Device_Library/Class/MSC/Src/usbd_msc_scsi.c ****   }
1115:Middlewares/ST/STM32_USB_Device_Library/Class/MSC/Src/usbd_msc_scsi.c **** 
1116:Middlewares/ST/STM32_USB_Device_Library/Class/MSC/Src/usbd_msc_scsi.c ****   hmsc->scsi_blk_addr += (len / hmsc->scsi_blk_size);
1117:Middlewares/ST/STM32_USB_Device_Library/Class/MSC/Src/usbd_msc_scsi.c ****   hmsc->scsi_blk_len -= (len / hmsc->scsi_blk_size);
1118:Middlewares/ST/STM32_USB_Device_Library/Class/MSC/Src/usbd_msc_scsi.c **** 
1119:Middlewares/ST/STM32_USB_Device_Library/Class/MSC/Src/usbd_msc_scsi.c ****   /* case 12 : Ho = Do */
1120:Middlewares/ST/STM32_USB_Device_Library/Class/MSC/Src/usbd_msc_scsi.c ****   hmsc->csw.dDataResidue -= len;
1121:Middlewares/ST/STM32_USB_Device_Library/Class/MSC/Src/usbd_msc_scsi.c **** 
1122:Middlewares/ST/STM32_USB_Device_Library/Class/MSC/Src/usbd_msc_scsi.c ****   if (hmsc->scsi_blk_len == 0U)
1123:Middlewares/ST/STM32_USB_Device_Library/Class/MSC/Src/usbd_msc_scsi.c ****   {
1124:Middlewares/ST/STM32_USB_Device_Library/Class/MSC/Src/usbd_msc_scsi.c ****     MSC_BOT_SendCSW(pdev, USBD_CSW_CMD_PASSED);
1125:Middlewares/ST/STM32_USB_Device_Library/Class/MSC/Src/usbd_msc_scsi.c ****   }
1126:Middlewares/ST/STM32_USB_Device_Library/Class/MSC/Src/usbd_msc_scsi.c ****   else
1127:Middlewares/ST/STM32_USB_Device_Library/Class/MSC/Src/usbd_msc_scsi.c ****   {
1128:Middlewares/ST/STM32_USB_Device_Library/Class/MSC/Src/usbd_msc_scsi.c ****     len = MIN((hmsc->scsi_blk_len * hmsc->scsi_blk_size), MSC_MEDIA_PACKET);
1129:Middlewares/ST/STM32_USB_Device_Library/Class/MSC/Src/usbd_msc_scsi.c **** 
1130:Middlewares/ST/STM32_USB_Device_Library/Class/MSC/Src/usbd_msc_scsi.c ****     /* Prepare EP to Receive next packet */
1131:Middlewares/ST/STM32_USB_Device_Library/Class/MSC/Src/usbd_msc_scsi.c ****     (void)USBD_LL_PrepareReceive(pdev, MSC_EPOUT_ADDR, hmsc->bot_data, len);
1132:Middlewares/ST/STM32_USB_Device_Library/Class/MSC/Src/usbd_msc_scsi.c ****   }
1133:Middlewares/ST/STM32_USB_Device_Library/Class/MSC/Src/usbd_msc_scsi.c **** 
1134:Middlewares/ST/STM32_USB_Device_Library/Class/MSC/Src/usbd_msc_scsi.c ****   return 0;
1135:Middlewares/ST/STM32_USB_Device_Library/Class/MSC/Src/usbd_msc_scsi.c **** }
1136:Middlewares/ST/STM32_USB_Device_Library/Class/MSC/Src/usbd_msc_scsi.c **** 
1137:Middlewares/ST/STM32_USB_Device_Library/Class/MSC/Src/usbd_msc_scsi.c **** 
1138:Middlewares/ST/STM32_USB_Device_Library/Class/MSC/Src/usbd_msc_scsi.c **** /**
1139:Middlewares/ST/STM32_USB_Device_Library/Class/MSC/Src/usbd_msc_scsi.c ****   * @brief  SCSI_UpdateBotData
1140:Middlewares/ST/STM32_USB_Device_Library/Class/MSC/Src/usbd_msc_scsi.c ****   *         fill the requested Data to transmit buffer
1141:Middlewares/ST/STM32_USB_Device_Library/Class/MSC/Src/usbd_msc_scsi.c ****   * @param  hmsc handler
1142:Middlewares/ST/STM32_USB_Device_Library/Class/MSC/Src/usbd_msc_scsi.c ****   * @param  pBuff: Data buffer
1143:Middlewares/ST/STM32_USB_Device_Library/Class/MSC/Src/usbd_msc_scsi.c ****   * @param  length: Data length
1144:Middlewares/ST/STM32_USB_Device_Library/Class/MSC/Src/usbd_msc_scsi.c ****   * @retval status
1145:Middlewares/ST/STM32_USB_Device_Library/Class/MSC/Src/usbd_msc_scsi.c ****   */
1146:Middlewares/ST/STM32_USB_Device_Library/Class/MSC/Src/usbd_msc_scsi.c **** static int8_t SCSI_UpdateBotData(USBD_MSC_BOT_HandleTypeDef *hmsc,
1147:Middlewares/ST/STM32_USB_Device_Library/Class/MSC/Src/usbd_msc_scsi.c ****                                  uint8_t *pBuff, uint16_t length)
1148:Middlewares/ST/STM32_USB_Device_Library/Class/MSC/Src/usbd_msc_scsi.c **** {
  88              		.loc 1 1148 1 is_stmt 1 view -0
  89              		.cfi_startproc
  90              		@ args = 0, pretend = 0, frame = 0
  91              		@ frame_needed = 0, uses_anonymous_args = 0
  92              		@ link register save eliminated.
1149:Middlewares/ST/STM32_USB_Device_Library/Class/MSC/Src/usbd_msc_scsi.c ****   uint16_t len = length;
  93              		.loc 1 1149 3 view .LVU21
1150:Middlewares/ST/STM32_USB_Device_Library/Class/MSC/Src/usbd_msc_scsi.c **** 
1151:Middlewares/ST/STM32_USB_Device_Library/Class/MSC/Src/usbd_msc_scsi.c ****   if (hmsc == NULL)
  94              		.loc 1 1151 3 view .LVU22
  95              		.loc 1 1151 6 is_stmt 0 view .LVU23
  96 0000 68B1     		cbz	r0, .L10
1148:Middlewares/ST/STM32_USB_Device_Library/Class/MSC/Src/usbd_msc_scsi.c ****   uint16_t len = length;
  97              		.loc 1 1148 1 view .LVU24
  98 0002 10B4     		push	{r4}
  99              	.LCFI0:
 100              		.cfi_def_cfa_offset 4
 101              		.cfi_offset 4, -4
 102 0004 0446     		mov	r4, r0
ARM GAS  C:\Users\Admin\AppData\Local\Temp\ccCPzby3.s 			page 23


1152:Middlewares/ST/STM32_USB_Device_Library/Class/MSC/Src/usbd_msc_scsi.c ****   {
1153:Middlewares/ST/STM32_USB_Device_Library/Class/MSC/Src/usbd_msc_scsi.c ****     return -1;
1154:Middlewares/ST/STM32_USB_Device_Library/Class/MSC/Src/usbd_msc_scsi.c ****   }
1155:Middlewares/ST/STM32_USB_Device_Library/Class/MSC/Src/usbd_msc_scsi.c **** 
1156:Middlewares/ST/STM32_USB_Device_Library/Class/MSC/Src/usbd_msc_scsi.c ****   hmsc->bot_data_length = len;
 103              		.loc 1 1156 3 is_stmt 1 view .LVU25
 104              		.loc 1 1156 25 is_stmt 0 view .LVU26
 105 0006 C260     		str	r2, [r0, #12]
1157:Middlewares/ST/STM32_USB_Device_Library/Class/MSC/Src/usbd_msc_scsi.c **** 
1158:Middlewares/ST/STM32_USB_Device_Library/Class/MSC/Src/usbd_msc_scsi.c ****   while (len != 0U)
 106              		.loc 1 1158 3 is_stmt 1 view .LVU27
 107              	.LVL8:
 108              	.L8:
 109              		.loc 1 1158 9 view .LVU28
 110 0008 2AB1     		cbz	r2, .L15
1159:Middlewares/ST/STM32_USB_Device_Library/Class/MSC/Src/usbd_msc_scsi.c ****   {
1160:Middlewares/ST/STM32_USB_Device_Library/Class/MSC/Src/usbd_msc_scsi.c ****     len--;
 111              		.loc 1 1160 5 view .LVU29
 112              		.loc 1 1160 8 is_stmt 0 view .LVU30
 113 000a 013A     		subs	r2, r2, #1
 114              	.LVL9:
 115              		.loc 1 1160 8 view .LVU31
 116 000c 92B2     		uxth	r2, r2
 117              	.LVL10:
1161:Middlewares/ST/STM32_USB_Device_Library/Class/MSC/Src/usbd_msc_scsi.c ****     hmsc->bot_data[len] = pBuff[len];
 118              		.loc 1 1161 5 is_stmt 1 view .LVU32
 119              		.loc 1 1161 32 is_stmt 0 view .LVU33
 120 000e 885C     		ldrb	r0, [r1, r2]	@ zero_extendqisi2
 121              		.loc 1 1161 25 view .LVU34
 122 0010 A318     		adds	r3, r4, r2
 123 0012 1874     		strb	r0, [r3, #16]
 124 0014 F8E7     		b	.L8
 125              	.L15:
1162:Middlewares/ST/STM32_USB_Device_Library/Class/MSC/Src/usbd_msc_scsi.c ****   }
1163:Middlewares/ST/STM32_USB_Device_Library/Class/MSC/Src/usbd_msc_scsi.c **** 
1164:Middlewares/ST/STM32_USB_Device_Library/Class/MSC/Src/usbd_msc_scsi.c ****   return 0;
 126              		.loc 1 1164 10 view .LVU35
 127 0016 0020     		movs	r0, #0
1165:Middlewares/ST/STM32_USB_Device_Library/Class/MSC/Src/usbd_msc_scsi.c **** }
 128              		.loc 1 1165 1 view .LVU36
 129 0018 5DF8044B 		ldr	r4, [sp], #4
 130              	.LCFI1:
 131              		.cfi_restore 4
 132              		.cfi_def_cfa_offset 0
 133              	.LVL11:
 134              		.loc 1 1165 1 view .LVU37
 135 001c 7047     		bx	lr
 136              	.LVL12:
 137              	.L10:
1153:Middlewares/ST/STM32_USB_Device_Library/Class/MSC/Src/usbd_msc_scsi.c ****   }
 138              		.loc 1 1153 12 view .LVU38
 139 001e 4FF0FF30 		mov	r0, #-1
 140              	.LVL13:
 141              		.loc 1 1165 1 view .LVU39
 142 0022 7047     		bx	lr
 143              		.cfi_endproc
 144              	.LFE156:
ARM GAS  C:\Users\Admin\AppData\Local\Temp\ccCPzby3.s 			page 24


 146              		.section	.text.SCSI_ModeSense6,"ax",%progbits
 147              		.align	1
 148              		.syntax unified
 149              		.thumb
 150              		.thumb_func
 151              		.fpu fpv4-sp-d16
 153              	SCSI_ModeSense6:
 154              	.LVL14:
 155              	.LFB142:
 466:Middlewares/ST/STM32_USB_Device_Library/Class/MSC/Src/usbd_msc_scsi.c ****   UNUSED(lun);
 156              		.loc 1 466 1 is_stmt 1 view -0
 157              		.cfi_startproc
 158              		@ args = 0, pretend = 0, frame = 0
 159              		@ frame_needed = 0, uses_anonymous_args = 0
 467:Middlewares/ST/STM32_USB_Device_Library/Class/MSC/Src/usbd_msc_scsi.c ****   USBD_MSC_BOT_HandleTypeDef *hmsc = (USBD_MSC_BOT_HandleTypeDef *)pdev->pClassData;
 160              		.loc 1 467 3 view .LVU41
 468:Middlewares/ST/STM32_USB_Device_Library/Class/MSC/Src/usbd_msc_scsi.c ****   uint16_t len = MODE_SENSE6_LEN;
 161              		.loc 1 468 3 view .LVU42
 468:Middlewares/ST/STM32_USB_Device_Library/Class/MSC/Src/usbd_msc_scsi.c ****   uint16_t len = MODE_SENSE6_LEN;
 162              		.loc 1 468 31 is_stmt 0 view .LVU43
 163 0000 D0F8BC02 		ldr	r0, [r0, #700]
 164              	.LVL15:
 469:Middlewares/ST/STM32_USB_Device_Library/Class/MSC/Src/usbd_msc_scsi.c **** 
 165              		.loc 1 469 3 is_stmt 1 view .LVU44
 471:Middlewares/ST/STM32_USB_Device_Library/Class/MSC/Src/usbd_msc_scsi.c ****   {
 166              		.loc 1 471 3 view .LVU45
 471:Middlewares/ST/STM32_USB_Device_Library/Class/MSC/Src/usbd_msc_scsi.c ****   {
 167              		.loc 1 471 6 is_stmt 0 view .LVU46
 168 0004 50B1     		cbz	r0, .L19
 466:Middlewares/ST/STM32_USB_Device_Library/Class/MSC/Src/usbd_msc_scsi.c ****   UNUSED(lun);
 169              		.loc 1 466 1 view .LVU47
 170 0006 08B5     		push	{r3, lr}
 171              	.LCFI2:
 172              		.cfi_def_cfa_offset 8
 173              		.cfi_offset 3, -8
 174              		.cfi_offset 14, -4
 476:Middlewares/ST/STM32_USB_Device_Library/Class/MSC/Src/usbd_msc_scsi.c ****   {
 175              		.loc 1 476 3 is_stmt 1 view .LVU48
 476:Middlewares/ST/STM32_USB_Device_Library/Class/MSC/Src/usbd_msc_scsi.c ****   {
 176              		.loc 1 476 13 is_stmt 0 view .LVU49
 177 0008 1379     		ldrb	r3, [r2, #4]	@ zero_extendqisi2
 178 000a 9AB2     		uxth	r2, r3
 179              	.LVL16:
 476:Middlewares/ST/STM32_USB_Device_Library/Class/MSC/Src/usbd_msc_scsi.c ****   {
 180              		.loc 1 476 6 view .LVU50
 181 000c 172B     		cmp	r3, #23
 182 000e 00D9     		bls	.L18
 469:Middlewares/ST/STM32_USB_Device_Library/Class/MSC/Src/usbd_msc_scsi.c **** 
 183              		.loc 1 469 12 view .LVU51
 184 0010 1722     		movs	r2, #23
 185              	.L18:
 186              	.LVL17:
 481:Middlewares/ST/STM32_USB_Device_Library/Class/MSC/Src/usbd_msc_scsi.c **** 
 187              		.loc 1 481 3 is_stmt 1 view .LVU52
 481:Middlewares/ST/STM32_USB_Device_Library/Class/MSC/Src/usbd_msc_scsi.c **** 
 188              		.loc 1 481 9 is_stmt 0 view .LVU53
 189 0012 0449     		ldr	r1, .L24
ARM GAS  C:\Users\Admin\AppData\Local\Temp\ccCPzby3.s 			page 25


 190              	.LVL18:
 481:Middlewares/ST/STM32_USB_Device_Library/Class/MSC/Src/usbd_msc_scsi.c **** 
 191              		.loc 1 481 9 view .LVU54
 192 0014 FFF7FEFF 		bl	SCSI_UpdateBotData
 193              	.LVL19:
 483:Middlewares/ST/STM32_USB_Device_Library/Class/MSC/Src/usbd_msc_scsi.c **** }
 194              		.loc 1 483 3 is_stmt 1 view .LVU55
 483:Middlewares/ST/STM32_USB_Device_Library/Class/MSC/Src/usbd_msc_scsi.c **** }
 195              		.loc 1 483 10 is_stmt 0 view .LVU56
 196 0018 0020     		movs	r0, #0
 484:Middlewares/ST/STM32_USB_Device_Library/Class/MSC/Src/usbd_msc_scsi.c **** 
 197              		.loc 1 484 1 view .LVU57
 198 001a 08BD     		pop	{r3, pc}
 199              	.LVL20:
 200              	.L19:
 201              	.LCFI3:
 202              		.cfi_def_cfa_offset 0
 203              		.cfi_restore 3
 204              		.cfi_restore 14
 473:Middlewares/ST/STM32_USB_Device_Library/Class/MSC/Src/usbd_msc_scsi.c ****   }
 205              		.loc 1 473 12 view .LVU58
 206 001c 4FF0FF30 		mov	r0, #-1
 207              	.LVL21:
 484:Middlewares/ST/STM32_USB_Device_Library/Class/MSC/Src/usbd_msc_scsi.c **** 
 208              		.loc 1 484 1 view .LVU59
 209 0020 7047     		bx	lr
 210              	.L25:
 211 0022 00BF     		.align	2
 212              	.L24:
 213 0024 00000000 		.word	MSC_Mode_Sense6_data
 214              		.cfi_endproc
 215              	.LFE142:
 217              		.section	.text.SCSI_ModeSense10,"ax",%progbits
 218              		.align	1
 219              		.syntax unified
 220              		.thumb
 221              		.thumb_func
 222              		.fpu fpv4-sp-d16
 224              	SCSI_ModeSense10:
 225              	.LVL22:
 226              	.LFB143:
 495:Middlewares/ST/STM32_USB_Device_Library/Class/MSC/Src/usbd_msc_scsi.c ****   UNUSED(lun);
 227              		.loc 1 495 1 is_stmt 1 view -0
 228              		.cfi_startproc
 229              		@ args = 0, pretend = 0, frame = 0
 230              		@ frame_needed = 0, uses_anonymous_args = 0
 496:Middlewares/ST/STM32_USB_Device_Library/Class/MSC/Src/usbd_msc_scsi.c ****   USBD_MSC_BOT_HandleTypeDef *hmsc = (USBD_MSC_BOT_HandleTypeDef *)pdev->pClassData;
 231              		.loc 1 496 3 view .LVU61
 497:Middlewares/ST/STM32_USB_Device_Library/Class/MSC/Src/usbd_msc_scsi.c ****   uint16_t len = MODE_SENSE10_LEN;
 232              		.loc 1 497 3 view .LVU62
 497:Middlewares/ST/STM32_USB_Device_Library/Class/MSC/Src/usbd_msc_scsi.c ****   uint16_t len = MODE_SENSE10_LEN;
 233              		.loc 1 497 31 is_stmt 0 view .LVU63
 234 0000 D0F8BC02 		ldr	r0, [r0, #700]
 235              	.LVL23:
 498:Middlewares/ST/STM32_USB_Device_Library/Class/MSC/Src/usbd_msc_scsi.c **** 
 236              		.loc 1 498 3 is_stmt 1 view .LVU64
 500:Middlewares/ST/STM32_USB_Device_Library/Class/MSC/Src/usbd_msc_scsi.c ****   {
ARM GAS  C:\Users\Admin\AppData\Local\Temp\ccCPzby3.s 			page 26


 237              		.loc 1 500 3 view .LVU65
 500:Middlewares/ST/STM32_USB_Device_Library/Class/MSC/Src/usbd_msc_scsi.c ****   {
 238              		.loc 1 500 6 is_stmt 0 view .LVU66
 239 0004 50B1     		cbz	r0, .L29
 495:Middlewares/ST/STM32_USB_Device_Library/Class/MSC/Src/usbd_msc_scsi.c ****   UNUSED(lun);
 240              		.loc 1 495 1 view .LVU67
 241 0006 08B5     		push	{r3, lr}
 242              	.LCFI4:
 243              		.cfi_def_cfa_offset 8
 244              		.cfi_offset 3, -8
 245              		.cfi_offset 14, -4
 505:Middlewares/ST/STM32_USB_Device_Library/Class/MSC/Src/usbd_msc_scsi.c ****   {
 246              		.loc 1 505 3 is_stmt 1 view .LVU68
 505:Middlewares/ST/STM32_USB_Device_Library/Class/MSC/Src/usbd_msc_scsi.c ****   {
 247              		.loc 1 505 13 is_stmt 0 view .LVU69
 248 0008 137A     		ldrb	r3, [r2, #8]	@ zero_extendqisi2
 249 000a 9AB2     		uxth	r2, r3
 250              	.LVL24:
 505:Middlewares/ST/STM32_USB_Device_Library/Class/MSC/Src/usbd_msc_scsi.c ****   {
 251              		.loc 1 505 6 view .LVU70
 252 000c 1B2B     		cmp	r3, #27
 253 000e 00D9     		bls	.L28
 498:Middlewares/ST/STM32_USB_Device_Library/Class/MSC/Src/usbd_msc_scsi.c **** 
 254              		.loc 1 498 12 view .LVU71
 255 0010 1B22     		movs	r2, #27
 256              	.L28:
 257              	.LVL25:
 510:Middlewares/ST/STM32_USB_Device_Library/Class/MSC/Src/usbd_msc_scsi.c **** 
 258              		.loc 1 510 3 is_stmt 1 view .LVU72
 510:Middlewares/ST/STM32_USB_Device_Library/Class/MSC/Src/usbd_msc_scsi.c **** 
 259              		.loc 1 510 9 is_stmt 0 view .LVU73
 260 0012 0449     		ldr	r1, .L34
 261              	.LVL26:
 510:Middlewares/ST/STM32_USB_Device_Library/Class/MSC/Src/usbd_msc_scsi.c **** 
 262              		.loc 1 510 9 view .LVU74
 263 0014 FFF7FEFF 		bl	SCSI_UpdateBotData
 264              	.LVL27:
 512:Middlewares/ST/STM32_USB_Device_Library/Class/MSC/Src/usbd_msc_scsi.c **** }
 265              		.loc 1 512 3 is_stmt 1 view .LVU75
 512:Middlewares/ST/STM32_USB_Device_Library/Class/MSC/Src/usbd_msc_scsi.c **** }
 266              		.loc 1 512 10 is_stmt 0 view .LVU76
 267 0018 0020     		movs	r0, #0
 513:Middlewares/ST/STM32_USB_Device_Library/Class/MSC/Src/usbd_msc_scsi.c **** 
 268              		.loc 1 513 1 view .LVU77
 269 001a 08BD     		pop	{r3, pc}
 270              	.LVL28:
 271              	.L29:
 272              	.LCFI5:
 273              		.cfi_def_cfa_offset 0
 274              		.cfi_restore 3
 275              		.cfi_restore 14
 502:Middlewares/ST/STM32_USB_Device_Library/Class/MSC/Src/usbd_msc_scsi.c ****   }
 276              		.loc 1 502 12 view .LVU78
 277 001c 4FF0FF30 		mov	r0, #-1
 278              	.LVL29:
 513:Middlewares/ST/STM32_USB_Device_Library/Class/MSC/Src/usbd_msc_scsi.c **** 
 279              		.loc 1 513 1 view .LVU79
ARM GAS  C:\Users\Admin\AppData\Local\Temp\ccCPzby3.s 			page 27


 280 0020 7047     		bx	lr
 281              	.L35:
 282 0022 00BF     		.align	2
 283              	.L34:
 284 0024 00000000 		.word	MSC_Mode_Sense10_data
 285              		.cfi_endproc
 286              	.LFE143:
 288              		.section	.text.SCSI_SenseCode,"ax",%progbits
 289              		.align	1
 290              		.global	SCSI_SenseCode
 291              		.syntax unified
 292              		.thumb
 293              		.thumb_func
 294              		.fpu fpv4-sp-d16
 296              	SCSI_SenseCode:
 297              	.LVL30:
 298              	.LFB145:
 582:Middlewares/ST/STM32_USB_Device_Library/Class/MSC/Src/usbd_msc_scsi.c ****   UNUSED(lun);
 299              		.loc 1 582 1 is_stmt 1 view -0
 300              		.cfi_startproc
 301              		@ args = 0, pretend = 0, frame = 0
 302              		@ frame_needed = 0, uses_anonymous_args = 0
 303              		@ link register save eliminated.
 583:Middlewares/ST/STM32_USB_Device_Library/Class/MSC/Src/usbd_msc_scsi.c ****   USBD_MSC_BOT_HandleTypeDef *hmsc = (USBD_MSC_BOT_HandleTypeDef *)pdev->pClassData;
 304              		.loc 1 583 3 view .LVU81
 584:Middlewares/ST/STM32_USB_Device_Library/Class/MSC/Src/usbd_msc_scsi.c **** 
 305              		.loc 1 584 3 view .LVU82
 584:Middlewares/ST/STM32_USB_Device_Library/Class/MSC/Src/usbd_msc_scsi.c **** 
 306              		.loc 1 584 31 is_stmt 0 view .LVU83
 307 0000 D0F8BC02 		ldr	r0, [r0, #700]
 308              	.LVL31:
 586:Middlewares/ST/STM32_USB_Device_Library/Class/MSC/Src/usbd_msc_scsi.c ****   {
 309              		.loc 1 586 3 is_stmt 1 view .LVU84
 586:Middlewares/ST/STM32_USB_Device_Library/Class/MSC/Src/usbd_msc_scsi.c ****   {
 310              		.loc 1 586 6 is_stmt 0 view .LVU85
 311 0004 C0B1     		cbz	r0, .L39
 582:Middlewares/ST/STM32_USB_Device_Library/Class/MSC/Src/usbd_msc_scsi.c ****   UNUSED(lun);
 312              		.loc 1 582 1 view .LVU86
 313 0006 10B4     		push	{r4}
 314              	.LCFI6:
 315              		.cfi_def_cfa_offset 4
 316              		.cfi_offset 4, -4
 591:Middlewares/ST/STM32_USB_Device_Library/Class/MSC/Src/usbd_msc_scsi.c ****   hmsc->scsi_sense[hmsc->scsi_sense_tail].w.b.ASC = ASC;
 317              		.loc 1 591 3 is_stmt 1 view .LVU87
 591:Middlewares/ST/STM32_USB_Device_Library/Class/MSC/Src/usbd_msc_scsi.c ****   hmsc->scsi_sense[hmsc->scsi_sense_tail].w.b.ASC = ASC;
 318              		.loc 1 591 24 is_stmt 0 view .LVU88
 319 0008 90F86112 		ldrb	r1, [r0, #609]	@ zero_extendqisi2
 320              	.LVL32:
 591:Middlewares/ST/STM32_USB_Device_Library/Class/MSC/Src/usbd_msc_scsi.c ****   hmsc->scsi_sense[hmsc->scsi_sense_tail].w.b.ASC = ASC;
 321              		.loc 1 591 48 view .LVU89
 322 000c 01F14804 		add	r4, r1, #72
 323 0010 00F83420 		strb	r2, [r0, r4, lsl #3]
 592:Middlewares/ST/STM32_USB_Device_Library/Class/MSC/Src/usbd_msc_scsi.c ****   hmsc->scsi_sense[hmsc->scsi_sense_tail].w.b.ASCQ = 0U;
 324              		.loc 1 592 3 is_stmt 1 view .LVU90
 592:Middlewares/ST/STM32_USB_Device_Library/Class/MSC/Src/usbd_msc_scsi.c ****   hmsc->scsi_sense[hmsc->scsi_sense_tail].w.b.ASCQ = 0U;
 325              		.loc 1 592 51 is_stmt 0 view .LVU91
 326 0014 00EBC402 		add	r2, r0, r4, lsl #3
ARM GAS  C:\Users\Admin\AppData\Local\Temp\ccCPzby3.s 			page 28


 327              	.LVL33:
 592:Middlewares/ST/STM32_USB_Device_Library/Class/MSC/Src/usbd_msc_scsi.c ****   hmsc->scsi_sense[hmsc->scsi_sense_tail].w.b.ASCQ = 0U;
 328              		.loc 1 592 51 view .LVU92
 329 0018 1371     		strb	r3, [r2, #4]
 330              	.LVL34:
 593:Middlewares/ST/STM32_USB_Device_Library/Class/MSC/Src/usbd_msc_scsi.c ****   hmsc->scsi_sense_tail++;
 331              		.loc 1 593 3 is_stmt 1 view .LVU93
 593:Middlewares/ST/STM32_USB_Device_Library/Class/MSC/Src/usbd_msc_scsi.c ****   hmsc->scsi_sense_tail++;
 332              		.loc 1 593 52 is_stmt 0 view .LVU94
 333 001a 0023     		movs	r3, #0
 334              	.LVL35:
 593:Middlewares/ST/STM32_USB_Device_Library/Class/MSC/Src/usbd_msc_scsi.c ****   hmsc->scsi_sense_tail++;
 335              		.loc 1 593 52 view .LVU95
 336 001c 5371     		strb	r3, [r2, #5]
 594:Middlewares/ST/STM32_USB_Device_Library/Class/MSC/Src/usbd_msc_scsi.c **** 
 337              		.loc 1 594 3 is_stmt 1 view .LVU96
 594:Middlewares/ST/STM32_USB_Device_Library/Class/MSC/Src/usbd_msc_scsi.c **** 
 338              		.loc 1 594 24 is_stmt 0 view .LVU97
 339 001e 4B1C     		adds	r3, r1, #1
 340 0020 DBB2     		uxtb	r3, r3
 341 0022 80F86132 		strb	r3, [r0, #609]
 342              	.LVL36:
 596:Middlewares/ST/STM32_USB_Device_Library/Class/MSC/Src/usbd_msc_scsi.c ****   {
 343              		.loc 1 596 3 is_stmt 1 view .LVU98
 596:Middlewares/ST/STM32_USB_Device_Library/Class/MSC/Src/usbd_msc_scsi.c ****   {
 344              		.loc 1 596 6 is_stmt 0 view .LVU99
 345 0026 042B     		cmp	r3, #4
 346 0028 02D0     		beq	.L42
 347              	.L36:
 600:Middlewares/ST/STM32_USB_Device_Library/Class/MSC/Src/usbd_msc_scsi.c **** 
 348              		.loc 1 600 1 view .LVU100
 349 002a 5DF8044B 		ldr	r4, [sp], #4
 350              	.LCFI7:
 351              		.cfi_remember_state
 352              		.cfi_restore 4
 353              		.cfi_def_cfa_offset 0
 354 002e 7047     		bx	lr
 355              	.L42:
 356              	.LCFI8:
 357              		.cfi_restore_state
 598:Middlewares/ST/STM32_USB_Device_Library/Class/MSC/Src/usbd_msc_scsi.c ****   }
 358              		.loc 1 598 5 is_stmt 1 view .LVU101
 598:Middlewares/ST/STM32_USB_Device_Library/Class/MSC/Src/usbd_msc_scsi.c ****   }
 359              		.loc 1 598 27 is_stmt 0 view .LVU102
 360 0030 0023     		movs	r3, #0
 361 0032 80F86132 		strb	r3, [r0, #609]
 362 0036 F8E7     		b	.L36
 363              	.LVL37:
 364              	.L39:
 365              	.LCFI9:
 366              		.cfi_def_cfa_offset 0
 367              		.cfi_restore 4
 598:Middlewares/ST/STM32_USB_Device_Library/Class/MSC/Src/usbd_msc_scsi.c ****   }
 368              		.loc 1 598 27 view .LVU103
 369 0038 7047     		bx	lr
 370              		.cfi_endproc
 371              	.LFE145:
ARM GAS  C:\Users\Admin\AppData\Local\Temp\ccCPzby3.s 			page 29


 373              		.section	.text.SCSI_TestUnitReady,"ax",%progbits
 374              		.align	1
 375              		.syntax unified
 376              		.thumb
 377              		.thumb_func
 378              		.fpu fpv4-sp-d16
 380              	SCSI_TestUnitReady:
 381              	.LVL38:
 382              	.LFB137:
 212:Middlewares/ST/STM32_USB_Device_Library/Class/MSC/Src/usbd_msc_scsi.c ****   UNUSED(params);
 383              		.loc 1 212 1 is_stmt 1 view -0
 384              		.cfi_startproc
 385              		@ args = 0, pretend = 0, frame = 0
 386              		@ frame_needed = 0, uses_anonymous_args = 0
 212:Middlewares/ST/STM32_USB_Device_Library/Class/MSC/Src/usbd_msc_scsi.c ****   UNUSED(params);
 387              		.loc 1 212 1 is_stmt 0 view .LVU105
 388 0000 70B5     		push	{r4, r5, r6, lr}
 389              	.LCFI10:
 390              		.cfi_def_cfa_offset 16
 391              		.cfi_offset 4, -16
 392              		.cfi_offset 5, -12
 393              		.cfi_offset 6, -8
 394              		.cfi_offset 14, -4
 213:Middlewares/ST/STM32_USB_Device_Library/Class/MSC/Src/usbd_msc_scsi.c ****   USBD_MSC_BOT_HandleTypeDef *hmsc = (USBD_MSC_BOT_HandleTypeDef *)pdev->pClassData;
 395              		.loc 1 213 3 is_stmt 1 view .LVU106
 214:Middlewares/ST/STM32_USB_Device_Library/Class/MSC/Src/usbd_msc_scsi.c **** 
 396              		.loc 1 214 3 view .LVU107
 214:Middlewares/ST/STM32_USB_Device_Library/Class/MSC/Src/usbd_msc_scsi.c **** 
 397              		.loc 1 214 31 is_stmt 0 view .LVU108
 398 0002 D0F8BC52 		ldr	r5, [r0, #700]
 399              	.LVL39:
 216:Middlewares/ST/STM32_USB_Device_Library/Class/MSC/Src/usbd_msc_scsi.c ****   {
 400              		.loc 1 216 3 is_stmt 1 view .LVU109
 216:Middlewares/ST/STM32_USB_Device_Library/Class/MSC/Src/usbd_msc_scsi.c ****   {
 401              		.loc 1 216 6 is_stmt 0 view .LVU110
 402 0006 75B3     		cbz	r5, .L48
 403 0008 0446     		mov	r4, r0
 404 000a 0E46     		mov	r6, r1
 222:Middlewares/ST/STM32_USB_Device_Library/Class/MSC/Src/usbd_msc_scsi.c ****   {
 405              		.loc 1 222 3 is_stmt 1 view .LVU111
 222:Middlewares/ST/STM32_USB_Device_Library/Class/MSC/Src/usbd_msc_scsi.c ****   {
 406              		.loc 1 222 16 is_stmt 0 view .LVU112
 407 000c D5F81832 		ldr	r3, [r5, #536]
 222:Middlewares/ST/STM32_USB_Device_Library/Class/MSC/Src/usbd_msc_scsi.c ****   {
 408              		.loc 1 222 6 view .LVU113
 409 0010 63B9     		cbnz	r3, .L50
 229:Middlewares/ST/STM32_USB_Device_Library/Class/MSC/Src/usbd_msc_scsi.c ****   {
 410              		.loc 1 229 3 is_stmt 1 view .LVU114
 229:Middlewares/ST/STM32_USB_Device_Library/Class/MSC/Src/usbd_msc_scsi.c ****   {
 411              		.loc 1 229 11 is_stmt 0 view .LVU115
 412 0012 95F86232 		ldrb	r3, [r5, #610]	@ zero_extendqisi2
 229:Middlewares/ST/STM32_USB_Device_Library/Class/MSC/Src/usbd_msc_scsi.c ****   {
 413              		.loc 1 229 6 view .LVU116
 414 0016 022B     		cmp	r3, #2
 415 0018 11D0     		beq	.L51
 236:Middlewares/ST/STM32_USB_Device_Library/Class/MSC/Src/usbd_msc_scsi.c ****   {
 416              		.loc 1 236 3 is_stmt 1 view .LVU117
ARM GAS  C:\Users\Admin\AppData\Local\Temp\ccCPzby3.s 			page 30


 236:Middlewares/ST/STM32_USB_Device_Library/Class/MSC/Src/usbd_msc_scsi.c ****   {
 417              		.loc 1 236 35 is_stmt 0 view .LVU118
 418 001a D0F8C032 		ldr	r3, [r0, #704]
 236:Middlewares/ST/STM32_USB_Device_Library/Class/MSC/Src/usbd_msc_scsi.c ****   {
 419              		.loc 1 236 47 view .LVU119
 420 001e 9B68     		ldr	r3, [r3, #8]
 236:Middlewares/ST/STM32_USB_Device_Library/Class/MSC/Src/usbd_msc_scsi.c ****   {
 421              		.loc 1 236 8 view .LVU120
 422 0020 0846     		mov	r0, r1
 423              	.LVL40:
 236:Middlewares/ST/STM32_USB_Device_Library/Class/MSC/Src/usbd_msc_scsi.c ****   {
 424              		.loc 1 236 8 view .LVU121
 425 0022 9847     		blx	r3
 426              	.LVL41:
 236:Middlewares/ST/STM32_USB_Device_Library/Class/MSC/Src/usbd_msc_scsi.c ****   {
 427              		.loc 1 236 6 view .LVU122
 428 0024 A0B9     		cbnz	r0, .L52
 243:Middlewares/ST/STM32_USB_Device_Library/Class/MSC/Src/usbd_msc_scsi.c **** 
 429              		.loc 1 243 3 is_stmt 1 view .LVU123
 243:Middlewares/ST/STM32_USB_Device_Library/Class/MSC/Src/usbd_msc_scsi.c **** 
 430              		.loc 1 243 25 is_stmt 0 view .LVU124
 431 0026 0023     		movs	r3, #0
 432 0028 EB60     		str	r3, [r5, #12]
 245:Middlewares/ST/STM32_USB_Device_Library/Class/MSC/Src/usbd_msc_scsi.c **** }
 433              		.loc 1 245 3 is_stmt 1 view .LVU125
 434              	.LVL42:
 435              	.L44:
 246:Middlewares/ST/STM32_USB_Device_Library/Class/MSC/Src/usbd_msc_scsi.c **** 
 436              		.loc 1 246 1 is_stmt 0 view .LVU126
 437 002a 70BD     		pop	{r4, r5, r6, pc}
 438              	.LVL43:
 439              	.L50:
 224:Middlewares/ST/STM32_USB_Device_Library/Class/MSC/Src/usbd_msc_scsi.c **** 
 440              		.loc 1 224 5 is_stmt 1 view .LVU127
 441 002c 2023     		movs	r3, #32
 442 002e 0522     		movs	r2, #5
 443              	.LVL44:
 224:Middlewares/ST/STM32_USB_Device_Library/Class/MSC/Src/usbd_msc_scsi.c **** 
 444              		.loc 1 224 5 is_stmt 0 view .LVU128
 445 0030 95F81D12 		ldrb	r1, [r5, #541]	@ zero_extendqisi2
 446              	.LVL45:
 224:Middlewares/ST/STM32_USB_Device_Library/Class/MSC/Src/usbd_msc_scsi.c **** 
 447              		.loc 1 224 5 view .LVU129
 448 0034 FFF7FEFF 		bl	SCSI_SenseCode
 449              	.LVL46:
 226:Middlewares/ST/STM32_USB_Device_Library/Class/MSC/Src/usbd_msc_scsi.c ****   }
 450              		.loc 1 226 5 is_stmt 1 view .LVU130
 226:Middlewares/ST/STM32_USB_Device_Library/Class/MSC/Src/usbd_msc_scsi.c ****   }
 451              		.loc 1 226 12 is_stmt 0 view .LVU131
 452 0038 4FF0FF30 		mov	r0, #-1
 453 003c F5E7     		b	.L44
 454              	.LVL47:
 455              	.L51:
 231:Middlewares/ST/STM32_USB_Device_Library/Class/MSC/Src/usbd_msc_scsi.c ****     hmsc->bot_state = USBD_BOT_NO_DATA;
 456              		.loc 1 231 5 is_stmt 1 view .LVU132
 457 003e 3A23     		movs	r3, #58
 458 0040 0222     		movs	r2, #2
ARM GAS  C:\Users\Admin\AppData\Local\Temp\ccCPzby3.s 			page 31


 459              	.LVL48:
 231:Middlewares/ST/STM32_USB_Device_Library/Class/MSC/Src/usbd_msc_scsi.c ****     hmsc->bot_state = USBD_BOT_NO_DATA;
 460              		.loc 1 231 5 is_stmt 0 view .LVU133
 461 0042 FFF7FEFF 		bl	SCSI_SenseCode
 462              	.LVL49:
 232:Middlewares/ST/STM32_USB_Device_Library/Class/MSC/Src/usbd_msc_scsi.c ****     return -1;
 463              		.loc 1 232 5 is_stmt 1 view .LVU134
 232:Middlewares/ST/STM32_USB_Device_Library/Class/MSC/Src/usbd_msc_scsi.c ****     return -1;
 464              		.loc 1 232 21 is_stmt 0 view .LVU135
 465 0046 0523     		movs	r3, #5
 466 0048 2B72     		strb	r3, [r5, #8]
 233:Middlewares/ST/STM32_USB_Device_Library/Class/MSC/Src/usbd_msc_scsi.c ****   }
 467              		.loc 1 233 5 is_stmt 1 view .LVU136
 233:Middlewares/ST/STM32_USB_Device_Library/Class/MSC/Src/usbd_msc_scsi.c ****   }
 468              		.loc 1 233 12 is_stmt 0 view .LVU137
 469 004a 4FF0FF30 		mov	r0, #-1
 470 004e ECE7     		b	.L44
 471              	.L52:
 238:Middlewares/ST/STM32_USB_Device_Library/Class/MSC/Src/usbd_msc_scsi.c ****     hmsc->bot_state = USBD_BOT_NO_DATA;
 472              		.loc 1 238 5 is_stmt 1 view .LVU138
 473 0050 3A23     		movs	r3, #58
 474 0052 0222     		movs	r2, #2
 475 0054 3146     		mov	r1, r6
 476 0056 2046     		mov	r0, r4
 477 0058 FFF7FEFF 		bl	SCSI_SenseCode
 478              	.LVL50:
 239:Middlewares/ST/STM32_USB_Device_Library/Class/MSC/Src/usbd_msc_scsi.c **** 
 479              		.loc 1 239 5 view .LVU139
 239:Middlewares/ST/STM32_USB_Device_Library/Class/MSC/Src/usbd_msc_scsi.c **** 
 480              		.loc 1 239 21 is_stmt 0 view .LVU140
 481 005c 0523     		movs	r3, #5
 482 005e 2B72     		strb	r3, [r5, #8]
 241:Middlewares/ST/STM32_USB_Device_Library/Class/MSC/Src/usbd_msc_scsi.c ****   }
 483              		.loc 1 241 5 is_stmt 1 view .LVU141
 241:Middlewares/ST/STM32_USB_Device_Library/Class/MSC/Src/usbd_msc_scsi.c ****   }
 484              		.loc 1 241 12 is_stmt 0 view .LVU142
 485 0060 4FF0FF30 		mov	r0, #-1
 486 0064 E1E7     		b	.L44
 487              	.LVL51:
 488              	.L48:
 218:Middlewares/ST/STM32_USB_Device_Library/Class/MSC/Src/usbd_msc_scsi.c ****   }
 489              		.loc 1 218 12 view .LVU143
 490 0066 4FF0FF30 		mov	r0, #-1
 491              	.LVL52:
 218:Middlewares/ST/STM32_USB_Device_Library/Class/MSC/Src/usbd_msc_scsi.c ****   }
 492              		.loc 1 218 12 view .LVU144
 493 006a DEE7     		b	.L44
 494              		.cfi_endproc
 495              	.LFE137:
 497              		.section	.text.SCSI_RequestSense,"ax",%progbits
 498              		.align	1
 499              		.syntax unified
 500              		.thumb
 501              		.thumb_func
 502              		.fpu fpv4-sp-d16
 504              	SCSI_RequestSense:
 505              	.LVL53:
ARM GAS  C:\Users\Admin\AppData\Local\Temp\ccCPzby3.s 			page 32


 506              	.LFB144:
 524:Middlewares/ST/STM32_USB_Device_Library/Class/MSC/Src/usbd_msc_scsi.c ****   UNUSED(lun);
 507              		.loc 1 524 1 is_stmt 1 view -0
 508              		.cfi_startproc
 509              		@ args = 0, pretend = 0, frame = 0
 510              		@ frame_needed = 0, uses_anonymous_args = 0
 524:Middlewares/ST/STM32_USB_Device_Library/Class/MSC/Src/usbd_msc_scsi.c ****   UNUSED(lun);
 511              		.loc 1 524 1 is_stmt 0 view .LVU146
 512 0000 10B5     		push	{r4, lr}
 513              	.LCFI11:
 514              		.cfi_def_cfa_offset 8
 515              		.cfi_offset 4, -8
 516              		.cfi_offset 14, -4
 525:Middlewares/ST/STM32_USB_Device_Library/Class/MSC/Src/usbd_msc_scsi.c ****   uint8_t i;
 517              		.loc 1 525 3 is_stmt 1 view .LVU147
 526:Middlewares/ST/STM32_USB_Device_Library/Class/MSC/Src/usbd_msc_scsi.c ****   USBD_MSC_BOT_HandleTypeDef *hmsc = (USBD_MSC_BOT_HandleTypeDef *)pdev->pClassData;
 518              		.loc 1 526 3 view .LVU148
 527:Middlewares/ST/STM32_USB_Device_Library/Class/MSC/Src/usbd_msc_scsi.c **** 
 519              		.loc 1 527 3 view .LVU149
 527:Middlewares/ST/STM32_USB_Device_Library/Class/MSC/Src/usbd_msc_scsi.c **** 
 520              		.loc 1 527 31 is_stmt 0 view .LVU150
 521 0002 D0F8BC42 		ldr	r4, [r0, #700]
 522              	.LVL54:
 529:Middlewares/ST/STM32_USB_Device_Library/Class/MSC/Src/usbd_msc_scsi.c ****   {
 523              		.loc 1 529 3 is_stmt 1 view .LVU151
 529:Middlewares/ST/STM32_USB_Device_Library/Class/MSC/Src/usbd_msc_scsi.c ****   {
 524              		.loc 1 529 6 is_stmt 0 view .LVU152
 525 0006 002C     		cmp	r4, #0
 526 0008 3BD0     		beq	.L58
 534:Middlewares/ST/STM32_USB_Device_Library/Class/MSC/Src/usbd_msc_scsi.c ****   {
 527              		.loc 1 534 3 is_stmt 1 view .LVU153
 534:Middlewares/ST/STM32_USB_Device_Library/Class/MSC/Src/usbd_msc_scsi.c ****   {
 528              		.loc 1 534 16 is_stmt 0 view .LVU154
 529 000a D4F81832 		ldr	r3, [r4, #536]
 534:Middlewares/ST/STM32_USB_Device_Library/Class/MSC/Src/usbd_msc_scsi.c ****   {
 530              		.loc 1 534 6 view .LVU155
 531 000e 43B1     		cbz	r3, .L62
 540:Middlewares/ST/STM32_USB_Device_Library/Class/MSC/Src/usbd_msc_scsi.c ****   {
 532              		.loc 1 540 10 view .LVU156
 533 0010 0023     		movs	r3, #0
 534              	.LVL55:
 535              	.L55:
 540:Middlewares/ST/STM32_USB_Device_Library/Class/MSC/Src/usbd_msc_scsi.c ****   {
 536              		.loc 1 540 16 is_stmt 1 discriminator 1 view .LVU157
 540:Middlewares/ST/STM32_USB_Device_Library/Class/MSC/Src/usbd_msc_scsi.c ****   {
 537              		.loc 1 540 3 is_stmt 0 discriminator 1 view .LVU158
 538 0012 112B     		cmp	r3, #17
 539 0014 0ED8     		bhi	.L63
 542:Middlewares/ST/STM32_USB_Device_Library/Class/MSC/Src/usbd_msc_scsi.c ****   }
 540              		.loc 1 542 5 is_stmt 1 discriminator 3 view .LVU159
 542:Middlewares/ST/STM32_USB_Device_Library/Class/MSC/Src/usbd_msc_scsi.c ****   }
 541              		.loc 1 542 23 is_stmt 0 discriminator 3 view .LVU160
 542 0016 E118     		adds	r1, r4, r3
 543 0018 0020     		movs	r0, #0
 544 001a 0874     		strb	r0, [r1, #16]
 540:Middlewares/ST/STM32_USB_Device_Library/Class/MSC/Src/usbd_msc_scsi.c ****   {
 545              		.loc 1 540 44 is_stmt 1 discriminator 3 view .LVU161
ARM GAS  C:\Users\Admin\AppData\Local\Temp\ccCPzby3.s 			page 33


 540:Middlewares/ST/STM32_USB_Device_Library/Class/MSC/Src/usbd_msc_scsi.c ****   {
 546              		.loc 1 540 45 is_stmt 0 discriminator 3 view .LVU162
 547 001c 0133     		adds	r3, r3, #1
 548              	.LVL56:
 540:Middlewares/ST/STM32_USB_Device_Library/Class/MSC/Src/usbd_msc_scsi.c ****   {
 549              		.loc 1 540 45 discriminator 3 view .LVU163
 550 001e DBB2     		uxtb	r3, r3
 551              	.LVL57:
 540:Middlewares/ST/STM32_USB_Device_Library/Class/MSC/Src/usbd_msc_scsi.c ****   {
 552              		.loc 1 540 45 discriminator 3 view .LVU164
 553 0020 F7E7     		b	.L55
 554              	.LVL58:
 555              	.L62:
 536:Middlewares/ST/STM32_USB_Device_Library/Class/MSC/Src/usbd_msc_scsi.c ****     return -1;
 556              		.loc 1 536 5 is_stmt 1 view .LVU165
 557 0022 2023     		movs	r3, #32
 558 0024 0522     		movs	r2, #5
 559              	.LVL59:
 536:Middlewares/ST/STM32_USB_Device_Library/Class/MSC/Src/usbd_msc_scsi.c ****     return -1;
 560              		.loc 1 536 5 is_stmt 0 view .LVU166
 561 0026 94F81D12 		ldrb	r1, [r4, #541]	@ zero_extendqisi2
 562              	.LVL60:
 536:Middlewares/ST/STM32_USB_Device_Library/Class/MSC/Src/usbd_msc_scsi.c ****     return -1;
 563              		.loc 1 536 5 view .LVU167
 564 002a FFF7FEFF 		bl	SCSI_SenseCode
 565              	.LVL61:
 537:Middlewares/ST/STM32_USB_Device_Library/Class/MSC/Src/usbd_msc_scsi.c ****   }
 566              		.loc 1 537 5 is_stmt 1 view .LVU168
 537:Middlewares/ST/STM32_USB_Device_Library/Class/MSC/Src/usbd_msc_scsi.c ****   }
 567              		.loc 1 537 12 is_stmt 0 view .LVU169
 568 002e 4FF0FF30 		mov	r0, #-1
 569 0032 21E0     		b	.L54
 570              	.LVL62:
 571              	.L63:
 545:Middlewares/ST/STM32_USB_Device_Library/Class/MSC/Src/usbd_msc_scsi.c ****   hmsc->bot_data[7] = REQUEST_SENSE_DATA_LEN - 6U;
 572              		.loc 1 545 3 is_stmt 1 view .LVU170
 545:Middlewares/ST/STM32_USB_Device_Library/Class/MSC/Src/usbd_msc_scsi.c ****   hmsc->bot_data[7] = REQUEST_SENSE_DATA_LEN - 6U;
 573              		.loc 1 545 21 is_stmt 0 view .LVU171
 574 0034 7023     		movs	r3, #112
 575              	.LVL63:
 545:Middlewares/ST/STM32_USB_Device_Library/Class/MSC/Src/usbd_msc_scsi.c ****   hmsc->bot_data[7] = REQUEST_SENSE_DATA_LEN - 6U;
 576              		.loc 1 545 21 view .LVU172
 577 0036 2374     		strb	r3, [r4, #16]
 546:Middlewares/ST/STM32_USB_Device_Library/Class/MSC/Src/usbd_msc_scsi.c **** 
 578              		.loc 1 546 3 is_stmt 1 view .LVU173
 546:Middlewares/ST/STM32_USB_Device_Library/Class/MSC/Src/usbd_msc_scsi.c **** 
 579              		.loc 1 546 21 is_stmt 0 view .LVU174
 580 0038 0C23     		movs	r3, #12
 581 003a E375     		strb	r3, [r4, #23]
 548:Middlewares/ST/STM32_USB_Device_Library/Class/MSC/Src/usbd_msc_scsi.c ****   {
 582              		.loc 1 548 3 is_stmt 1 view .LVU175
 548:Middlewares/ST/STM32_USB_Device_Library/Class/MSC/Src/usbd_msc_scsi.c ****   {
 583              		.loc 1 548 12 is_stmt 0 view .LVU176
 584 003c 94F86032 		ldrb	r3, [r4, #608]	@ zero_extendqisi2
 548:Middlewares/ST/STM32_USB_Device_Library/Class/MSC/Src/usbd_msc_scsi.c ****   {
 585              		.loc 1 548 37 view .LVU177
 586 0040 94F86112 		ldrb	r1, [r4, #609]	@ zero_extendqisi2
ARM GAS  C:\Users\Admin\AppData\Local\Temp\ccCPzby3.s 			page 34


 548:Middlewares/ST/STM32_USB_Device_Library/Class/MSC/Src/usbd_msc_scsi.c ****   {
 587              		.loc 1 548 6 view .LVU178
 588 0044 8B42     		cmp	r3, r1
 589 0046 10D0     		beq	.L57
 550:Middlewares/ST/STM32_USB_Device_Library/Class/MSC/Src/usbd_msc_scsi.c ****     hmsc->bot_data[12] = (uint8_t)hmsc->scsi_sense[hmsc->scsi_sense_head].w.b.ASC;
 590              		.loc 1 550 5 is_stmt 1 view .LVU179
 550:Middlewares/ST/STM32_USB_Device_Library/Class/MSC/Src/usbd_msc_scsi.c ****     hmsc->bot_data[12] = (uint8_t)hmsc->scsi_sense[hmsc->scsi_sense_head].w.b.ASC;
 591              		.loc 1 550 73 is_stmt 0 view .LVU180
 592 0048 03F14801 		add	r1, r3, #72
 593 004c 14F83100 		ldrb	r0, [r4, r1, lsl #3]	@ zero_extendqisi2
 550:Middlewares/ST/STM32_USB_Device_Library/Class/MSC/Src/usbd_msc_scsi.c ****     hmsc->bot_data[12] = (uint8_t)hmsc->scsi_sense[hmsc->scsi_sense_head].w.b.ASC;
 594              		.loc 1 550 23 view .LVU181
 595 0050 A074     		strb	r0, [r4, #18]
 551:Middlewares/ST/STM32_USB_Device_Library/Class/MSC/Src/usbd_msc_scsi.c ****     hmsc->bot_data[13] = (uint8_t)hmsc->scsi_sense[hmsc->scsi_sense_head].w.b.ASCQ;
 596              		.loc 1 551 5 is_stmt 1 view .LVU182
 551:Middlewares/ST/STM32_USB_Device_Library/Class/MSC/Src/usbd_msc_scsi.c ****     hmsc->bot_data[13] = (uint8_t)hmsc->scsi_sense[hmsc->scsi_sense_head].w.b.ASCQ;
 597              		.loc 1 551 78 is_stmt 0 view .LVU183
 598 0052 04EBC101 		add	r1, r4, r1, lsl #3
 599 0056 0879     		ldrb	r0, [r1, #4]	@ zero_extendqisi2
 551:Middlewares/ST/STM32_USB_Device_Library/Class/MSC/Src/usbd_msc_scsi.c ****     hmsc->bot_data[13] = (uint8_t)hmsc->scsi_sense[hmsc->scsi_sense_head].w.b.ASCQ;
 600              		.loc 1 551 24 view .LVU184
 601 0058 2077     		strb	r0, [r4, #28]
 552:Middlewares/ST/STM32_USB_Device_Library/Class/MSC/Src/usbd_msc_scsi.c ****     hmsc->scsi_sense_head++;
 602              		.loc 1 552 5 is_stmt 1 view .LVU185
 552:Middlewares/ST/STM32_USB_Device_Library/Class/MSC/Src/usbd_msc_scsi.c ****     hmsc->scsi_sense_head++;
 603              		.loc 1 552 78 is_stmt 0 view .LVU186
 604 005a 4979     		ldrb	r1, [r1, #5]	@ zero_extendqisi2
 552:Middlewares/ST/STM32_USB_Device_Library/Class/MSC/Src/usbd_msc_scsi.c ****     hmsc->scsi_sense_head++;
 605              		.loc 1 552 24 view .LVU187
 606 005c 6177     		strb	r1, [r4, #29]
 553:Middlewares/ST/STM32_USB_Device_Library/Class/MSC/Src/usbd_msc_scsi.c **** 
 607              		.loc 1 553 5 is_stmt 1 view .LVU188
 553:Middlewares/ST/STM32_USB_Device_Library/Class/MSC/Src/usbd_msc_scsi.c **** 
 608              		.loc 1 553 26 is_stmt 0 view .LVU189
 609 005e 0133     		adds	r3, r3, #1
 610 0060 DBB2     		uxtb	r3, r3
 611 0062 84F86032 		strb	r3, [r4, #608]
 555:Middlewares/ST/STM32_USB_Device_Library/Class/MSC/Src/usbd_msc_scsi.c ****     {
 612              		.loc 1 555 5 is_stmt 1 view .LVU190
 555:Middlewares/ST/STM32_USB_Device_Library/Class/MSC/Src/usbd_msc_scsi.c ****     {
 613              		.loc 1 555 8 is_stmt 0 view .LVU191
 614 0066 042B     		cmp	r3, #4
 615 0068 07D0     		beq	.L64
 616              	.L57:
 561:Middlewares/ST/STM32_USB_Device_Library/Class/MSC/Src/usbd_msc_scsi.c **** 
 617              		.loc 1 561 3 is_stmt 1 view .LVU192
 561:Middlewares/ST/STM32_USB_Device_Library/Class/MSC/Src/usbd_msc_scsi.c **** 
 618              		.loc 1 561 25 is_stmt 0 view .LVU193
 619 006a 1223     		movs	r3, #18
 620 006c E360     		str	r3, [r4, #12]
 563:Middlewares/ST/STM32_USB_Device_Library/Class/MSC/Src/usbd_msc_scsi.c ****   {
 621              		.loc 1 563 3 is_stmt 1 view .LVU194
 563:Middlewares/ST/STM32_USB_Device_Library/Class/MSC/Src/usbd_msc_scsi.c ****   {
 622              		.loc 1 563 13 is_stmt 0 view .LVU195
 623 006e 1379     		ldrb	r3, [r2, #4]	@ zero_extendqisi2
 563:Middlewares/ST/STM32_USB_Device_Library/Class/MSC/Src/usbd_msc_scsi.c ****   {
 624              		.loc 1 563 6 view .LVU196
ARM GAS  C:\Users\Admin\AppData\Local\Temp\ccCPzby3.s 			page 35


 625 0070 122B     		cmp	r3, #18
 626 0072 09D8     		bhi	.L60
 565:Middlewares/ST/STM32_USB_Device_Library/Class/MSC/Src/usbd_msc_scsi.c ****   }
 627              		.loc 1 565 5 is_stmt 1 view .LVU197
 565:Middlewares/ST/STM32_USB_Device_Library/Class/MSC/Src/usbd_msc_scsi.c ****   }
 628              		.loc 1 565 27 is_stmt 0 view .LVU198
 629 0074 E360     		str	r3, [r4, #12]
 568:Middlewares/ST/STM32_USB_Device_Library/Class/MSC/Src/usbd_msc_scsi.c **** }
 630              		.loc 1 568 10 view .LVU199
 631 0076 0020     		movs	r0, #0
 632              	.LVL64:
 633              	.L54:
 569:Middlewares/ST/STM32_USB_Device_Library/Class/MSC/Src/usbd_msc_scsi.c **** 
 634              		.loc 1 569 1 view .LVU200
 635 0078 10BD     		pop	{r4, pc}
 636              	.LVL65:
 637              	.L64:
 557:Middlewares/ST/STM32_USB_Device_Library/Class/MSC/Src/usbd_msc_scsi.c ****     }
 638              		.loc 1 557 7 is_stmt 1 view .LVU201
 557:Middlewares/ST/STM32_USB_Device_Library/Class/MSC/Src/usbd_msc_scsi.c ****     }
 639              		.loc 1 557 29 is_stmt 0 view .LVU202
 640 007a 0023     		movs	r3, #0
 641 007c 84F86032 		strb	r3, [r4, #608]
 642 0080 F3E7     		b	.L57
 643              	.LVL66:
 644              	.L58:
 531:Middlewares/ST/STM32_USB_Device_Library/Class/MSC/Src/usbd_msc_scsi.c ****   }
 645              		.loc 1 531 12 view .LVU203
 646 0082 4FF0FF30 		mov	r0, #-1
 647              	.LVL67:
 531:Middlewares/ST/STM32_USB_Device_Library/Class/MSC/Src/usbd_msc_scsi.c ****   }
 648              		.loc 1 531 12 view .LVU204
 649 0086 F7E7     		b	.L54
 650              	.LVL68:
 651              	.L60:
 568:Middlewares/ST/STM32_USB_Device_Library/Class/MSC/Src/usbd_msc_scsi.c **** }
 652              		.loc 1 568 10 view .LVU205
 653 0088 0020     		movs	r0, #0
 654 008a F5E7     		b	.L54
 655              		.cfi_endproc
 656              	.LFE144:
 658              		.section	.text.SCSI_Inquiry,"ax",%progbits
 659              		.align	1
 660              		.syntax unified
 661              		.thumb
 662              		.thumb_func
 663              		.fpu fpv4-sp-d16
 665              	SCSI_Inquiry:
 666              	.LVL69:
 667              	.LFB138:
 257:Middlewares/ST/STM32_USB_Device_Library/Class/MSC/Src/usbd_msc_scsi.c ****   uint8_t *pPage;
 668              		.loc 1 257 1 is_stmt 1 view -0
 669              		.cfi_startproc
 670              		@ args = 0, pretend = 0, frame = 0
 671              		@ frame_needed = 0, uses_anonymous_args = 0
 257:Middlewares/ST/STM32_USB_Device_Library/Class/MSC/Src/usbd_msc_scsi.c ****   uint8_t *pPage;
 672              		.loc 1 257 1 is_stmt 0 view .LVU207
ARM GAS  C:\Users\Admin\AppData\Local\Temp\ccCPzby3.s 			page 36


 673 0000 10B5     		push	{r4, lr}
 674              	.LCFI12:
 675              		.cfi_def_cfa_offset 8
 676              		.cfi_offset 4, -8
 677              		.cfi_offset 14, -4
 678 0002 0446     		mov	r4, r0
 258:Middlewares/ST/STM32_USB_Device_Library/Class/MSC/Src/usbd_msc_scsi.c ****   uint16_t len;
 679              		.loc 1 258 3 is_stmt 1 view .LVU208
 259:Middlewares/ST/STM32_USB_Device_Library/Class/MSC/Src/usbd_msc_scsi.c ****   USBD_MSC_BOT_HandleTypeDef *hmsc = (USBD_MSC_BOT_HandleTypeDef *)pdev->pClassData;
 680              		.loc 1 259 3 view .LVU209
 260:Middlewares/ST/STM32_USB_Device_Library/Class/MSC/Src/usbd_msc_scsi.c **** 
 681              		.loc 1 260 3 view .LVU210
 260:Middlewares/ST/STM32_USB_Device_Library/Class/MSC/Src/usbd_msc_scsi.c **** 
 682              		.loc 1 260 31 is_stmt 0 view .LVU211
 683 0004 D0F8BC02 		ldr	r0, [r0, #700]
 684              	.LVL70:
 262:Middlewares/ST/STM32_USB_Device_Library/Class/MSC/Src/usbd_msc_scsi.c ****   {
 685              		.loc 1 262 3 is_stmt 1 view .LVU212
 262:Middlewares/ST/STM32_USB_Device_Library/Class/MSC/Src/usbd_msc_scsi.c ****   {
 686              		.loc 1 262 6 is_stmt 0 view .LVU213
 687 0008 0028     		cmp	r0, #0
 688 000a 3BD0     		beq	.L72
 267:Middlewares/ST/STM32_USB_Device_Library/Class/MSC/Src/usbd_msc_scsi.c ****   {
 689              		.loc 1 267 3 is_stmt 1 view .LVU214
 267:Middlewares/ST/STM32_USB_Device_Library/Class/MSC/Src/usbd_msc_scsi.c ****   {
 690              		.loc 1 267 16 is_stmt 0 view .LVU215
 691 000c D0F81832 		ldr	r3, [r0, #536]
 267:Middlewares/ST/STM32_USB_Device_Library/Class/MSC/Src/usbd_msc_scsi.c ****   {
 692              		.loc 1 267 6 view .LVU216
 693 0010 6BB1     		cbz	r3, .L74
 273:Middlewares/ST/STM32_USB_Device_Library/Class/MSC/Src/usbd_msc_scsi.c ****   {
 694              		.loc 1 273 3 is_stmt 1 view .LVU217
 273:Middlewares/ST/STM32_USB_Device_Library/Class/MSC/Src/usbd_msc_scsi.c ****   {
 695              		.loc 1 273 14 is_stmt 0 view .LVU218
 696 0012 5378     		ldrb	r3, [r2, #1]	@ zero_extendqisi2
 273:Middlewares/ST/STM32_USB_Device_Library/Class/MSC/Src/usbd_msc_scsi.c ****   {
 697              		.loc 1 273 6 view .LVU219
 698 0014 13F0010F 		tst	r3, #1
 699 0018 23D0     		beq	.L68
 275:Middlewares/ST/STM32_USB_Device_Library/Class/MSC/Src/usbd_msc_scsi.c ****     {
 700              		.loc 1 275 5 is_stmt 1 view .LVU220
 275:Middlewares/ST/STM32_USB_Device_Library/Class/MSC/Src/usbd_msc_scsi.c ****     {
 701              		.loc 1 275 15 is_stmt 0 view .LVU221
 702 001a 9378     		ldrb	r3, [r2, #2]	@ zero_extendqisi2
 275:Middlewares/ST/STM32_USB_Device_Library/Class/MSC/Src/usbd_msc_scsi.c ****     {
 703              		.loc 1 275 8 view .LVU222
 704 001c 8BB1     		cbz	r3, .L75
 279:Middlewares/ST/STM32_USB_Device_Library/Class/MSC/Src/usbd_msc_scsi.c ****     {
 705              		.loc 1 279 10 is_stmt 1 view .LVU223
 279:Middlewares/ST/STM32_USB_Device_Library/Class/MSC/Src/usbd_msc_scsi.c ****     {
 706              		.loc 1 279 13 is_stmt 0 view .LVU224
 707 001e 802B     		cmp	r3, #128
 708 0020 15D1     		bne	.L70
 281:Middlewares/ST/STM32_USB_Device_Library/Class/MSC/Src/usbd_msc_scsi.c ****     }
 709              		.loc 1 281 7 is_stmt 1 view .LVU225
 281:Middlewares/ST/STM32_USB_Device_Library/Class/MSC/Src/usbd_msc_scsi.c ****     }
 710              		.loc 1 281 13 is_stmt 0 view .LVU226
ARM GAS  C:\Users\Admin\AppData\Local\Temp\ccCPzby3.s 			page 37


 711 0022 0822     		movs	r2, #8
 712              	.LVL71:
 281:Middlewares/ST/STM32_USB_Device_Library/Class/MSC/Src/usbd_msc_scsi.c ****     }
 713              		.loc 1 281 13 view .LVU227
 714 0024 1949     		ldr	r1, .L76
 715              	.LVL72:
 281:Middlewares/ST/STM32_USB_Device_Library/Class/MSC/Src/usbd_msc_scsi.c ****     }
 716              		.loc 1 281 13 view .LVU228
 717 0026 FFF7FEFF 		bl	SCSI_UpdateBotData
 718              	.LVL73:
 304:Middlewares/ST/STM32_USB_Device_Library/Class/MSC/Src/usbd_msc_scsi.c **** }
 719              		.loc 1 304 10 view .LVU229
 720 002a 0020     		movs	r0, #0
 721 002c 29E0     		b	.L66
 722              	.LVL74:
 723              	.L74:
 269:Middlewares/ST/STM32_USB_Device_Library/Class/MSC/Src/usbd_msc_scsi.c ****     return -1;
 724              		.loc 1 269 5 is_stmt 1 view .LVU230
 725 002e 2023     		movs	r3, #32
 726 0030 0522     		movs	r2, #5
 727              	.LVL75:
 269:Middlewares/ST/STM32_USB_Device_Library/Class/MSC/Src/usbd_msc_scsi.c ****     return -1;
 728              		.loc 1 269 5 is_stmt 0 view .LVU231
 729 0032 90F81D12 		ldrb	r1, [r0, #541]	@ zero_extendqisi2
 730              	.LVL76:
 269:Middlewares/ST/STM32_USB_Device_Library/Class/MSC/Src/usbd_msc_scsi.c ****     return -1;
 731              		.loc 1 269 5 view .LVU232
 732 0036 2046     		mov	r0, r4
 733              	.LVL77:
 269:Middlewares/ST/STM32_USB_Device_Library/Class/MSC/Src/usbd_msc_scsi.c ****     return -1;
 734              		.loc 1 269 5 view .LVU233
 735 0038 FFF7FEFF 		bl	SCSI_SenseCode
 736              	.LVL78:
 270:Middlewares/ST/STM32_USB_Device_Library/Class/MSC/Src/usbd_msc_scsi.c ****   }
 737              		.loc 1 270 5 is_stmt 1 view .LVU234
 270:Middlewares/ST/STM32_USB_Device_Library/Class/MSC/Src/usbd_msc_scsi.c ****   }
 738              		.loc 1 270 12 is_stmt 0 view .LVU235
 739 003c 4FF0FF30 		mov	r0, #-1
 740 0040 1FE0     		b	.L66
 741              	.LVL79:
 742              	.L75:
 277:Middlewares/ST/STM32_USB_Device_Library/Class/MSC/Src/usbd_msc_scsi.c ****     }
 743              		.loc 1 277 7 is_stmt 1 view .LVU236
 277:Middlewares/ST/STM32_USB_Device_Library/Class/MSC/Src/usbd_msc_scsi.c ****     }
 744              		.loc 1 277 13 is_stmt 0 view .LVU237
 745 0042 0622     		movs	r2, #6
 746              	.LVL80:
 277:Middlewares/ST/STM32_USB_Device_Library/Class/MSC/Src/usbd_msc_scsi.c ****     }
 747              		.loc 1 277 13 view .LVU238
 748 0044 1249     		ldr	r1, .L76+4
 749              	.LVL81:
 277:Middlewares/ST/STM32_USB_Device_Library/Class/MSC/Src/usbd_msc_scsi.c ****     }
 750              		.loc 1 277 13 view .LVU239
 751 0046 FFF7FEFF 		bl	SCSI_UpdateBotData
 752              	.LVL82:
 304:Middlewares/ST/STM32_USB_Device_Library/Class/MSC/Src/usbd_msc_scsi.c **** }
 753              		.loc 1 304 10 view .LVU240
ARM GAS  C:\Users\Admin\AppData\Local\Temp\ccCPzby3.s 			page 38


 754 004a 0020     		movs	r0, #0
 755 004c 19E0     		b	.L66
 756              	.LVL83:
 757              	.L70:
 285:Middlewares/ST/STM32_USB_Device_Library/Class/MSC/Src/usbd_msc_scsi.c ****                      INVALID_FIELED_IN_COMMAND);
 758              		.loc 1 285 7 is_stmt 1 view .LVU241
 759 004e 2423     		movs	r3, #36
 760 0050 0522     		movs	r2, #5
 761              	.LVL84:
 285:Middlewares/ST/STM32_USB_Device_Library/Class/MSC/Src/usbd_msc_scsi.c ****                      INVALID_FIELED_IN_COMMAND);
 762              		.loc 1 285 7 is_stmt 0 view .LVU242
 763 0052 90F81D12 		ldrb	r1, [r0, #541]	@ zero_extendqisi2
 764              	.LVL85:
 285:Middlewares/ST/STM32_USB_Device_Library/Class/MSC/Src/usbd_msc_scsi.c ****                      INVALID_FIELED_IN_COMMAND);
 765              		.loc 1 285 7 view .LVU243
 766 0056 2046     		mov	r0, r4
 767              	.LVL86:
 285:Middlewares/ST/STM32_USB_Device_Library/Class/MSC/Src/usbd_msc_scsi.c ****                      INVALID_FIELED_IN_COMMAND);
 768              		.loc 1 285 7 view .LVU244
 769 0058 FFF7FEFF 		bl	SCSI_SenseCode
 770              	.LVL87:
 288:Middlewares/ST/STM32_USB_Device_Library/Class/MSC/Src/usbd_msc_scsi.c ****     }
 771              		.loc 1 288 7 is_stmt 1 view .LVU245
 288:Middlewares/ST/STM32_USB_Device_Library/Class/MSC/Src/usbd_msc_scsi.c ****     }
 772              		.loc 1 288 14 is_stmt 0 view .LVU246
 773 005c 4FF0FF30 		mov	r0, #-1
 774 0060 0FE0     		b	.L66
 775              	.LVL88:
 776              	.L68:
 293:Middlewares/ST/STM32_USB_Device_Library/Class/MSC/Src/usbd_msc_scsi.c ****     len = (uint16_t)pPage[4] + 5U;
 777              		.loc 1 293 5 is_stmt 1 view .LVU247
 293:Middlewares/ST/STM32_USB_Device_Library/Class/MSC/Src/usbd_msc_scsi.c ****     len = (uint16_t)pPage[4] + 5U;
 778              		.loc 1 293 54 is_stmt 0 view .LVU248
 779 0062 D4F8C032 		ldr	r3, [r4, #704]
 293:Middlewares/ST/STM32_USB_Device_Library/Class/MSC/Src/usbd_msc_scsi.c ****     len = (uint16_t)pPage[4] + 5U;
 780              		.loc 1 293 66 view .LVU249
 781 0066 DB69     		ldr	r3, [r3, #28]
 293:Middlewares/ST/STM32_USB_Device_Library/Class/MSC/Src/usbd_msc_scsi.c ****     len = (uint16_t)pPage[4] + 5U;
 782              		.loc 1 293 81 view .LVU250
 783 0068 01EBC101 		add	r1, r1, r1, lsl #3
 784              	.LVL89:
 293:Middlewares/ST/STM32_USB_Device_Library/Class/MSC/Src/usbd_msc_scsi.c ****     len = (uint16_t)pPage[4] + 5U;
 785              		.loc 1 293 11 view .LVU251
 786 006c 03EB8101 		add	r1, r3, r1, lsl #2
 787              	.LVL90:
 294:Middlewares/ST/STM32_USB_Device_Library/Class/MSC/Src/usbd_msc_scsi.c **** 
 788              		.loc 1 294 5 is_stmt 1 view .LVU252
 294:Middlewares/ST/STM32_USB_Device_Library/Class/MSC/Src/usbd_msc_scsi.c **** 
 789              		.loc 1 294 26 is_stmt 0 view .LVU253
 790 0070 0B79     		ldrb	r3, [r1, #4]	@ zero_extendqisi2
 294:Middlewares/ST/STM32_USB_Device_Library/Class/MSC/Src/usbd_msc_scsi.c **** 
 791              		.loc 1 294 9 view .LVU254
 792 0072 0533     		adds	r3, r3, #5
 793              	.LVL91:
 296:Middlewares/ST/STM32_USB_Device_Library/Class/MSC/Src/usbd_msc_scsi.c ****     {
 794              		.loc 1 296 5 is_stmt 1 view .LVU255
 296:Middlewares/ST/STM32_USB_Device_Library/Class/MSC/Src/usbd_msc_scsi.c ****     {
ARM GAS  C:\Users\Admin\AppData\Local\Temp\ccCPzby3.s 			page 39


 795              		.loc 1 296 15 is_stmt 0 view .LVU256
 796 0074 1279     		ldrb	r2, [r2, #4]	@ zero_extendqisi2
 797              	.LVL92:
 296:Middlewares/ST/STM32_USB_Device_Library/Class/MSC/Src/usbd_msc_scsi.c ****     {
 798              		.loc 1 296 8 view .LVU257
 799 0076 9A42     		cmp	r2, r3
 800 0078 00D9     		bls	.L71
 294:Middlewares/ST/STM32_USB_Device_Library/Class/MSC/Src/usbd_msc_scsi.c **** 
 801              		.loc 1 294 9 view .LVU258
 802 007a 1A46     		mov	r2, r3
 803              	.L71:
 804              	.LVL93:
 301:Middlewares/ST/STM32_USB_Device_Library/Class/MSC/Src/usbd_msc_scsi.c ****   }
 805              		.loc 1 301 5 is_stmt 1 view .LVU259
 301:Middlewares/ST/STM32_USB_Device_Library/Class/MSC/Src/usbd_msc_scsi.c ****   }
 806              		.loc 1 301 11 is_stmt 0 view .LVU260
 807 007c FFF7FEFF 		bl	SCSI_UpdateBotData
 808              	.LVL94:
 304:Middlewares/ST/STM32_USB_Device_Library/Class/MSC/Src/usbd_msc_scsi.c **** }
 809              		.loc 1 304 10 view .LVU261
 810 0080 0020     		movs	r0, #0
 811              	.L66:
 305:Middlewares/ST/STM32_USB_Device_Library/Class/MSC/Src/usbd_msc_scsi.c **** 
 812              		.loc 1 305 1 view .LVU262
 813 0082 10BD     		pop	{r4, pc}
 814              	.LVL95:
 815              	.L72:
 264:Middlewares/ST/STM32_USB_Device_Library/Class/MSC/Src/usbd_msc_scsi.c ****   }
 816              		.loc 1 264 12 view .LVU263
 817 0084 4FF0FF30 		mov	r0, #-1
 818              	.LVL96:
 264:Middlewares/ST/STM32_USB_Device_Library/Class/MSC/Src/usbd_msc_scsi.c ****   }
 819              		.loc 1 264 12 view .LVU264
 820 0088 FBE7     		b	.L66
 821              	.L77:
 822 008a 00BF     		.align	2
 823              	.L76:
 824 008c 00000000 		.word	MSC_Page80_Inquiry_Data
 825 0090 00000000 		.word	MSC_Page00_Inquiry_Data
 826              		.cfi_endproc
 827              	.LFE138:
 829              		.section	.text.SCSI_StartStopUnit,"ax",%progbits
 830              		.align	1
 831              		.syntax unified
 832              		.thumb
 833              		.thumb_func
 834              		.fpu fpv4-sp-d16
 836              	SCSI_StartStopUnit:
 837              	.LVL97:
 838              	.LFB146:
 611:Middlewares/ST/STM32_USB_Device_Library/Class/MSC/Src/usbd_msc_scsi.c ****   UNUSED(lun);
 839              		.loc 1 611 1 is_stmt 1 view -0
 840              		.cfi_startproc
 841              		@ args = 0, pretend = 0, frame = 0
 842              		@ frame_needed = 0, uses_anonymous_args = 0
 611:Middlewares/ST/STM32_USB_Device_Library/Class/MSC/Src/usbd_msc_scsi.c ****   UNUSED(lun);
 843              		.loc 1 611 1 is_stmt 0 view .LVU266
ARM GAS  C:\Users\Admin\AppData\Local\Temp\ccCPzby3.s 			page 40


 844 0000 10B5     		push	{r4, lr}
 845              	.LCFI13:
 846              		.cfi_def_cfa_offset 8
 847              		.cfi_offset 4, -8
 848              		.cfi_offset 14, -4
 612:Middlewares/ST/STM32_USB_Device_Library/Class/MSC/Src/usbd_msc_scsi.c ****   USBD_MSC_BOT_HandleTypeDef *hmsc = (USBD_MSC_BOT_HandleTypeDef *)pdev->pClassData;
 849              		.loc 1 612 3 is_stmt 1 view .LVU267
 613:Middlewares/ST/STM32_USB_Device_Library/Class/MSC/Src/usbd_msc_scsi.c **** 
 850              		.loc 1 613 3 view .LVU268
 613:Middlewares/ST/STM32_USB_Device_Library/Class/MSC/Src/usbd_msc_scsi.c **** 
 851              		.loc 1 613 31 is_stmt 0 view .LVU269
 852 0002 D0F8BC42 		ldr	r4, [r0, #700]
 853              	.LVL98:
 615:Middlewares/ST/STM32_USB_Device_Library/Class/MSC/Src/usbd_msc_scsi.c ****   {
 854              		.loc 1 615 3 is_stmt 1 view .LVU270
 615:Middlewares/ST/STM32_USB_Device_Library/Class/MSC/Src/usbd_msc_scsi.c ****   {
 855              		.loc 1 615 6 is_stmt 0 view .LVU271
 856 0006 2CB3     		cbz	r4, .L84
 620:Middlewares/ST/STM32_USB_Device_Library/Class/MSC/Src/usbd_msc_scsi.c ****   {
 857              		.loc 1 620 3 is_stmt 1 view .LVU272
 620:Middlewares/ST/STM32_USB_Device_Library/Class/MSC/Src/usbd_msc_scsi.c ****   {
 858              		.loc 1 620 12 is_stmt 0 view .LVU273
 859 0008 94F86232 		ldrb	r3, [r4, #610]	@ zero_extendqisi2
 620:Middlewares/ST/STM32_USB_Device_Library/Class/MSC/Src/usbd_msc_scsi.c ****   {
 860              		.loc 1 620 6 view .LVU274
 861 000c 012B     		cmp	r3, #1
 862 000e 0CD0     		beq	.L86
 863              	.L80:
 627:Middlewares/ST/STM32_USB_Device_Library/Class/MSC/Src/usbd_msc_scsi.c ****   {
 864              		.loc 1 627 3 is_stmt 1 view .LVU275
 627:Middlewares/ST/STM32_USB_Device_Library/Class/MSC/Src/usbd_msc_scsi.c ****   {
 865              		.loc 1 627 14 is_stmt 0 view .LVU276
 866 0010 1379     		ldrb	r3, [r2, #4]	@ zero_extendqisi2
 867 0012 03F00303 		and	r3, r3, #3
 627:Middlewares/ST/STM32_USB_Device_Library/Class/MSC/Src/usbd_msc_scsi.c ****   {
 868              		.loc 1 627 6 view .LVU277
 869 0016 012B     		cmp	r3, #1
 870 0018 13D0     		beq	.L87
 631:Middlewares/ST/STM32_USB_Device_Library/Class/MSC/Src/usbd_msc_scsi.c ****   {
 871              		.loc 1 631 8 is_stmt 1 view .LVU278
 631:Middlewares/ST/STM32_USB_Device_Library/Class/MSC/Src/usbd_msc_scsi.c ****   {
 872              		.loc 1 631 11 is_stmt 0 view .LVU279
 873 001a 022B     		cmp	r3, #2
 874 001c 17D0     		beq	.L88
 635:Middlewares/ST/STM32_USB_Device_Library/Class/MSC/Src/usbd_msc_scsi.c ****   {
 875              		.loc 1 635 8 is_stmt 1 view .LVU280
 635:Middlewares/ST/STM32_USB_Device_Library/Class/MSC/Src/usbd_msc_scsi.c ****   {
 876              		.loc 1 635 11 is_stmt 0 view .LVU281
 877 001e 032B     		cmp	r3, #3
 878 0020 12D1     		bne	.L82
 637:Middlewares/ST/STM32_USB_Device_Library/Class/MSC/Src/usbd_msc_scsi.c ****   }
 879              		.loc 1 637 5 is_stmt 1 view .LVU282
 637:Middlewares/ST/STM32_USB_Device_Library/Class/MSC/Src/usbd_msc_scsi.c ****   }
 880              		.loc 1 637 29 is_stmt 0 view .LVU283
 881 0022 0023     		movs	r3, #0
 882 0024 84F86232 		strb	r3, [r4, #610]
 883 0028 0EE0     		b	.L82
ARM GAS  C:\Users\Admin\AppData\Local\Temp\ccCPzby3.s 			page 41


 884              	.L86:
 620:Middlewares/ST/STM32_USB_Device_Library/Class/MSC/Src/usbd_msc_scsi.c ****   {
 885              		.loc 1 620 66 discriminator 1 view .LVU284
 886 002a 1379     		ldrb	r3, [r2, #4]	@ zero_extendqisi2
 620:Middlewares/ST/STM32_USB_Device_Library/Class/MSC/Src/usbd_msc_scsi.c ****   {
 887              		.loc 1 620 55 discriminator 1 view .LVU285
 888 002c 03F00303 		and	r3, r3, #3
 889 0030 022B     		cmp	r3, #2
 890 0032 EDD1     		bne	.L80
 622:Middlewares/ST/STM32_USB_Device_Library/Class/MSC/Src/usbd_msc_scsi.c **** 
 891              		.loc 1 622 5 is_stmt 1 view .LVU286
 892 0034 2423     		movs	r3, #36
 893 0036 0522     		movs	r2, #5
 894              	.LVL99:
 622:Middlewares/ST/STM32_USB_Device_Library/Class/MSC/Src/usbd_msc_scsi.c **** 
 895              		.loc 1 622 5 is_stmt 0 view .LVU287
 896 0038 FFF7FEFF 		bl	SCSI_SenseCode
 897              	.LVL100:
 624:Middlewares/ST/STM32_USB_Device_Library/Class/MSC/Src/usbd_msc_scsi.c ****   }
 898              		.loc 1 624 5 is_stmt 1 view .LVU288
 624:Middlewares/ST/STM32_USB_Device_Library/Class/MSC/Src/usbd_msc_scsi.c ****   }
 899              		.loc 1 624 12 is_stmt 0 view .LVU289
 900 003c 4FF0FF30 		mov	r0, #-1
 901 0040 04E0     		b	.L79
 902              	.LVL101:
 903              	.L87:
 629:Middlewares/ST/STM32_USB_Device_Library/Class/MSC/Src/usbd_msc_scsi.c ****   }
 904              		.loc 1 629 5 is_stmt 1 view .LVU290
 629:Middlewares/ST/STM32_USB_Device_Library/Class/MSC/Src/usbd_msc_scsi.c ****   }
 905              		.loc 1 629 29 is_stmt 0 view .LVU291
 906 0042 0023     		movs	r3, #0
 907 0044 84F86232 		strb	r3, [r4, #610]
 908              	.L82:
 642:Middlewares/ST/STM32_USB_Device_Library/Class/MSC/Src/usbd_msc_scsi.c ****   hmsc->bot_data_length = 0U;
 909              		.loc 1 642 3 is_stmt 1 view .LVU292
 643:Middlewares/ST/STM32_USB_Device_Library/Class/MSC/Src/usbd_msc_scsi.c **** 
 910              		.loc 1 643 3 view .LVU293
 643:Middlewares/ST/STM32_USB_Device_Library/Class/MSC/Src/usbd_msc_scsi.c **** 
 911              		.loc 1 643 25 is_stmt 0 view .LVU294
 912 0048 0020     		movs	r0, #0
 913              	.LVL102:
 643:Middlewares/ST/STM32_USB_Device_Library/Class/MSC/Src/usbd_msc_scsi.c **** 
 914              		.loc 1 643 25 view .LVU295
 915 004a E060     		str	r0, [r4, #12]
 645:Middlewares/ST/STM32_USB_Device_Library/Class/MSC/Src/usbd_msc_scsi.c **** }
 916              		.loc 1 645 3 is_stmt 1 view .LVU296
 917              	.LVL103:
 918              	.L79:
 646:Middlewares/ST/STM32_USB_Device_Library/Class/MSC/Src/usbd_msc_scsi.c **** 
 919              		.loc 1 646 1 is_stmt 0 view .LVU297
 920 004c 10BD     		pop	{r4, pc}
 921              	.LVL104:
 922              	.L88:
 633:Middlewares/ST/STM32_USB_Device_Library/Class/MSC/Src/usbd_msc_scsi.c ****   }
 923              		.loc 1 633 5 is_stmt 1 view .LVU298
 633:Middlewares/ST/STM32_USB_Device_Library/Class/MSC/Src/usbd_msc_scsi.c ****   }
 924              		.loc 1 633 29 is_stmt 0 view .LVU299
ARM GAS  C:\Users\Admin\AppData\Local\Temp\ccCPzby3.s 			page 42


 925 004e 84F86232 		strb	r3, [r4, #610]
 926 0052 F9E7     		b	.L82
 927              	.L84:
 617:Middlewares/ST/STM32_USB_Device_Library/Class/MSC/Src/usbd_msc_scsi.c ****   }
 928              		.loc 1 617 12 view .LVU300
 929 0054 4FF0FF30 		mov	r0, #-1
 930              	.LVL105:
 617:Middlewares/ST/STM32_USB_Device_Library/Class/MSC/Src/usbd_msc_scsi.c ****   }
 931              		.loc 1 617 12 view .LVU301
 932 0058 F8E7     		b	.L79
 933              		.cfi_endproc
 934              	.LFE146:
 936              		.section	.text.SCSI_ReadFormatCapacity,"ax",%progbits
 937              		.align	1
 938              		.syntax unified
 939              		.thumb
 940              		.thumb_func
 941              		.fpu fpv4-sp-d16
 943              	SCSI_ReadFormatCapacity:
 944              	.LVL106:
 945              	.LFB141:
 415:Middlewares/ST/STM32_USB_Device_Library/Class/MSC/Src/usbd_msc_scsi.c ****   UNUSED(params);
 946              		.loc 1 415 1 is_stmt 1 view -0
 947              		.cfi_startproc
 948              		@ args = 0, pretend = 0, frame = 8
 949              		@ frame_needed = 0, uses_anonymous_args = 0
 415:Middlewares/ST/STM32_USB_Device_Library/Class/MSC/Src/usbd_msc_scsi.c ****   UNUSED(params);
 950              		.loc 1 415 1 is_stmt 0 view .LVU303
 951 0000 70B5     		push	{r4, r5, r6, lr}
 952              	.LCFI14:
 953              		.cfi_def_cfa_offset 16
 954              		.cfi_offset 4, -16
 955              		.cfi_offset 5, -12
 956              		.cfi_offset 6, -8
 957              		.cfi_offset 14, -4
 958 0002 82B0     		sub	sp, sp, #8
 959              	.LCFI15:
 960              		.cfi_def_cfa_offset 24
 416:Middlewares/ST/STM32_USB_Device_Library/Class/MSC/Src/usbd_msc_scsi.c ****   uint16_t blk_size;
 961              		.loc 1 416 3 is_stmt 1 view .LVU304
 417:Middlewares/ST/STM32_USB_Device_Library/Class/MSC/Src/usbd_msc_scsi.c ****   uint32_t blk_nbr;
 962              		.loc 1 417 3 view .LVU305
 418:Middlewares/ST/STM32_USB_Device_Library/Class/MSC/Src/usbd_msc_scsi.c ****   uint16_t i;
 963              		.loc 1 418 3 view .LVU306
 419:Middlewares/ST/STM32_USB_Device_Library/Class/MSC/Src/usbd_msc_scsi.c ****   int8_t ret;
 964              		.loc 1 419 3 view .LVU307
 420:Middlewares/ST/STM32_USB_Device_Library/Class/MSC/Src/usbd_msc_scsi.c ****   USBD_MSC_BOT_HandleTypeDef *hmsc = (USBD_MSC_BOT_HandleTypeDef *)pdev->pClassData;
 965              		.loc 1 420 3 view .LVU308
 421:Middlewares/ST/STM32_USB_Device_Library/Class/MSC/Src/usbd_msc_scsi.c **** 
 966              		.loc 1 421 3 view .LVU309
 421:Middlewares/ST/STM32_USB_Device_Library/Class/MSC/Src/usbd_msc_scsi.c **** 
 967              		.loc 1 421 31 is_stmt 0 view .LVU310
 968 0004 D0F8BC42 		ldr	r4, [r0, #700]
 969              	.LVL107:
 423:Middlewares/ST/STM32_USB_Device_Library/Class/MSC/Src/usbd_msc_scsi.c ****   {
 970              		.loc 1 423 3 is_stmt 1 view .LVU311
 423:Middlewares/ST/STM32_USB_Device_Library/Class/MSC/Src/usbd_msc_scsi.c ****   {
ARM GAS  C:\Users\Admin\AppData\Local\Temp\ccCPzby3.s 			page 43


 971              		.loc 1 423 6 is_stmt 0 view .LVU312
 972 0008 002C     		cmp	r4, #0
 973 000a 3BD0     		beq	.L94
 974 000c 0546     		mov	r5, r0
 975 000e 0E46     		mov	r6, r1
 428:Middlewares/ST/STM32_USB_Device_Library/Class/MSC/Src/usbd_msc_scsi.c **** 
 976              		.loc 1 428 3 is_stmt 1 view .LVU313
 428:Middlewares/ST/STM32_USB_Device_Library/Class/MSC/Src/usbd_msc_scsi.c **** 
 977              		.loc 1 428 37 is_stmt 0 view .LVU314
 978 0010 D0F8C032 		ldr	r3, [r0, #704]
 428:Middlewares/ST/STM32_USB_Device_Library/Class/MSC/Src/usbd_msc_scsi.c **** 
 979              		.loc 1 428 49 view .LVU315
 980 0014 5B68     		ldr	r3, [r3, #4]
 428:Middlewares/ST/STM32_USB_Device_Library/Class/MSC/Src/usbd_msc_scsi.c **** 
 981              		.loc 1 428 10 view .LVU316
 982 0016 0DF10602 		add	r2, sp, #6
 983              	.LVL108:
 428:Middlewares/ST/STM32_USB_Device_Library/Class/MSC/Src/usbd_msc_scsi.c **** 
 984              		.loc 1 428 10 view .LVU317
 985 001a 6946     		mov	r1, sp
 986              	.LVL109:
 428:Middlewares/ST/STM32_USB_Device_Library/Class/MSC/Src/usbd_msc_scsi.c **** 
 987              		.loc 1 428 10 view .LVU318
 988 001c 3046     		mov	r0, r6
 989              	.LVL110:
 428:Middlewares/ST/STM32_USB_Device_Library/Class/MSC/Src/usbd_msc_scsi.c **** 
 990              		.loc 1 428 10 view .LVU319
 991 001e 9847     		blx	r3
 992              	.LVL111:
 430:Middlewares/ST/STM32_USB_Device_Library/Class/MSC/Src/usbd_msc_scsi.c ****   {
 993              		.loc 1 430 3 is_stmt 1 view .LVU320
 430:Middlewares/ST/STM32_USB_Device_Library/Class/MSC/Src/usbd_msc_scsi.c ****   {
 994              		.loc 1 430 6 is_stmt 0 view .LVU321
 995 0020 60B9     		cbnz	r0, .L91
 430:Middlewares/ST/STM32_USB_Device_Library/Class/MSC/Src/usbd_msc_scsi.c ****   {
 996              		.loc 1 430 26 discriminator 1 view .LVU322
 997 0022 94F86232 		ldrb	r3, [r4, #610]	@ zero_extendqisi2
 430:Middlewares/ST/STM32_USB_Device_Library/Class/MSC/Src/usbd_msc_scsi.c ****   {
 998              		.loc 1 430 18 discriminator 1 view .LVU323
 999 0026 022B     		cmp	r3, #2
 1000 0028 08D0     		beq	.L91
 436:Middlewares/ST/STM32_USB_Device_Library/Class/MSC/Src/usbd_msc_scsi.c ****   {
 1001              		.loc 1 436 10 view .LVU324
 1002 002a 0023     		movs	r3, #0
 1003              	.L92:
 1004              	.LVL112:
 436:Middlewares/ST/STM32_USB_Device_Library/Class/MSC/Src/usbd_msc_scsi.c ****   {
 1005              		.loc 1 436 16 is_stmt 1 discriminator 1 view .LVU325
 436:Middlewares/ST/STM32_USB_Device_Library/Class/MSC/Src/usbd_msc_scsi.c ****   {
 1006              		.loc 1 436 3 is_stmt 0 discriminator 1 view .LVU326
 1007 002c 0B2B     		cmp	r3, #11
 1008 002e 0ED8     		bhi	.L97
 438:Middlewares/ST/STM32_USB_Device_Library/Class/MSC/Src/usbd_msc_scsi.c ****   }
 1009              		.loc 1 438 5 is_stmt 1 discriminator 3 view .LVU327
 438:Middlewares/ST/STM32_USB_Device_Library/Class/MSC/Src/usbd_msc_scsi.c ****   }
 1010              		.loc 1 438 23 is_stmt 0 discriminator 3 view .LVU328
 1011 0030 E218     		adds	r2, r4, r3
ARM GAS  C:\Users\Admin\AppData\Local\Temp\ccCPzby3.s 			page 44


 1012 0032 0021     		movs	r1, #0
 1013 0034 1174     		strb	r1, [r2, #16]
 436:Middlewares/ST/STM32_USB_Device_Library/Class/MSC/Src/usbd_msc_scsi.c ****   {
 1014              		.loc 1 436 26 is_stmt 1 discriminator 3 view .LVU329
 436:Middlewares/ST/STM32_USB_Device_Library/Class/MSC/Src/usbd_msc_scsi.c ****   {
 1015              		.loc 1 436 27 is_stmt 0 discriminator 3 view .LVU330
 1016 0036 0133     		adds	r3, r3, #1
 1017              	.LVL113:
 436:Middlewares/ST/STM32_USB_Device_Library/Class/MSC/Src/usbd_msc_scsi.c ****   {
 1018              		.loc 1 436 27 discriminator 3 view .LVU331
 1019 0038 9BB2     		uxth	r3, r3
 1020              	.LVL114:
 436:Middlewares/ST/STM32_USB_Device_Library/Class/MSC/Src/usbd_msc_scsi.c ****   {
 1021              		.loc 1 436 27 discriminator 3 view .LVU332
 1022 003a F7E7     		b	.L92
 1023              	.LVL115:
 1024              	.L91:
 432:Middlewares/ST/STM32_USB_Device_Library/Class/MSC/Src/usbd_msc_scsi.c ****     return -1;
 1025              		.loc 1 432 5 is_stmt 1 view .LVU333
 1026 003c 3A23     		movs	r3, #58
 1027 003e 0222     		movs	r2, #2
 1028 0040 3146     		mov	r1, r6
 1029 0042 2846     		mov	r0, r5
 1030              	.LVL116:
 432:Middlewares/ST/STM32_USB_Device_Library/Class/MSC/Src/usbd_msc_scsi.c ****     return -1;
 1031              		.loc 1 432 5 is_stmt 0 view .LVU334
 1032 0044 FFF7FEFF 		bl	SCSI_SenseCode
 1033              	.LVL117:
 433:Middlewares/ST/STM32_USB_Device_Library/Class/MSC/Src/usbd_msc_scsi.c ****   }
 1034              		.loc 1 433 5 is_stmt 1 view .LVU335
 433:Middlewares/ST/STM32_USB_Device_Library/Class/MSC/Src/usbd_msc_scsi.c ****   }
 1035              		.loc 1 433 12 is_stmt 0 view .LVU336
 1036 0048 4FF0FF30 		mov	r0, #-1
 1037 004c 18E0     		b	.L90
 1038              	.LVL118:
 1039              	.L97:
 441:Middlewares/ST/STM32_USB_Device_Library/Class/MSC/Src/usbd_msc_scsi.c ****   hmsc->bot_data[4] = (uint8_t)((blk_nbr - 1U) >> 24);
 1040              		.loc 1 441 3 is_stmt 1 view .LVU337
 441:Middlewares/ST/STM32_USB_Device_Library/Class/MSC/Src/usbd_msc_scsi.c ****   hmsc->bot_data[4] = (uint8_t)((blk_nbr - 1U) >> 24);
 1041              		.loc 1 441 21 is_stmt 0 view .LVU338
 1042 004e 0823     		movs	r3, #8
 1043              	.LVL119:
 441:Middlewares/ST/STM32_USB_Device_Library/Class/MSC/Src/usbd_msc_scsi.c ****   hmsc->bot_data[4] = (uint8_t)((blk_nbr - 1U) >> 24);
 1044              		.loc 1 441 21 view .LVU339
 1045 0050 E374     		strb	r3, [r4, #19]
 442:Middlewares/ST/STM32_USB_Device_Library/Class/MSC/Src/usbd_msc_scsi.c ****   hmsc->bot_data[5] = (uint8_t)((blk_nbr - 1U) >> 16);
 1046              		.loc 1 442 3 is_stmt 1 view .LVU340
 442:Middlewares/ST/STM32_USB_Device_Library/Class/MSC/Src/usbd_msc_scsi.c ****   hmsc->bot_data[5] = (uint8_t)((blk_nbr - 1U) >> 16);
 1047              		.loc 1 442 42 is_stmt 0 view .LVU341
 1048 0052 009A     		ldr	r2, [sp]
 1049 0054 531E     		subs	r3, r2, #1
 442:Middlewares/ST/STM32_USB_Device_Library/Class/MSC/Src/usbd_msc_scsi.c ****   hmsc->bot_data[5] = (uint8_t)((blk_nbr - 1U) >> 16);
 1050              		.loc 1 442 23 view .LVU342
 1051 0056 190E     		lsrs	r1, r3, #24
 442:Middlewares/ST/STM32_USB_Device_Library/Class/MSC/Src/usbd_msc_scsi.c ****   hmsc->bot_data[5] = (uint8_t)((blk_nbr - 1U) >> 16);
 1052              		.loc 1 442 21 view .LVU343
 1053 0058 2175     		strb	r1, [r4, #20]
ARM GAS  C:\Users\Admin\AppData\Local\Temp\ccCPzby3.s 			page 45


 443:Middlewares/ST/STM32_USB_Device_Library/Class/MSC/Src/usbd_msc_scsi.c ****   hmsc->bot_data[6] = (uint8_t)((blk_nbr - 1U) >>  8);
 1054              		.loc 1 443 3 is_stmt 1 view .LVU344
 443:Middlewares/ST/STM32_USB_Device_Library/Class/MSC/Src/usbd_msc_scsi.c ****   hmsc->bot_data[6] = (uint8_t)((blk_nbr - 1U) >>  8);
 1055              		.loc 1 443 23 is_stmt 0 view .LVU345
 1056 005a C3F30741 		ubfx	r1, r3, #16, #8
 443:Middlewares/ST/STM32_USB_Device_Library/Class/MSC/Src/usbd_msc_scsi.c ****   hmsc->bot_data[6] = (uint8_t)((blk_nbr - 1U) >>  8);
 1057              		.loc 1 443 21 view .LVU346
 1058 005e 6175     		strb	r1, [r4, #21]
 444:Middlewares/ST/STM32_USB_Device_Library/Class/MSC/Src/usbd_msc_scsi.c ****   hmsc->bot_data[7] = (uint8_t)(blk_nbr - 1U);
 1059              		.loc 1 444 3 is_stmt 1 view .LVU347
 444:Middlewares/ST/STM32_USB_Device_Library/Class/MSC/Src/usbd_msc_scsi.c ****   hmsc->bot_data[7] = (uint8_t)(blk_nbr - 1U);
 1060              		.loc 1 444 23 is_stmt 0 view .LVU348
 1061 0060 C3F30723 		ubfx	r3, r3, #8, #8
 444:Middlewares/ST/STM32_USB_Device_Library/Class/MSC/Src/usbd_msc_scsi.c ****   hmsc->bot_data[7] = (uint8_t)(blk_nbr - 1U);
 1062              		.loc 1 444 21 view .LVU349
 1063 0064 A375     		strb	r3, [r4, #22]
 445:Middlewares/ST/STM32_USB_Device_Library/Class/MSC/Src/usbd_msc_scsi.c **** 
 1064              		.loc 1 445 3 is_stmt 1 view .LVU350
 445:Middlewares/ST/STM32_USB_Device_Library/Class/MSC/Src/usbd_msc_scsi.c **** 
 1065              		.loc 1 445 23 is_stmt 0 view .LVU351
 1066 0066 013A     		subs	r2, r2, #1
 445:Middlewares/ST/STM32_USB_Device_Library/Class/MSC/Src/usbd_msc_scsi.c **** 
 1067              		.loc 1 445 21 view .LVU352
 1068 0068 E275     		strb	r2, [r4, #23]
 447:Middlewares/ST/STM32_USB_Device_Library/Class/MSC/Src/usbd_msc_scsi.c ****   hmsc->bot_data[9] = (uint8_t)(blk_size >>  16);
 1069              		.loc 1 447 3 is_stmt 1 view .LVU353
 447:Middlewares/ST/STM32_USB_Device_Library/Class/MSC/Src/usbd_msc_scsi.c ****   hmsc->bot_data[9] = (uint8_t)(blk_size >>  16);
 1070              		.loc 1 447 21 is_stmt 0 view .LVU354
 1071 006a 0223     		movs	r3, #2
 1072 006c 2376     		strb	r3, [r4, #24]
 448:Middlewares/ST/STM32_USB_Device_Library/Class/MSC/Src/usbd_msc_scsi.c ****   hmsc->bot_data[10] = (uint8_t)(blk_size >>  8);
 1073              		.loc 1 448 3 is_stmt 1 view .LVU355
 448:Middlewares/ST/STM32_USB_Device_Library/Class/MSC/Src/usbd_msc_scsi.c ****   hmsc->bot_data[10] = (uint8_t)(blk_size >>  8);
 1074              		.loc 1 448 42 is_stmt 0 view .LVU356
 1075 006e BDF80630 		ldrh	r3, [sp, #6]
 448:Middlewares/ST/STM32_USB_Device_Library/Class/MSC/Src/usbd_msc_scsi.c ****   hmsc->bot_data[10] = (uint8_t)(blk_size >>  8);
 1076              		.loc 1 448 23 view .LVU357
 1077 0072 0022     		movs	r2, #0
 448:Middlewares/ST/STM32_USB_Device_Library/Class/MSC/Src/usbd_msc_scsi.c ****   hmsc->bot_data[10] = (uint8_t)(blk_size >>  8);
 1078              		.loc 1 448 21 view .LVU358
 1079 0074 6276     		strb	r2, [r4, #25]
 449:Middlewares/ST/STM32_USB_Device_Library/Class/MSC/Src/usbd_msc_scsi.c ****   hmsc->bot_data[11] = (uint8_t)(blk_size);
 1080              		.loc 1 449 3 is_stmt 1 view .LVU359
 449:Middlewares/ST/STM32_USB_Device_Library/Class/MSC/Src/usbd_msc_scsi.c ****   hmsc->bot_data[11] = (uint8_t)(blk_size);
 1081              		.loc 1 449 24 is_stmt 0 view .LVU360
 1082 0076 1A0A     		lsrs	r2, r3, #8
 449:Middlewares/ST/STM32_USB_Device_Library/Class/MSC/Src/usbd_msc_scsi.c ****   hmsc->bot_data[11] = (uint8_t)(blk_size);
 1083              		.loc 1 449 22 view .LVU361
 1084 0078 A276     		strb	r2, [r4, #26]
 450:Middlewares/ST/STM32_USB_Device_Library/Class/MSC/Src/usbd_msc_scsi.c **** 
 1085              		.loc 1 450 3 is_stmt 1 view .LVU362
 450:Middlewares/ST/STM32_USB_Device_Library/Class/MSC/Src/usbd_msc_scsi.c **** 
 1086              		.loc 1 450 22 is_stmt 0 view .LVU363
 1087 007a E376     		strb	r3, [r4, #27]
 452:Middlewares/ST/STM32_USB_Device_Library/Class/MSC/Src/usbd_msc_scsi.c **** 
 1088              		.loc 1 452 3 is_stmt 1 view .LVU364
 452:Middlewares/ST/STM32_USB_Device_Library/Class/MSC/Src/usbd_msc_scsi.c **** 
ARM GAS  C:\Users\Admin\AppData\Local\Temp\ccCPzby3.s 			page 46


 1089              		.loc 1 452 25 is_stmt 0 view .LVU365
 1090 007c 0C23     		movs	r3, #12
 1091 007e E360     		str	r3, [r4, #12]
 454:Middlewares/ST/STM32_USB_Device_Library/Class/MSC/Src/usbd_msc_scsi.c **** }
 1092              		.loc 1 454 3 is_stmt 1 view .LVU366
 1093              	.LVL120:
 1094              	.L90:
 455:Middlewares/ST/STM32_USB_Device_Library/Class/MSC/Src/usbd_msc_scsi.c **** 
 1095              		.loc 1 455 1 is_stmt 0 view .LVU367
 1096 0080 02B0     		add	sp, sp, #8
 1097              	.LCFI16:
 1098              		.cfi_remember_state
 1099              		.cfi_def_cfa_offset 16
 1100              		@ sp needed
 1101 0082 70BD     		pop	{r4, r5, r6, pc}
 1102              	.LVL121:
 1103              	.L94:
 1104              	.LCFI17:
 1105              		.cfi_restore_state
 425:Middlewares/ST/STM32_USB_Device_Library/Class/MSC/Src/usbd_msc_scsi.c ****   }
 1106              		.loc 1 425 12 view .LVU368
 1107 0084 4FF0FF30 		mov	r0, #-1
 1108              	.LVL122:
 425:Middlewares/ST/STM32_USB_Device_Library/Class/MSC/Src/usbd_msc_scsi.c ****   }
 1109              		.loc 1 425 12 view .LVU369
 1110 0088 FAE7     		b	.L90
 1111              		.cfi_endproc
 1112              	.LFE141:
 1114              		.section	.text.SCSI_ReadCapacity10,"ax",%progbits
 1115              		.align	1
 1116              		.syntax unified
 1117              		.thumb
 1118              		.thumb_func
 1119              		.fpu fpv4-sp-d16
 1121              	SCSI_ReadCapacity10:
 1122              	.LVL123:
 1123              	.LFB139:
 316:Middlewares/ST/STM32_USB_Device_Library/Class/MSC/Src/usbd_msc_scsi.c ****   UNUSED(params);
 1124              		.loc 1 316 1 is_stmt 1 view -0
 1125              		.cfi_startproc
 1126              		@ args = 0, pretend = 0, frame = 0
 1127              		@ frame_needed = 0, uses_anonymous_args = 0
 316:Middlewares/ST/STM32_USB_Device_Library/Class/MSC/Src/usbd_msc_scsi.c ****   UNUSED(params);
 1128              		.loc 1 316 1 is_stmt 0 view .LVU371
 1129 0000 70B5     		push	{r4, r5, r6, lr}
 1130              	.LCFI18:
 1131              		.cfi_def_cfa_offset 16
 1132              		.cfi_offset 4, -16
 1133              		.cfi_offset 5, -12
 1134              		.cfi_offset 6, -8
 1135              		.cfi_offset 14, -4
 317:Middlewares/ST/STM32_USB_Device_Library/Class/MSC/Src/usbd_msc_scsi.c ****   int8_t ret;
 1136              		.loc 1 317 3 is_stmt 1 view .LVU372
 318:Middlewares/ST/STM32_USB_Device_Library/Class/MSC/Src/usbd_msc_scsi.c ****   USBD_MSC_BOT_HandleTypeDef *hmsc = (USBD_MSC_BOT_HandleTypeDef *)pdev->pClassData;
 1137              		.loc 1 318 3 view .LVU373
 319:Middlewares/ST/STM32_USB_Device_Library/Class/MSC/Src/usbd_msc_scsi.c **** 
 1138              		.loc 1 319 3 view .LVU374
ARM GAS  C:\Users\Admin\AppData\Local\Temp\ccCPzby3.s 			page 47


 319:Middlewares/ST/STM32_USB_Device_Library/Class/MSC/Src/usbd_msc_scsi.c **** 
 1139              		.loc 1 319 31 is_stmt 0 view .LVU375
 1140 0002 D0F8BC42 		ldr	r4, [r0, #700]
 1141              	.LVL124:
 321:Middlewares/ST/STM32_USB_Device_Library/Class/MSC/Src/usbd_msc_scsi.c ****   {
 1142              		.loc 1 321 3 is_stmt 1 view .LVU376
 321:Middlewares/ST/STM32_USB_Device_Library/Class/MSC/Src/usbd_msc_scsi.c ****   {
 1143              		.loc 1 321 6 is_stmt 0 view .LVU377
 1144 0006 84B3     		cbz	r4, .L102
 1145 0008 0546     		mov	r5, r0
 1146 000a 0E46     		mov	r6, r1
 326:Middlewares/ST/STM32_USB_Device_Library/Class/MSC/Src/usbd_msc_scsi.c **** 
 1147              		.loc 1 326 3 is_stmt 1 view .LVU378
 326:Middlewares/ST/STM32_USB_Device_Library/Class/MSC/Src/usbd_msc_scsi.c **** 
 1148              		.loc 1 326 37 is_stmt 0 view .LVU379
 1149 000c D0F8C032 		ldr	r3, [r0, #704]
 326:Middlewares/ST/STM32_USB_Device_Library/Class/MSC/Src/usbd_msc_scsi.c **** 
 1150              		.loc 1 326 49 view .LVU380
 1151 0010 5B68     		ldr	r3, [r3, #4]
 326:Middlewares/ST/STM32_USB_Device_Library/Class/MSC/Src/usbd_msc_scsi.c **** 
 1152              		.loc 1 326 10 view .LVU381
 1153 0012 04F51972 		add	r2, r4, #612
 1154              	.LVL125:
 326:Middlewares/ST/STM32_USB_Device_Library/Class/MSC/Src/usbd_msc_scsi.c **** 
 1155              		.loc 1 326 10 view .LVU382
 1156 0016 04F51A71 		add	r1, r4, #616
 1157              	.LVL126:
 326:Middlewares/ST/STM32_USB_Device_Library/Class/MSC/Src/usbd_msc_scsi.c **** 
 1158              		.loc 1 326 10 view .LVU383
 1159 001a 3046     		mov	r0, r6
 1160              	.LVL127:
 326:Middlewares/ST/STM32_USB_Device_Library/Class/MSC/Src/usbd_msc_scsi.c **** 
 1161              		.loc 1 326 10 view .LVU384
 1162 001c 9847     		blx	r3
 1163              	.LVL128:
 328:Middlewares/ST/STM32_USB_Device_Library/Class/MSC/Src/usbd_msc_scsi.c ****   {
 1164              		.loc 1 328 3 is_stmt 1 view .LVU385
 328:Middlewares/ST/STM32_USB_Device_Library/Class/MSC/Src/usbd_msc_scsi.c ****   {
 1165              		.loc 1 328 6 is_stmt 0 view .LVU386
 1166 001e D8B9     		cbnz	r0, .L100
 328:Middlewares/ST/STM32_USB_Device_Library/Class/MSC/Src/usbd_msc_scsi.c ****   {
 1167              		.loc 1 328 26 discriminator 1 view .LVU387
 1168 0020 94F86232 		ldrb	r3, [r4, #610]	@ zero_extendqisi2
 328:Middlewares/ST/STM32_USB_Device_Library/Class/MSC/Src/usbd_msc_scsi.c ****   {
 1169              		.loc 1 328 18 discriminator 1 view .LVU388
 1170 0024 022B     		cmp	r3, #2
 1171 0026 17D0     		beq	.L100
 334:Middlewares/ST/STM32_USB_Device_Library/Class/MSC/Src/usbd_msc_scsi.c ****   hmsc->bot_data[1] = (uint8_t)((hmsc->scsi_blk_nbr - 1U) >> 16);
 1172              		.loc 1 334 3 is_stmt 1 view .LVU389
 334:Middlewares/ST/STM32_USB_Device_Library/Class/MSC/Src/usbd_msc_scsi.c ****   hmsc->bot_data[1] = (uint8_t)((hmsc->scsi_blk_nbr - 1U) >> 16);
 1173              		.loc 1 334 38 is_stmt 0 view .LVU390
 1174 0028 D4F86822 		ldr	r2, [r4, #616]
 334:Middlewares/ST/STM32_USB_Device_Library/Class/MSC/Src/usbd_msc_scsi.c ****   hmsc->bot_data[1] = (uint8_t)((hmsc->scsi_blk_nbr - 1U) >> 16);
 1175              		.loc 1 334 53 view .LVU391
 1176 002c 531E     		subs	r3, r2, #1
 334:Middlewares/ST/STM32_USB_Device_Library/Class/MSC/Src/usbd_msc_scsi.c ****   hmsc->bot_data[1] = (uint8_t)((hmsc->scsi_blk_nbr - 1U) >> 16);
 1177              		.loc 1 334 23 view .LVU392
ARM GAS  C:\Users\Admin\AppData\Local\Temp\ccCPzby3.s 			page 48


 1178 002e 190E     		lsrs	r1, r3, #24
 334:Middlewares/ST/STM32_USB_Device_Library/Class/MSC/Src/usbd_msc_scsi.c ****   hmsc->bot_data[1] = (uint8_t)((hmsc->scsi_blk_nbr - 1U) >> 16);
 1179              		.loc 1 334 21 view .LVU393
 1180 0030 2174     		strb	r1, [r4, #16]
 335:Middlewares/ST/STM32_USB_Device_Library/Class/MSC/Src/usbd_msc_scsi.c ****   hmsc->bot_data[2] = (uint8_t)((hmsc->scsi_blk_nbr - 1U) >>  8);
 1181              		.loc 1 335 3 is_stmt 1 view .LVU394
 335:Middlewares/ST/STM32_USB_Device_Library/Class/MSC/Src/usbd_msc_scsi.c ****   hmsc->bot_data[2] = (uint8_t)((hmsc->scsi_blk_nbr - 1U) >>  8);
 1182              		.loc 1 335 23 is_stmt 0 view .LVU395
 1183 0032 C3F30741 		ubfx	r1, r3, #16, #8
 335:Middlewares/ST/STM32_USB_Device_Library/Class/MSC/Src/usbd_msc_scsi.c ****   hmsc->bot_data[2] = (uint8_t)((hmsc->scsi_blk_nbr - 1U) >>  8);
 1184              		.loc 1 335 21 view .LVU396
 1185 0036 6174     		strb	r1, [r4, #17]
 336:Middlewares/ST/STM32_USB_Device_Library/Class/MSC/Src/usbd_msc_scsi.c ****   hmsc->bot_data[3] = (uint8_t)(hmsc->scsi_blk_nbr - 1U);
 1186              		.loc 1 336 3 is_stmt 1 view .LVU397
 336:Middlewares/ST/STM32_USB_Device_Library/Class/MSC/Src/usbd_msc_scsi.c ****   hmsc->bot_data[3] = (uint8_t)(hmsc->scsi_blk_nbr - 1U);
 1187              		.loc 1 336 23 is_stmt 0 view .LVU398
 1188 0038 C3F30723 		ubfx	r3, r3, #8, #8
 336:Middlewares/ST/STM32_USB_Device_Library/Class/MSC/Src/usbd_msc_scsi.c ****   hmsc->bot_data[3] = (uint8_t)(hmsc->scsi_blk_nbr - 1U);
 1189              		.loc 1 336 21 view .LVU399
 1190 003c A374     		strb	r3, [r4, #18]
 337:Middlewares/ST/STM32_USB_Device_Library/Class/MSC/Src/usbd_msc_scsi.c **** 
 1191              		.loc 1 337 3 is_stmt 1 view .LVU400
 337:Middlewares/ST/STM32_USB_Device_Library/Class/MSC/Src/usbd_msc_scsi.c **** 
 1192              		.loc 1 337 23 is_stmt 0 view .LVU401
 1193 003e 013A     		subs	r2, r2, #1
 337:Middlewares/ST/STM32_USB_Device_Library/Class/MSC/Src/usbd_msc_scsi.c **** 
 1194              		.loc 1 337 21 view .LVU402
 1195 0040 E274     		strb	r2, [r4, #19]
 339:Middlewares/ST/STM32_USB_Device_Library/Class/MSC/Src/usbd_msc_scsi.c ****   hmsc->bot_data[5] = (uint8_t)(hmsc->scsi_blk_size >>  16);
 1196              		.loc 1 339 3 is_stmt 1 view .LVU403
 339:Middlewares/ST/STM32_USB_Device_Library/Class/MSC/Src/usbd_msc_scsi.c ****   hmsc->bot_data[5] = (uint8_t)(hmsc->scsi_blk_size >>  16);
 1197              		.loc 1 339 37 is_stmt 0 view .LVU404
 1198 0042 B4F86432 		ldrh	r3, [r4, #612]
 339:Middlewares/ST/STM32_USB_Device_Library/Class/MSC/Src/usbd_msc_scsi.c ****   hmsc->bot_data[5] = (uint8_t)(hmsc->scsi_blk_size >>  16);
 1199              		.loc 1 339 23 view .LVU405
 1200 0046 0022     		movs	r2, #0
 339:Middlewares/ST/STM32_USB_Device_Library/Class/MSC/Src/usbd_msc_scsi.c ****   hmsc->bot_data[5] = (uint8_t)(hmsc->scsi_blk_size >>  16);
 1201              		.loc 1 339 21 view .LVU406
 1202 0048 2275     		strb	r2, [r4, #20]
 340:Middlewares/ST/STM32_USB_Device_Library/Class/MSC/Src/usbd_msc_scsi.c ****   hmsc->bot_data[6] = (uint8_t)(hmsc->scsi_blk_size >>  8);
 1203              		.loc 1 340 3 is_stmt 1 view .LVU407
 340:Middlewares/ST/STM32_USB_Device_Library/Class/MSC/Src/usbd_msc_scsi.c ****   hmsc->bot_data[6] = (uint8_t)(hmsc->scsi_blk_size >>  8);
 1204              		.loc 1 340 21 is_stmt 0 view .LVU408
 1205 004a 6275     		strb	r2, [r4, #21]
 341:Middlewares/ST/STM32_USB_Device_Library/Class/MSC/Src/usbd_msc_scsi.c ****   hmsc->bot_data[7] = (uint8_t)(hmsc->scsi_blk_size);
 1206              		.loc 1 341 3 is_stmt 1 view .LVU409
 341:Middlewares/ST/STM32_USB_Device_Library/Class/MSC/Src/usbd_msc_scsi.c ****   hmsc->bot_data[7] = (uint8_t)(hmsc->scsi_blk_size);
 1207              		.loc 1 341 23 is_stmt 0 view .LVU410
 1208 004c 1A0A     		lsrs	r2, r3, #8
 341:Middlewares/ST/STM32_USB_Device_Library/Class/MSC/Src/usbd_msc_scsi.c ****   hmsc->bot_data[7] = (uint8_t)(hmsc->scsi_blk_size);
 1209              		.loc 1 341 21 view .LVU411
 1210 004e A275     		strb	r2, [r4, #22]
 342:Middlewares/ST/STM32_USB_Device_Library/Class/MSC/Src/usbd_msc_scsi.c **** 
 1211              		.loc 1 342 3 is_stmt 1 view .LVU412
 342:Middlewares/ST/STM32_USB_Device_Library/Class/MSC/Src/usbd_msc_scsi.c **** 
 1212              		.loc 1 342 21 is_stmt 0 view .LVU413
 1213 0050 E375     		strb	r3, [r4, #23]
ARM GAS  C:\Users\Admin\AppData\Local\Temp\ccCPzby3.s 			page 49


 344:Middlewares/ST/STM32_USB_Device_Library/Class/MSC/Src/usbd_msc_scsi.c **** 
 1214              		.loc 1 344 3 is_stmt 1 view .LVU414
 344:Middlewares/ST/STM32_USB_Device_Library/Class/MSC/Src/usbd_msc_scsi.c **** 
 1215              		.loc 1 344 25 is_stmt 0 view .LVU415
 1216 0052 0823     		movs	r3, #8
 1217 0054 E360     		str	r3, [r4, #12]
 346:Middlewares/ST/STM32_USB_Device_Library/Class/MSC/Src/usbd_msc_scsi.c **** 
 1218              		.loc 1 346 3 is_stmt 1 view .LVU416
 1219              	.LVL129:
 1220              	.L99:
 348:Middlewares/ST/STM32_USB_Device_Library/Class/MSC/Src/usbd_msc_scsi.c **** 
 1221              		.loc 1 348 1 is_stmt 0 view .LVU417
 1222 0056 70BD     		pop	{r4, r5, r6, pc}
 1223              	.LVL130:
 1224              	.L100:
 330:Middlewares/ST/STM32_USB_Device_Library/Class/MSC/Src/usbd_msc_scsi.c ****     return -1;
 1225              		.loc 1 330 5 is_stmt 1 view .LVU418
 1226 0058 3A23     		movs	r3, #58
 1227 005a 0222     		movs	r2, #2
 1228 005c 3146     		mov	r1, r6
 1229 005e 2846     		mov	r0, r5
 1230              	.LVL131:
 330:Middlewares/ST/STM32_USB_Device_Library/Class/MSC/Src/usbd_msc_scsi.c ****     return -1;
 1231              		.loc 1 330 5 is_stmt 0 view .LVU419
 1232 0060 FFF7FEFF 		bl	SCSI_SenseCode
 1233              	.LVL132:
 331:Middlewares/ST/STM32_USB_Device_Library/Class/MSC/Src/usbd_msc_scsi.c ****   }
 1234              		.loc 1 331 5 is_stmt 1 view .LVU420
 331:Middlewares/ST/STM32_USB_Device_Library/Class/MSC/Src/usbd_msc_scsi.c ****   }
 1235              		.loc 1 331 12 is_stmt 0 view .LVU421
 1236 0064 4FF0FF30 		mov	r0, #-1
 1237 0068 F5E7     		b	.L99
 1238              	.LVL133:
 1239              	.L102:
 323:Middlewares/ST/STM32_USB_Device_Library/Class/MSC/Src/usbd_msc_scsi.c ****   }
 1240              		.loc 1 323 12 view .LVU422
 1241 006a 4FF0FF30 		mov	r0, #-1
 1242              	.LVL134:
 323:Middlewares/ST/STM32_USB_Device_Library/Class/MSC/Src/usbd_msc_scsi.c ****   }
 1243              		.loc 1 323 12 view .LVU423
 1244 006e F2E7     		b	.L99
 1245              		.cfi_endproc
 1246              	.LFE139:
 1248              		.section	.text.SCSI_ReadCapacity16,"ax",%progbits
 1249              		.align	1
 1250              		.syntax unified
 1251              		.thumb
 1252              		.thumb_func
 1253              		.fpu fpv4-sp-d16
 1255              	SCSI_ReadCapacity16:
 1256              	.LVL135:
 1257              	.LFB140:
 359:Middlewares/ST/STM32_USB_Device_Library/Class/MSC/Src/usbd_msc_scsi.c ****   UNUSED(params);
 1258              		.loc 1 359 1 is_stmt 1 view -0
 1259              		.cfi_startproc
 1260              		@ args = 0, pretend = 0, frame = 0
 1261              		@ frame_needed = 0, uses_anonymous_args = 0
ARM GAS  C:\Users\Admin\AppData\Local\Temp\ccCPzby3.s 			page 50


 359:Middlewares/ST/STM32_USB_Device_Library/Class/MSC/Src/usbd_msc_scsi.c ****   UNUSED(params);
 1262              		.loc 1 359 1 is_stmt 0 view .LVU425
 1263 0000 2DE9F041 		push	{r4, r5, r6, r7, r8, lr}
 1264              	.LCFI19:
 1265              		.cfi_def_cfa_offset 24
 1266              		.cfi_offset 4, -24
 1267              		.cfi_offset 5, -20
 1268              		.cfi_offset 6, -16
 1269              		.cfi_offset 7, -12
 1270              		.cfi_offset 8, -8
 1271              		.cfi_offset 14, -4
 360:Middlewares/ST/STM32_USB_Device_Library/Class/MSC/Src/usbd_msc_scsi.c ****   uint8_t idx;
 1272              		.loc 1 360 3 is_stmt 1 view .LVU426
 361:Middlewares/ST/STM32_USB_Device_Library/Class/MSC/Src/usbd_msc_scsi.c ****   int8_t ret;
 1273              		.loc 1 361 3 view .LVU427
 362:Middlewares/ST/STM32_USB_Device_Library/Class/MSC/Src/usbd_msc_scsi.c ****   USBD_MSC_BOT_HandleTypeDef *hmsc = (USBD_MSC_BOT_HandleTypeDef *)pdev->pClassData;
 1274              		.loc 1 362 3 view .LVU428
 363:Middlewares/ST/STM32_USB_Device_Library/Class/MSC/Src/usbd_msc_scsi.c **** 
 1275              		.loc 1 363 3 view .LVU429
 363:Middlewares/ST/STM32_USB_Device_Library/Class/MSC/Src/usbd_msc_scsi.c **** 
 1276              		.loc 1 363 31 is_stmt 0 view .LVU430
 1277 0004 D0F8BC42 		ldr	r4, [r0, #700]
 1278              	.LVL136:
 365:Middlewares/ST/STM32_USB_Device_Library/Class/MSC/Src/usbd_msc_scsi.c ****   {
 1279              		.loc 1 365 3 is_stmt 1 view .LVU431
 365:Middlewares/ST/STM32_USB_Device_Library/Class/MSC/Src/usbd_msc_scsi.c ****   {
 1280              		.loc 1 365 6 is_stmt 0 view .LVU432
 1281 0008 002C     		cmp	r4, #0
 1282 000a 51D0     		beq	.L110
 1283 000c 0646     		mov	r6, r0
 1284 000e 8846     		mov	r8, r1
 1285 0010 1546     		mov	r5, r2
 370:Middlewares/ST/STM32_USB_Device_Library/Class/MSC/Src/usbd_msc_scsi.c **** 
 1286              		.loc 1 370 3 is_stmt 1 view .LVU433
 370:Middlewares/ST/STM32_USB_Device_Library/Class/MSC/Src/usbd_msc_scsi.c **** 
 1287              		.loc 1 370 37 is_stmt 0 view .LVU434
 1288 0012 D0F8C032 		ldr	r3, [r0, #704]
 370:Middlewares/ST/STM32_USB_Device_Library/Class/MSC/Src/usbd_msc_scsi.c **** 
 1289              		.loc 1 370 49 view .LVU435
 1290 0016 5B68     		ldr	r3, [r3, #4]
 370:Middlewares/ST/STM32_USB_Device_Library/Class/MSC/Src/usbd_msc_scsi.c **** 
 1291              		.loc 1 370 10 view .LVU436
 1292 0018 04F51972 		add	r2, r4, #612
 1293              	.LVL137:
 370:Middlewares/ST/STM32_USB_Device_Library/Class/MSC/Src/usbd_msc_scsi.c **** 
 1294              		.loc 1 370 10 view .LVU437
 1295 001c 04F51A71 		add	r1, r4, #616
 1296              	.LVL138:
 370:Middlewares/ST/STM32_USB_Device_Library/Class/MSC/Src/usbd_msc_scsi.c **** 
 1297              		.loc 1 370 10 view .LVU438
 1298 0020 4046     		mov	r0, r8
 1299              	.LVL139:
 370:Middlewares/ST/STM32_USB_Device_Library/Class/MSC/Src/usbd_msc_scsi.c **** 
 1300              		.loc 1 370 10 view .LVU439
 1301 0022 9847     		blx	r3
 1302              	.LVL140:
 372:Middlewares/ST/STM32_USB_Device_Library/Class/MSC/Src/usbd_msc_scsi.c ****   {
ARM GAS  C:\Users\Admin\AppData\Local\Temp\ccCPzby3.s 			page 51


 1303              		.loc 1 372 3 is_stmt 1 view .LVU440
 372:Middlewares/ST/STM32_USB_Device_Library/Class/MSC/Src/usbd_msc_scsi.c ****   {
 1304              		.loc 1 372 6 is_stmt 0 view .LVU441
 1305 0024 0746     		mov	r7, r0
 1306 0026 B8B9     		cbnz	r0, .L106
 372:Middlewares/ST/STM32_USB_Device_Library/Class/MSC/Src/usbd_msc_scsi.c ****   {
 1307              		.loc 1 372 26 discriminator 1 view .LVU442
 1308 0028 94F86232 		ldrb	r3, [r4, #610]	@ zero_extendqisi2
 372:Middlewares/ST/STM32_USB_Device_Library/Class/MSC/Src/usbd_msc_scsi.c ****   {
 1309              		.loc 1 372 18 discriminator 1 view .LVU443
 1310 002c 022B     		cmp	r3, #2
 1311 002e 13D0     		beq	.L106
 378:Middlewares/ST/STM32_USB_Device_Library/Class/MSC/Src/usbd_msc_scsi.c ****                           ((uint32_t)params[11] << 16) |
 1312              		.loc 1 378 3 is_stmt 1 view .LVU444
 378:Middlewares/ST/STM32_USB_Device_Library/Class/MSC/Src/usbd_msc_scsi.c ****                           ((uint32_t)params[11] << 16) |
 1313              		.loc 1 378 44 is_stmt 0 view .LVU445
 1314 0030 AB7A     		ldrb	r3, [r5, #10]	@ zero_extendqisi2
 379:Middlewares/ST/STM32_USB_Device_Library/Class/MSC/Src/usbd_msc_scsi.c ****                           ((uint32_t)params[12] <<  8) |
 1315              		.loc 1 379 44 view .LVU446
 1316 0032 E97A     		ldrb	r1, [r5, #11]	@ zero_extendqisi2
 379:Middlewares/ST/STM32_USB_Device_Library/Class/MSC/Src/usbd_msc_scsi.c ****                           ((uint32_t)params[12] <<  8) |
 1317              		.loc 1 379 49 view .LVU447
 1318 0034 0904     		lsls	r1, r1, #16
 378:Middlewares/ST/STM32_USB_Device_Library/Class/MSC/Src/usbd_msc_scsi.c ****                           ((uint32_t)params[11] << 16) |
 1319              		.loc 1 378 56 view .LVU448
 1320 0036 41EA0361 		orr	r1, r1, r3, lsl #24
 380:Middlewares/ST/STM32_USB_Device_Library/Class/MSC/Src/usbd_msc_scsi.c ****                           (uint32_t)params[13];
 1321              		.loc 1 380 44 view .LVU449
 1322 003a 2B7B     		ldrb	r3, [r5, #12]	@ zero_extendqisi2
 379:Middlewares/ST/STM32_USB_Device_Library/Class/MSC/Src/usbd_msc_scsi.c ****                           ((uint32_t)params[12] <<  8) |
 1323              		.loc 1 379 56 view .LVU450
 1324 003c 41EA0321 		orr	r1, r1, r3, lsl #8
 381:Middlewares/ST/STM32_USB_Device_Library/Class/MSC/Src/usbd_msc_scsi.c **** 
 1325              		.loc 1 381 43 view .LVU451
 1326 0040 6B7B     		ldrb	r3, [r5, #13]	@ zero_extendqisi2
 380:Middlewares/ST/STM32_USB_Device_Library/Class/MSC/Src/usbd_msc_scsi.c ****                           (uint32_t)params[13];
 1327              		.loc 1 380 56 view .LVU452
 1328 0042 1943     		orrs	r1, r1, r3
 378:Middlewares/ST/STM32_USB_Device_Library/Class/MSC/Src/usbd_msc_scsi.c ****                           ((uint32_t)params[11] << 16) |
 1329              		.loc 1 378 25 view .LVU453
 1330 0044 E160     		str	r1, [r4, #12]
 383:Middlewares/ST/STM32_USB_Device_Library/Class/MSC/Src/usbd_msc_scsi.c ****   {
 1331              		.loc 1 383 3 is_stmt 1 view .LVU454
 1332              	.LVL141:
 383:Middlewares/ST/STM32_USB_Device_Library/Class/MSC/Src/usbd_msc_scsi.c ****   {
 1333              		.loc 1 383 12 is_stmt 0 view .LVU455
 1334 0046 0023     		movs	r3, #0
 1335              	.LVL142:
 1336              	.L108:
 383:Middlewares/ST/STM32_USB_Device_Library/Class/MSC/Src/usbd_msc_scsi.c ****   {
 1337              		.loc 1 383 18 is_stmt 1 discriminator 1 view .LVU456
 383:Middlewares/ST/STM32_USB_Device_Library/Class/MSC/Src/usbd_msc_scsi.c ****   {
 1338              		.loc 1 383 3 is_stmt 0 discriminator 1 view .LVU457
 1339 0048 9942     		cmp	r1, r3
 1340 004a 0ED9     		bls	.L112
 385:Middlewares/ST/STM32_USB_Device_Library/Class/MSC/Src/usbd_msc_scsi.c ****   }
 1341              		.loc 1 385 5 is_stmt 1 discriminator 3 view .LVU458
ARM GAS  C:\Users\Admin\AppData\Local\Temp\ccCPzby3.s 			page 52


 385:Middlewares/ST/STM32_USB_Device_Library/Class/MSC/Src/usbd_msc_scsi.c ****   }
 1342              		.loc 1 385 25 is_stmt 0 discriminator 3 view .LVU459
 1343 004c E218     		adds	r2, r4, r3
 1344 004e 0026     		movs	r6, #0
 1345 0050 1674     		strb	r6, [r2, #16]
 383:Middlewares/ST/STM32_USB_Device_Library/Class/MSC/Src/usbd_msc_scsi.c ****   {
 1346              		.loc 1 383 47 is_stmt 1 discriminator 3 view .LVU460
 383:Middlewares/ST/STM32_USB_Device_Library/Class/MSC/Src/usbd_msc_scsi.c ****   {
 1347              		.loc 1 383 50 is_stmt 0 discriminator 3 view .LVU461
 1348 0052 0133     		adds	r3, r3, #1
 1349              	.LVL143:
 383:Middlewares/ST/STM32_USB_Device_Library/Class/MSC/Src/usbd_msc_scsi.c ****   {
 1350              		.loc 1 383 50 discriminator 3 view .LVU462
 1351 0054 DBB2     		uxtb	r3, r3
 1352              	.LVL144:
 383:Middlewares/ST/STM32_USB_Device_Library/Class/MSC/Src/usbd_msc_scsi.c ****   {
 1353              		.loc 1 383 50 discriminator 3 view .LVU463
 1354 0056 F7E7     		b	.L108
 1355              	.LVL145:
 1356              	.L106:
 374:Middlewares/ST/STM32_USB_Device_Library/Class/MSC/Src/usbd_msc_scsi.c ****     return -1;
 1357              		.loc 1 374 5 is_stmt 1 view .LVU464
 1358 0058 3A23     		movs	r3, #58
 1359 005a 0222     		movs	r2, #2
 1360 005c 4146     		mov	r1, r8
 1361 005e 3046     		mov	r0, r6
 1362              	.LVL146:
 374:Middlewares/ST/STM32_USB_Device_Library/Class/MSC/Src/usbd_msc_scsi.c ****     return -1;
 1363              		.loc 1 374 5 is_stmt 0 view .LVU465
 1364 0060 FFF7FEFF 		bl	SCSI_SenseCode
 1365              	.LVL147:
 375:Middlewares/ST/STM32_USB_Device_Library/Class/MSC/Src/usbd_msc_scsi.c ****   }
 1366              		.loc 1 375 5 is_stmt 1 view .LVU466
 375:Middlewares/ST/STM32_USB_Device_Library/Class/MSC/Src/usbd_msc_scsi.c ****   }
 1367              		.loc 1 375 12 is_stmt 0 view .LVU467
 1368 0064 4FF0FF37 		mov	r7, #-1
 1369 0068 1FE0     		b	.L105
 1370              	.LVL148:
 1371              	.L112:
 388:Middlewares/ST/STM32_USB_Device_Library/Class/MSC/Src/usbd_msc_scsi.c ****   hmsc->bot_data[5] = (uint8_t)((hmsc->scsi_blk_nbr - 1U) >> 16);
 1372              		.loc 1 388 3 is_stmt 1 view .LVU468
 388:Middlewares/ST/STM32_USB_Device_Library/Class/MSC/Src/usbd_msc_scsi.c ****   hmsc->bot_data[5] = (uint8_t)((hmsc->scsi_blk_nbr - 1U) >> 16);
 1373              		.loc 1 388 38 is_stmt 0 view .LVU469
 1374 006a D4F86822 		ldr	r2, [r4, #616]
 388:Middlewares/ST/STM32_USB_Device_Library/Class/MSC/Src/usbd_msc_scsi.c ****   hmsc->bot_data[5] = (uint8_t)((hmsc->scsi_blk_nbr - 1U) >> 16);
 1375              		.loc 1 388 53 view .LVU470
 1376 006e 531E     		subs	r3, r2, #1
 1377              	.LVL149:
 388:Middlewares/ST/STM32_USB_Device_Library/Class/MSC/Src/usbd_msc_scsi.c ****   hmsc->bot_data[5] = (uint8_t)((hmsc->scsi_blk_nbr - 1U) >> 16);
 1378              		.loc 1 388 23 view .LVU471
 1379 0070 190E     		lsrs	r1, r3, #24
 388:Middlewares/ST/STM32_USB_Device_Library/Class/MSC/Src/usbd_msc_scsi.c ****   hmsc->bot_data[5] = (uint8_t)((hmsc->scsi_blk_nbr - 1U) >> 16);
 1380              		.loc 1 388 21 view .LVU472
 1381 0072 2175     		strb	r1, [r4, #20]
 389:Middlewares/ST/STM32_USB_Device_Library/Class/MSC/Src/usbd_msc_scsi.c ****   hmsc->bot_data[6] = (uint8_t)((hmsc->scsi_blk_nbr - 1U) >>  8);
 1382              		.loc 1 389 3 is_stmt 1 view .LVU473
 389:Middlewares/ST/STM32_USB_Device_Library/Class/MSC/Src/usbd_msc_scsi.c ****   hmsc->bot_data[6] = (uint8_t)((hmsc->scsi_blk_nbr - 1U) >>  8);
ARM GAS  C:\Users\Admin\AppData\Local\Temp\ccCPzby3.s 			page 53


 1383              		.loc 1 389 23 is_stmt 0 view .LVU474
 1384 0074 C3F30741 		ubfx	r1, r3, #16, #8
 389:Middlewares/ST/STM32_USB_Device_Library/Class/MSC/Src/usbd_msc_scsi.c ****   hmsc->bot_data[6] = (uint8_t)((hmsc->scsi_blk_nbr - 1U) >>  8);
 1385              		.loc 1 389 21 view .LVU475
 1386 0078 6175     		strb	r1, [r4, #21]
 390:Middlewares/ST/STM32_USB_Device_Library/Class/MSC/Src/usbd_msc_scsi.c ****   hmsc->bot_data[7] = (uint8_t)(hmsc->scsi_blk_nbr - 1U);
 1387              		.loc 1 390 3 is_stmt 1 view .LVU476
 390:Middlewares/ST/STM32_USB_Device_Library/Class/MSC/Src/usbd_msc_scsi.c ****   hmsc->bot_data[7] = (uint8_t)(hmsc->scsi_blk_nbr - 1U);
 1388              		.loc 1 390 23 is_stmt 0 view .LVU477
 1389 007a C3F30723 		ubfx	r3, r3, #8, #8
 390:Middlewares/ST/STM32_USB_Device_Library/Class/MSC/Src/usbd_msc_scsi.c ****   hmsc->bot_data[7] = (uint8_t)(hmsc->scsi_blk_nbr - 1U);
 1390              		.loc 1 390 21 view .LVU478
 1391 007e A375     		strb	r3, [r4, #22]
 391:Middlewares/ST/STM32_USB_Device_Library/Class/MSC/Src/usbd_msc_scsi.c **** 
 1392              		.loc 1 391 3 is_stmt 1 view .LVU479
 391:Middlewares/ST/STM32_USB_Device_Library/Class/MSC/Src/usbd_msc_scsi.c **** 
 1393              		.loc 1 391 23 is_stmt 0 view .LVU480
 1394 0080 013A     		subs	r2, r2, #1
 391:Middlewares/ST/STM32_USB_Device_Library/Class/MSC/Src/usbd_msc_scsi.c **** 
 1395              		.loc 1 391 21 view .LVU481
 1396 0082 E275     		strb	r2, [r4, #23]
 393:Middlewares/ST/STM32_USB_Device_Library/Class/MSC/Src/usbd_msc_scsi.c ****   hmsc->bot_data[9] = (uint8_t)(hmsc->scsi_blk_size >>  16);
 1397              		.loc 1 393 3 is_stmt 1 view .LVU482
 393:Middlewares/ST/STM32_USB_Device_Library/Class/MSC/Src/usbd_msc_scsi.c ****   hmsc->bot_data[9] = (uint8_t)(hmsc->scsi_blk_size >>  16);
 1398              		.loc 1 393 37 is_stmt 0 view .LVU483
 1399 0084 B4F86432 		ldrh	r3, [r4, #612]
 393:Middlewares/ST/STM32_USB_Device_Library/Class/MSC/Src/usbd_msc_scsi.c ****   hmsc->bot_data[9] = (uint8_t)(hmsc->scsi_blk_size >>  16);
 1400              		.loc 1 393 23 view .LVU484
 1401 0088 0022     		movs	r2, #0
 393:Middlewares/ST/STM32_USB_Device_Library/Class/MSC/Src/usbd_msc_scsi.c ****   hmsc->bot_data[9] = (uint8_t)(hmsc->scsi_blk_size >>  16);
 1402              		.loc 1 393 21 view .LVU485
 1403 008a 2276     		strb	r2, [r4, #24]
 394:Middlewares/ST/STM32_USB_Device_Library/Class/MSC/Src/usbd_msc_scsi.c ****   hmsc->bot_data[10] = (uint8_t)(hmsc->scsi_blk_size >>  8);
 1404              		.loc 1 394 3 is_stmt 1 view .LVU486
 394:Middlewares/ST/STM32_USB_Device_Library/Class/MSC/Src/usbd_msc_scsi.c ****   hmsc->bot_data[10] = (uint8_t)(hmsc->scsi_blk_size >>  8);
 1405              		.loc 1 394 21 is_stmt 0 view .LVU487
 1406 008c 6276     		strb	r2, [r4, #25]
 395:Middlewares/ST/STM32_USB_Device_Library/Class/MSC/Src/usbd_msc_scsi.c ****   hmsc->bot_data[11] = (uint8_t)(hmsc->scsi_blk_size);
 1407              		.loc 1 395 3 is_stmt 1 view .LVU488
 395:Middlewares/ST/STM32_USB_Device_Library/Class/MSC/Src/usbd_msc_scsi.c ****   hmsc->bot_data[11] = (uint8_t)(hmsc->scsi_blk_size);
 1408              		.loc 1 395 24 is_stmt 0 view .LVU489
 1409 008e 1A0A     		lsrs	r2, r3, #8
 395:Middlewares/ST/STM32_USB_Device_Library/Class/MSC/Src/usbd_msc_scsi.c ****   hmsc->bot_data[11] = (uint8_t)(hmsc->scsi_blk_size);
 1410              		.loc 1 395 22 view .LVU490
 1411 0090 A276     		strb	r2, [r4, #26]
 396:Middlewares/ST/STM32_USB_Device_Library/Class/MSC/Src/usbd_msc_scsi.c **** 
 1412              		.loc 1 396 3 is_stmt 1 view .LVU491
 396:Middlewares/ST/STM32_USB_Device_Library/Class/MSC/Src/usbd_msc_scsi.c **** 
 1413              		.loc 1 396 22 is_stmt 0 view .LVU492
 1414 0092 E376     		strb	r3, [r4, #27]
 398:Middlewares/ST/STM32_USB_Device_Library/Class/MSC/Src/usbd_msc_scsi.c ****                           ((uint32_t)params[11] << 16) |
 1415              		.loc 1 398 3 is_stmt 1 view .LVU493
 398:Middlewares/ST/STM32_USB_Device_Library/Class/MSC/Src/usbd_msc_scsi.c ****                           ((uint32_t)params[11] << 16) |
 1416              		.loc 1 398 44 is_stmt 0 view .LVU494
 1417 0094 AA7A     		ldrb	r2, [r5, #10]	@ zero_extendqisi2
 399:Middlewares/ST/STM32_USB_Device_Library/Class/MSC/Src/usbd_msc_scsi.c ****                           ((uint32_t)params[12] <<  8) |
 1418              		.loc 1 399 44 view .LVU495
ARM GAS  C:\Users\Admin\AppData\Local\Temp\ccCPzby3.s 			page 54


 1419 0096 EB7A     		ldrb	r3, [r5, #11]	@ zero_extendqisi2
 399:Middlewares/ST/STM32_USB_Device_Library/Class/MSC/Src/usbd_msc_scsi.c ****                           ((uint32_t)params[12] <<  8) |
 1420              		.loc 1 399 49 view .LVU496
 1421 0098 1B04     		lsls	r3, r3, #16
 398:Middlewares/ST/STM32_USB_Device_Library/Class/MSC/Src/usbd_msc_scsi.c ****                           ((uint32_t)params[11] << 16) |
 1422              		.loc 1 398 56 view .LVU497
 1423 009a 43EA0263 		orr	r3, r3, r2, lsl #24
 400:Middlewares/ST/STM32_USB_Device_Library/Class/MSC/Src/usbd_msc_scsi.c ****                           (uint32_t)params[13];
 1424              		.loc 1 400 44 view .LVU498
 1425 009e 2A7B     		ldrb	r2, [r5, #12]	@ zero_extendqisi2
 399:Middlewares/ST/STM32_USB_Device_Library/Class/MSC/Src/usbd_msc_scsi.c ****                           ((uint32_t)params[12] <<  8) |
 1426              		.loc 1 399 56 view .LVU499
 1427 00a0 43EA0223 		orr	r3, r3, r2, lsl #8
 401:Middlewares/ST/STM32_USB_Device_Library/Class/MSC/Src/usbd_msc_scsi.c **** 
 1428              		.loc 1 401 43 view .LVU500
 1429 00a4 6A7B     		ldrb	r2, [r5, #13]	@ zero_extendqisi2
 400:Middlewares/ST/STM32_USB_Device_Library/Class/MSC/Src/usbd_msc_scsi.c ****                           (uint32_t)params[13];
 1430              		.loc 1 400 56 view .LVU501
 1431 00a6 1343     		orrs	r3, r3, r2
 398:Middlewares/ST/STM32_USB_Device_Library/Class/MSC/Src/usbd_msc_scsi.c ****                           ((uint32_t)params[11] << 16) |
 1432              		.loc 1 398 25 view .LVU502
 1433 00a8 E360     		str	r3, [r4, #12]
 403:Middlewares/ST/STM32_USB_Device_Library/Class/MSC/Src/usbd_msc_scsi.c **** }
 1434              		.loc 1 403 3 is_stmt 1 view .LVU503
 1435              	.LVL150:
 1436              	.L105:
 404:Middlewares/ST/STM32_USB_Device_Library/Class/MSC/Src/usbd_msc_scsi.c **** 
 1437              		.loc 1 404 1 is_stmt 0 view .LVU504
 1438 00aa 3846     		mov	r0, r7
 1439 00ac BDE8F081 		pop	{r4, r5, r6, r7, r8, pc}
 1440              	.LVL151:
 1441              	.L110:
 367:Middlewares/ST/STM32_USB_Device_Library/Class/MSC/Src/usbd_msc_scsi.c ****   }
 1442              		.loc 1 367 12 view .LVU505
 1443 00b0 4FF0FF37 		mov	r7, #-1
 1444 00b4 F9E7     		b	.L105
 1445              		.cfi_endproc
 1446              	.LFE140:
 1448              		.section	.text.SCSI_CheckAddressRange,"ax",%progbits
 1449              		.align	1
 1450              		.syntax unified
 1451              		.thumb
 1452              		.thumb_func
 1453              		.fpu fpv4-sp-d16
 1455              	SCSI_CheckAddressRange:
 1456              	.LVL152:
 1457              	.LFB153:
1031:Middlewares/ST/STM32_USB_Device_Library/Class/MSC/Src/usbd_msc_scsi.c ****   USBD_MSC_BOT_HandleTypeDef *hmsc = (USBD_MSC_BOT_HandleTypeDef *)pdev->pClassData;
 1458              		.loc 1 1031 1 is_stmt 1 view -0
 1459              		.cfi_startproc
 1460              		@ args = 0, pretend = 0, frame = 0
 1461              		@ frame_needed = 0, uses_anonymous_args = 0
1031:Middlewares/ST/STM32_USB_Device_Library/Class/MSC/Src/usbd_msc_scsi.c ****   USBD_MSC_BOT_HandleTypeDef *hmsc = (USBD_MSC_BOT_HandleTypeDef *)pdev->pClassData;
 1462              		.loc 1 1031 1 is_stmt 0 view .LVU507
 1463 0000 10B5     		push	{r4, lr}
 1464              	.LCFI20:
 1465              		.cfi_def_cfa_offset 8
ARM GAS  C:\Users\Admin\AppData\Local\Temp\ccCPzby3.s 			page 55


 1466              		.cfi_offset 4, -8
 1467              		.cfi_offset 14, -4
1032:Middlewares/ST/STM32_USB_Device_Library/Class/MSC/Src/usbd_msc_scsi.c **** 
 1468              		.loc 1 1032 3 is_stmt 1 view .LVU508
1032:Middlewares/ST/STM32_USB_Device_Library/Class/MSC/Src/usbd_msc_scsi.c **** 
 1469              		.loc 1 1032 31 is_stmt 0 view .LVU509
 1470 0002 D0F8BC42 		ldr	r4, [r0, #700]
 1471              	.LVL153:
1034:Middlewares/ST/STM32_USB_Device_Library/Class/MSC/Src/usbd_msc_scsi.c ****   {
 1472              		.loc 1 1034 3 is_stmt 1 view .LVU510
1034:Middlewares/ST/STM32_USB_Device_Library/Class/MSC/Src/usbd_msc_scsi.c ****   {
 1473              		.loc 1 1034 6 is_stmt 0 view .LVU511
 1474 0006 6CB1     		cbz	r4, .L115
1039:Middlewares/ST/STM32_USB_Device_Library/Class/MSC/Src/usbd_msc_scsi.c ****   {
 1475              		.loc 1 1039 3 is_stmt 1 view .LVU512
1039:Middlewares/ST/STM32_USB_Device_Library/Class/MSC/Src/usbd_msc_scsi.c ****   {
 1476              		.loc 1 1039 19 is_stmt 0 view .LVU513
 1477 0008 1A44     		add	r2, r2, r3
 1478              	.LVL154:
1039:Middlewares/ST/STM32_USB_Device_Library/Class/MSC/Src/usbd_msc_scsi.c ****   {
 1479              		.loc 1 1039 36 view .LVU514
 1480 000a D4F86832 		ldr	r3, [r4, #616]
 1481              	.LVL155:
1039:Middlewares/ST/STM32_USB_Device_Library/Class/MSC/Src/usbd_msc_scsi.c ****   {
 1482              		.loc 1 1039 6 view .LVU515
 1483 000e 9A42     		cmp	r2, r3
 1484 0010 01D8     		bhi	.L118
1045:Middlewares/ST/STM32_USB_Device_Library/Class/MSC/Src/usbd_msc_scsi.c **** }
 1485              		.loc 1 1045 10 view .LVU516
 1486 0012 0020     		movs	r0, #0
 1487              	.LVL156:
 1488              	.L114:
1046:Middlewares/ST/STM32_USB_Device_Library/Class/MSC/Src/usbd_msc_scsi.c **** 
 1489              		.loc 1 1046 1 view .LVU517
 1490 0014 10BD     		pop	{r4, pc}
 1491              	.LVL157:
 1492              	.L118:
1041:Middlewares/ST/STM32_USB_Device_Library/Class/MSC/Src/usbd_msc_scsi.c ****     return -1;
 1493              		.loc 1 1041 5 is_stmt 1 view .LVU518
 1494 0016 2123     		movs	r3, #33
 1495 0018 0522     		movs	r2, #5
 1496 001a FFF7FEFF 		bl	SCSI_SenseCode
 1497              	.LVL158:
1042:Middlewares/ST/STM32_USB_Device_Library/Class/MSC/Src/usbd_msc_scsi.c ****   }
 1498              		.loc 1 1042 5 view .LVU519
1042:Middlewares/ST/STM32_USB_Device_Library/Class/MSC/Src/usbd_msc_scsi.c ****   }
 1499              		.loc 1 1042 12 is_stmt 0 view .LVU520
 1500 001e 4FF0FF30 		mov	r0, #-1
 1501 0022 F7E7     		b	.L114
 1502              	.LVL159:
 1503              	.L115:
1036:Middlewares/ST/STM32_USB_Device_Library/Class/MSC/Src/usbd_msc_scsi.c ****   }
 1504              		.loc 1 1036 12 view .LVU521
 1505 0024 4FF0FF30 		mov	r0, #-1
 1506              	.LVL160:
1036:Middlewares/ST/STM32_USB_Device_Library/Class/MSC/Src/usbd_msc_scsi.c ****   }
 1507              		.loc 1 1036 12 view .LVU522
ARM GAS  C:\Users\Admin\AppData\Local\Temp\ccCPzby3.s 			page 56


 1508 0028 F4E7     		b	.L114
 1509              		.cfi_endproc
 1510              	.LFE153:
 1512              		.section	.text.SCSI_ProcessRead,"ax",%progbits
 1513              		.align	1
 1514              		.syntax unified
 1515              		.thumb
 1516              		.thumb_func
 1517              		.fpu fpv4-sp-d16
 1519              	SCSI_ProcessRead:
 1520              	.LVL161:
 1521              	.LFB154:
1055:Middlewares/ST/STM32_USB_Device_Library/Class/MSC/Src/usbd_msc_scsi.c ****   USBD_MSC_BOT_HandleTypeDef *hmsc = (USBD_MSC_BOT_HandleTypeDef *)pdev->pClassData;
 1522              		.loc 1 1055 1 is_stmt 1 view -0
 1523              		.cfi_startproc
 1524              		@ args = 0, pretend = 0, frame = 0
 1525              		@ frame_needed = 0, uses_anonymous_args = 0
1055:Middlewares/ST/STM32_USB_Device_Library/Class/MSC/Src/usbd_msc_scsi.c ****   USBD_MSC_BOT_HandleTypeDef *hmsc = (USBD_MSC_BOT_HandleTypeDef *)pdev->pClassData;
 1526              		.loc 1 1055 1 is_stmt 0 view .LVU524
 1527 0000 2DE9F843 		push	{r3, r4, r5, r6, r7, r8, r9, lr}
 1528              	.LCFI21:
 1529              		.cfi_def_cfa_offset 32
 1530              		.cfi_offset 3, -32
 1531              		.cfi_offset 4, -28
 1532              		.cfi_offset 5, -24
 1533              		.cfi_offset 6, -20
 1534              		.cfi_offset 7, -16
 1535              		.cfi_offset 8, -12
 1536              		.cfi_offset 9, -8
 1537              		.cfi_offset 14, -4
1056:Middlewares/ST/STM32_USB_Device_Library/Class/MSC/Src/usbd_msc_scsi.c ****   uint32_t len = hmsc->scsi_blk_len * hmsc->scsi_blk_size;
 1538              		.loc 1 1056 3 is_stmt 1 view .LVU525
1056:Middlewares/ST/STM32_USB_Device_Library/Class/MSC/Src/usbd_msc_scsi.c ****   uint32_t len = hmsc->scsi_blk_len * hmsc->scsi_blk_size;
 1539              		.loc 1 1056 31 is_stmt 0 view .LVU526
 1540 0004 D0F8BC42 		ldr	r4, [r0, #700]
 1541              	.LVL162:
1057:Middlewares/ST/STM32_USB_Device_Library/Class/MSC/Src/usbd_msc_scsi.c **** 
 1542              		.loc 1 1057 3 is_stmt 1 view .LVU527
1057:Middlewares/ST/STM32_USB_Device_Library/Class/MSC/Src/usbd_msc_scsi.c **** 
 1543              		.loc 1 1057 22 is_stmt 0 view .LVU528
 1544 0008 D4F87052 		ldr	r5, [r4, #624]
1057:Middlewares/ST/STM32_USB_Device_Library/Class/MSC/Src/usbd_msc_scsi.c **** 
 1545              		.loc 1 1057 43 view .LVU529
 1546 000c B4F86432 		ldrh	r3, [r4, #612]
1057:Middlewares/ST/STM32_USB_Device_Library/Class/MSC/Src/usbd_msc_scsi.c **** 
 1547              		.loc 1 1057 12 view .LVU530
 1548 0010 03FB05F5 		mul	r5, r3, r5
 1549              	.LVL163:
1059:Middlewares/ST/STM32_USB_Device_Library/Class/MSC/Src/usbd_msc_scsi.c ****   {
 1550              		.loc 1 1059 3 is_stmt 1 view .LVU531
1059:Middlewares/ST/STM32_USB_Device_Library/Class/MSC/Src/usbd_msc_scsi.c ****   {
 1551              		.loc 1 1059 6 is_stmt 0 view .LVU532
 1552 0014 002C     		cmp	r4, #0
 1553 0016 3ED0     		beq	.L122
 1554 0018 0646     		mov	r6, r0
 1555 001a 0F46     		mov	r7, r1
1064:Middlewares/ST/STM32_USB_Device_Library/Class/MSC/Src/usbd_msc_scsi.c **** 
ARM GAS  C:\Users\Admin\AppData\Local\Temp\ccCPzby3.s 			page 57


 1556              		.loc 1 1064 3 is_stmt 1 view .LVU533
1064:Middlewares/ST/STM32_USB_Device_Library/Class/MSC/Src/usbd_msc_scsi.c **** 
 1557              		.loc 1 1064 7 is_stmt 0 view .LVU534
 1558 001c B5F5007F 		cmp	r5, #512
 1559 0020 28BF     		it	cs
 1560 0022 4FF40075 		movcs	r5, #512
 1561              	.LVL164:
1066:Middlewares/ST/STM32_USB_Device_Library/Class/MSC/Src/usbd_msc_scsi.c ****                                                      hmsc->scsi_blk_addr,
 1562              		.loc 1 1066 3 is_stmt 1 view .LVU535
1066:Middlewares/ST/STM32_USB_Device_Library/Class/MSC/Src/usbd_msc_scsi.c ****                                                      hmsc->scsi_blk_addr,
 1563              		.loc 1 1066 35 is_stmt 0 view .LVU536
 1564 0026 D0F8C022 		ldr	r2, [r0, #704]
1066:Middlewares/ST/STM32_USB_Device_Library/Class/MSC/Src/usbd_msc_scsi.c ****                                                      hmsc->scsi_blk_addr,
 1565              		.loc 1 1066 47 view .LVU537
 1566 002a D2F81090 		ldr	r9, [r2, #16]
1066:Middlewares/ST/STM32_USB_Device_Library/Class/MSC/Src/usbd_msc_scsi.c ****                                                      hmsc->scsi_blk_addr,
 1567              		.loc 1 1066 63 view .LVU538
 1568 002e 04F11008 		add	r8, r4, #16
1068:Middlewares/ST/STM32_USB_Device_Library/Class/MSC/Src/usbd_msc_scsi.c ****   {
 1569              		.loc 1 1068 59 view .LVU539
 1570 0032 B5FBF3F3 		udiv	r3, r5, r3
1066:Middlewares/ST/STM32_USB_Device_Library/Class/MSC/Src/usbd_msc_scsi.c ****                                                      hmsc->scsi_blk_addr,
 1571              		.loc 1 1066 8 view .LVU540
 1572 0036 9BB2     		uxth	r3, r3
 1573 0038 D4F86C22 		ldr	r2, [r4, #620]
 1574 003c 4146     		mov	r1, r8
 1575              	.LVL165:
1066:Middlewares/ST/STM32_USB_Device_Library/Class/MSC/Src/usbd_msc_scsi.c ****                                                      hmsc->scsi_blk_addr,
 1576              		.loc 1 1066 8 view .LVU541
 1577 003e 3846     		mov	r0, r7
 1578              	.LVL166:
1066:Middlewares/ST/STM32_USB_Device_Library/Class/MSC/Src/usbd_msc_scsi.c ****                                                      hmsc->scsi_blk_addr,
 1579              		.loc 1 1066 8 view .LVU542
 1580 0040 C847     		blx	r9
 1581              	.LVL167:
1066:Middlewares/ST/STM32_USB_Device_Library/Class/MSC/Src/usbd_msc_scsi.c ****                                                      hmsc->scsi_blk_addr,
 1582              		.loc 1 1066 6 view .LVU543
 1583 0042 0028     		cmp	r0, #0
 1584 0044 1EDB     		blt	.L125
1074:Middlewares/ST/STM32_USB_Device_Library/Class/MSC/Src/usbd_msc_scsi.c **** 
 1585              		.loc 1 1074 3 is_stmt 1 view .LVU544
1074:Middlewares/ST/STM32_USB_Device_Library/Class/MSC/Src/usbd_msc_scsi.c **** 
 1586              		.loc 1 1074 9 is_stmt 0 view .LVU545
 1587 0046 2B46     		mov	r3, r5
 1588 0048 4246     		mov	r2, r8
 1589 004a 8121     		movs	r1, #129
 1590 004c 3046     		mov	r0, r6
 1591 004e FFF7FEFF 		bl	USBD_LL_Transmit
 1592              	.LVL168:
1076:Middlewares/ST/STM32_USB_Device_Library/Class/MSC/Src/usbd_msc_scsi.c ****   hmsc->scsi_blk_len -= (len / hmsc->scsi_blk_size);
 1593              		.loc 1 1076 3 is_stmt 1 view .LVU546
1076:Middlewares/ST/STM32_USB_Device_Library/Class/MSC/Src/usbd_msc_scsi.c ****   hmsc->scsi_blk_len -= (len / hmsc->scsi_blk_size);
 1594              		.loc 1 1076 37 is_stmt 0 view .LVU547
 1595 0052 B4F86432 		ldrh	r3, [r4, #612]
1076:Middlewares/ST/STM32_USB_Device_Library/Class/MSC/Src/usbd_msc_scsi.c ****   hmsc->scsi_blk_len -= (len / hmsc->scsi_blk_size);
 1596              		.loc 1 1076 31 view .LVU548
 1597 0056 B5FBF3F2 		udiv	r2, r5, r3
ARM GAS  C:\Users\Admin\AppData\Local\Temp\ccCPzby3.s 			page 58


1076:Middlewares/ST/STM32_USB_Device_Library/Class/MSC/Src/usbd_msc_scsi.c ****   hmsc->scsi_blk_len -= (len / hmsc->scsi_blk_size);
 1598              		.loc 1 1076 23 view .LVU549
 1599 005a D4F86C32 		ldr	r3, [r4, #620]
 1600 005e 1344     		add	r3, r3, r2
 1601 0060 C4F86C32 		str	r3, [r4, #620]
1077:Middlewares/ST/STM32_USB_Device_Library/Class/MSC/Src/usbd_msc_scsi.c **** 
 1602              		.loc 1 1077 3 is_stmt 1 view .LVU550
1077:Middlewares/ST/STM32_USB_Device_Library/Class/MSC/Src/usbd_msc_scsi.c **** 
 1603              		.loc 1 1077 22 is_stmt 0 view .LVU551
 1604 0064 D4F87032 		ldr	r3, [r4, #624]
 1605 0068 9B1A     		subs	r3, r3, r2
 1606 006a C4F87032 		str	r3, [r4, #624]
1080:Middlewares/ST/STM32_USB_Device_Library/Class/MSC/Src/usbd_msc_scsi.c **** 
 1607              		.loc 1 1080 3 is_stmt 1 view .LVU552
1080:Middlewares/ST/STM32_USB_Device_Library/Class/MSC/Src/usbd_msc_scsi.c **** 
 1608              		.loc 1 1080 26 is_stmt 0 view .LVU553
 1609 006e D4F83822 		ldr	r2, [r4, #568]
 1610 0072 551B     		subs	r5, r2, r5
 1611              	.LVL169:
1080:Middlewares/ST/STM32_USB_Device_Library/Class/MSC/Src/usbd_msc_scsi.c **** 
 1612              		.loc 1 1080 26 view .LVU554
 1613 0074 C4F83852 		str	r5, [r4, #568]
1082:Middlewares/ST/STM32_USB_Device_Library/Class/MSC/Src/usbd_msc_scsi.c ****   {
 1614              		.loc 1 1082 3 is_stmt 1 view .LVU555
1082:Middlewares/ST/STM32_USB_Device_Library/Class/MSC/Src/usbd_msc_scsi.c ****   {
 1615              		.loc 1 1082 6 is_stmt 0 view .LVU556
 1616 0078 83B9     		cbnz	r3, .L123
1084:Middlewares/ST/STM32_USB_Device_Library/Class/MSC/Src/usbd_msc_scsi.c ****   }
 1617              		.loc 1 1084 5 is_stmt 1 view .LVU557
1084:Middlewares/ST/STM32_USB_Device_Library/Class/MSC/Src/usbd_msc_scsi.c ****   }
 1618              		.loc 1 1084 21 is_stmt 0 view .LVU558
 1619 007a 0323     		movs	r3, #3
 1620 007c 2372     		strb	r3, [r4, #8]
1087:Middlewares/ST/STM32_USB_Device_Library/Class/MSC/Src/usbd_msc_scsi.c **** }
 1621              		.loc 1 1087 10 view .LVU559
 1622 007e 0020     		movs	r0, #0
 1623              	.LVL170:
 1624              	.L120:
1088:Middlewares/ST/STM32_USB_Device_Library/Class/MSC/Src/usbd_msc_scsi.c **** 
 1625              		.loc 1 1088 1 view .LVU560
 1626 0080 BDE8F883 		pop	{r3, r4, r5, r6, r7, r8, r9, pc}
 1627              	.LVL171:
 1628              	.L125:
1070:Middlewares/ST/STM32_USB_Device_Library/Class/MSC/Src/usbd_msc_scsi.c ****     return -1;
 1629              		.loc 1 1070 5 is_stmt 1 view .LVU561
 1630 0084 1123     		movs	r3, #17
 1631 0086 0422     		movs	r2, #4
 1632 0088 3946     		mov	r1, r7
 1633 008a 3046     		mov	r0, r6
 1634 008c FFF7FEFF 		bl	SCSI_SenseCode
 1635              	.LVL172:
1071:Middlewares/ST/STM32_USB_Device_Library/Class/MSC/Src/usbd_msc_scsi.c ****   }
 1636              		.loc 1 1071 5 view .LVU562
1071:Middlewares/ST/STM32_USB_Device_Library/Class/MSC/Src/usbd_msc_scsi.c ****   }
 1637              		.loc 1 1071 12 is_stmt 0 view .LVU563
 1638 0090 4FF0FF30 		mov	r0, #-1
 1639 0094 F4E7     		b	.L120
ARM GAS  C:\Users\Admin\AppData\Local\Temp\ccCPzby3.s 			page 59


 1640              	.LVL173:
 1641              	.L122:
1061:Middlewares/ST/STM32_USB_Device_Library/Class/MSC/Src/usbd_msc_scsi.c ****   }
 1642              		.loc 1 1061 12 view .LVU564
 1643 0096 4FF0FF30 		mov	r0, #-1
 1644              	.LVL174:
1061:Middlewares/ST/STM32_USB_Device_Library/Class/MSC/Src/usbd_msc_scsi.c ****   }
 1645              		.loc 1 1061 12 view .LVU565
 1646 009a F1E7     		b	.L120
 1647              	.LVL175:
 1648              	.L123:
1087:Middlewares/ST/STM32_USB_Device_Library/Class/MSC/Src/usbd_msc_scsi.c **** }
 1649              		.loc 1 1087 10 view .LVU566
 1650 009c 0020     		movs	r0, #0
 1651 009e EFE7     		b	.L120
 1652              		.cfi_endproc
 1653              	.LFE154:
 1655              		.section	.text.SCSI_Read10,"ax",%progbits
 1656              		.align	1
 1657              		.syntax unified
 1658              		.thumb
 1659              		.thumb_func
 1660              		.fpu fpv4-sp-d16
 1662              	SCSI_Read10:
 1663              	.LVL176:
 1664              	.LFB148:
 689:Middlewares/ST/STM32_USB_Device_Library/Class/MSC/Src/usbd_msc_scsi.c ****   USBD_MSC_BOT_HandleTypeDef *hmsc = (USBD_MSC_BOT_HandleTypeDef *)pdev->pClassData;
 1665              		.loc 1 689 1 is_stmt 1 view -0
 1666              		.cfi_startproc
 1667              		@ args = 0, pretend = 0, frame = 0
 1668              		@ frame_needed = 0, uses_anonymous_args = 0
 689:Middlewares/ST/STM32_USB_Device_Library/Class/MSC/Src/usbd_msc_scsi.c ****   USBD_MSC_BOT_HandleTypeDef *hmsc = (USBD_MSC_BOT_HandleTypeDef *)pdev->pClassData;
 1669              		.loc 1 689 1 is_stmt 0 view .LVU568
 1670 0000 F8B5     		push	{r3, r4, r5, r6, r7, lr}
 1671              	.LCFI22:
 1672              		.cfi_def_cfa_offset 24
 1673              		.cfi_offset 3, -24
 1674              		.cfi_offset 4, -20
 1675              		.cfi_offset 5, -16
 1676              		.cfi_offset 6, -12
 1677              		.cfi_offset 7, -8
 1678              		.cfi_offset 14, -4
 690:Middlewares/ST/STM32_USB_Device_Library/Class/MSC/Src/usbd_msc_scsi.c **** 
 1679              		.loc 1 690 3 is_stmt 1 view .LVU569
 690:Middlewares/ST/STM32_USB_Device_Library/Class/MSC/Src/usbd_msc_scsi.c **** 
 1680              		.loc 1 690 31 is_stmt 0 view .LVU570
 1681 0002 D0F8BC42 		ldr	r4, [r0, #700]
 1682              	.LVL177:
 692:Middlewares/ST/STM32_USB_Device_Library/Class/MSC/Src/usbd_msc_scsi.c ****   {
 1683              		.loc 1 692 3 is_stmt 1 view .LVU571
 692:Middlewares/ST/STM32_USB_Device_Library/Class/MSC/Src/usbd_msc_scsi.c ****   {
 1684              		.loc 1 692 6 is_stmt 0 view .LVU572
 1685 0006 002C     		cmp	r4, #0
 1686 0008 62D0     		beq	.L133
 1687 000a 0646     		mov	r6, r0
 1688 000c 0F46     		mov	r7, r1
 1689 000e 1546     		mov	r5, r2
ARM GAS  C:\Users\Admin\AppData\Local\Temp\ccCPzby3.s 			page 60


 697:Middlewares/ST/STM32_USB_Device_Library/Class/MSC/Src/usbd_msc_scsi.c ****   {
 1690              		.loc 1 697 3 is_stmt 1 view .LVU573
 697:Middlewares/ST/STM32_USB_Device_Library/Class/MSC/Src/usbd_msc_scsi.c ****   {
 1691              		.loc 1 697 11 is_stmt 0 view .LVU574
 1692 0010 237A     		ldrb	r3, [r4, #8]	@ zero_extendqisi2
 697:Middlewares/ST/STM32_USB_Device_Library/Class/MSC/Src/usbd_msc_scsi.c ****   {
 1693              		.loc 1 697 6 view .LVU575
 1694 0012 93BB     		cbnz	r3, .L128
 700:Middlewares/ST/STM32_USB_Device_Library/Class/MSC/Src/usbd_msc_scsi.c ****     {
 1695              		.loc 1 700 5 is_stmt 1 view .LVU576
 700:Middlewares/ST/STM32_USB_Device_Library/Class/MSC/Src/usbd_msc_scsi.c ****     {
 1696              		.loc 1 700 37 is_stmt 0 view .LVU577
 1697 0014 94F91C32 		ldrsb	r3, [r4, #540]
 700:Middlewares/ST/STM32_USB_Device_Library/Class/MSC/Src/usbd_msc_scsi.c ****     {
 1698              		.loc 1 700 8 view .LVU578
 1699 0018 002B     		cmp	r3, #0
 1700 001a 36DA     		bge	.L136
 706:Middlewares/ST/STM32_USB_Device_Library/Class/MSC/Src/usbd_msc_scsi.c ****     {
 1701              		.loc 1 706 5 is_stmt 1 view .LVU579
 706:Middlewares/ST/STM32_USB_Device_Library/Class/MSC/Src/usbd_msc_scsi.c ****     {
 1702              		.loc 1 706 13 is_stmt 0 view .LVU580
 1703 001c 94F86232 		ldrb	r3, [r4, #610]	@ zero_extendqisi2
 706:Middlewares/ST/STM32_USB_Device_Library/Class/MSC/Src/usbd_msc_scsi.c ****     {
 1704              		.loc 1 706 8 view .LVU581
 1705 0020 022B     		cmp	r3, #2
 1706 0022 3BD0     		beq	.L137
 713:Middlewares/ST/STM32_USB_Device_Library/Class/MSC/Src/usbd_msc_scsi.c ****     {
 1707              		.loc 1 713 5 is_stmt 1 view .LVU582
 713:Middlewares/ST/STM32_USB_Device_Library/Class/MSC/Src/usbd_msc_scsi.c ****     {
 1708              		.loc 1 713 37 is_stmt 0 view .LVU583
 1709 0024 D0F8C032 		ldr	r3, [r0, #704]
 713:Middlewares/ST/STM32_USB_Device_Library/Class/MSC/Src/usbd_msc_scsi.c ****     {
 1710              		.loc 1 713 49 view .LVU584
 1711 0028 9B68     		ldr	r3, [r3, #8]
 713:Middlewares/ST/STM32_USB_Device_Library/Class/MSC/Src/usbd_msc_scsi.c ****     {
 1712              		.loc 1 713 10 view .LVU585
 1713 002a 0846     		mov	r0, r1
 1714              	.LVL178:
 713:Middlewares/ST/STM32_USB_Device_Library/Class/MSC/Src/usbd_msc_scsi.c ****     {
 1715              		.loc 1 713 10 view .LVU586
 1716 002c 9847     		blx	r3
 1717              	.LVL179:
 713:Middlewares/ST/STM32_USB_Device_Library/Class/MSC/Src/usbd_msc_scsi.c ****     {
 1718              		.loc 1 713 8 view .LVU587
 1719 002e 0028     		cmp	r0, #0
 1720 0030 3BD1     		bne	.L138
 719:Middlewares/ST/STM32_USB_Device_Library/Class/MSC/Src/usbd_msc_scsi.c ****                           ((uint32_t)params[3] << 16) |
 1721              		.loc 1 719 5 is_stmt 1 view .LVU588
 719:Middlewares/ST/STM32_USB_Device_Library/Class/MSC/Src/usbd_msc_scsi.c ****                           ((uint32_t)params[3] << 16) |
 1722              		.loc 1 719 44 is_stmt 0 view .LVU589
 1723 0032 AA78     		ldrb	r2, [r5, #2]	@ zero_extendqisi2
 720:Middlewares/ST/STM32_USB_Device_Library/Class/MSC/Src/usbd_msc_scsi.c ****                           ((uint32_t)params[4] <<  8) |
 1724              		.loc 1 720 44 view .LVU590
 1725 0034 EB78     		ldrb	r3, [r5, #3]	@ zero_extendqisi2
 720:Middlewares/ST/STM32_USB_Device_Library/Class/MSC/Src/usbd_msc_scsi.c ****                           ((uint32_t)params[4] <<  8) |
 1726              		.loc 1 720 48 view .LVU591
 1727 0036 1B04     		lsls	r3, r3, #16
ARM GAS  C:\Users\Admin\AppData\Local\Temp\ccCPzby3.s 			page 61


 719:Middlewares/ST/STM32_USB_Device_Library/Class/MSC/Src/usbd_msc_scsi.c ****                           ((uint32_t)params[3] << 16) |
 1728              		.loc 1 719 55 view .LVU592
 1729 0038 43EA0263 		orr	r3, r3, r2, lsl #24
 721:Middlewares/ST/STM32_USB_Device_Library/Class/MSC/Src/usbd_msc_scsi.c ****                           (uint32_t)params[5];
 1730              		.loc 1 721 44 view .LVU593
 1731 003c 2A79     		ldrb	r2, [r5, #4]	@ zero_extendqisi2
 720:Middlewares/ST/STM32_USB_Device_Library/Class/MSC/Src/usbd_msc_scsi.c ****                           ((uint32_t)params[4] <<  8) |
 1732              		.loc 1 720 55 view .LVU594
 1733 003e 43EA0223 		orr	r3, r3, r2, lsl #8
 722:Middlewares/ST/STM32_USB_Device_Library/Class/MSC/Src/usbd_msc_scsi.c **** 
 1734              		.loc 1 722 43 view .LVU595
 1735 0042 6A79     		ldrb	r2, [r5, #5]	@ zero_extendqisi2
 721:Middlewares/ST/STM32_USB_Device_Library/Class/MSC/Src/usbd_msc_scsi.c ****                           (uint32_t)params[5];
 1736              		.loc 1 721 55 view .LVU596
 1737 0044 1A43     		orrs	r2, r2, r3
 719:Middlewares/ST/STM32_USB_Device_Library/Class/MSC/Src/usbd_msc_scsi.c ****                           ((uint32_t)params[3] << 16) |
 1738              		.loc 1 719 25 view .LVU597
 1739 0046 C4F86C22 		str	r2, [r4, #620]
 724:Middlewares/ST/STM32_USB_Device_Library/Class/MSC/Src/usbd_msc_scsi.c **** 
 1740              		.loc 1 724 5 is_stmt 1 view .LVU598
 724:Middlewares/ST/STM32_USB_Device_Library/Class/MSC/Src/usbd_msc_scsi.c **** 
 1741              		.loc 1 724 43 is_stmt 0 view .LVU599
 1742 004a E979     		ldrb	r1, [r5, #7]	@ zero_extendqisi2
 724:Middlewares/ST/STM32_USB_Device_Library/Class/MSC/Src/usbd_msc_scsi.c **** 
 1743              		.loc 1 724 72 view .LVU600
 1744 004c 2B7A     		ldrb	r3, [r5, #8]	@ zero_extendqisi2
 724:Middlewares/ST/STM32_USB_Device_Library/Class/MSC/Src/usbd_msc_scsi.c **** 
 1745              		.loc 1 724 54 view .LVU601
 1746 004e 43EA0123 		orr	r3, r3, r1, lsl #8
 724:Middlewares/ST/STM32_USB_Device_Library/Class/MSC/Src/usbd_msc_scsi.c **** 
 1747              		.loc 1 724 24 view .LVU602
 1748 0052 C4F87032 		str	r3, [r4, #624]
 726:Middlewares/ST/STM32_USB_Device_Library/Class/MSC/Src/usbd_msc_scsi.c ****                                hmsc->scsi_blk_len) < 0)
 1749              		.loc 1 726 5 is_stmt 1 view .LVU603
 726:Middlewares/ST/STM32_USB_Device_Library/Class/MSC/Src/usbd_msc_scsi.c ****                                hmsc->scsi_blk_len) < 0)
 1750              		.loc 1 726 9 is_stmt 0 view .LVU604
 1751 0056 3946     		mov	r1, r7
 1752 0058 3046     		mov	r0, r6
 1753 005a FFF7FEFF 		bl	SCSI_CheckAddressRange
 1754              	.LVL180:
 726:Middlewares/ST/STM32_USB_Device_Library/Class/MSC/Src/usbd_msc_scsi.c ****                                hmsc->scsi_blk_len) < 0)
 1755              		.loc 1 726 8 view .LVU605
 1756 005e 0028     		cmp	r0, #0
 1757 0060 39DB     		blt	.L134
 733:Middlewares/ST/STM32_USB_Device_Library/Class/MSC/Src/usbd_msc_scsi.c ****     {
 1758              		.loc 1 733 5 is_stmt 1 view .LVU606
 733:Middlewares/ST/STM32_USB_Device_Library/Class/MSC/Src/usbd_msc_scsi.c ****     {
 1759              		.loc 1 733 18 is_stmt 0 view .LVU607
 1760 0062 D4F81822 		ldr	r2, [r4, #536]
 733:Middlewares/ST/STM32_USB_Device_Library/Class/MSC/Src/usbd_msc_scsi.c ****     {
 1761              		.loc 1 733 39 view .LVU608
 1762 0066 D4F87012 		ldr	r1, [r4, #624]
 733:Middlewares/ST/STM32_USB_Device_Library/Class/MSC/Src/usbd_msc_scsi.c ****     {
 1763              		.loc 1 733 60 view .LVU609
 1764 006a B4F86432 		ldrh	r3, [r4, #612]
 733:Middlewares/ST/STM32_USB_Device_Library/Class/MSC/Src/usbd_msc_scsi.c ****     {
 1765              		.loc 1 733 54 view .LVU610
ARM GAS  C:\Users\Admin\AppData\Local\Temp\ccCPzby3.s 			page 62


 1766 006e 03FB01F3 		mul	r3, r3, r1
 733:Middlewares/ST/STM32_USB_Device_Library/Class/MSC/Src/usbd_msc_scsi.c ****     {
 1767              		.loc 1 733 8 view .LVU611
 1768 0072 9A42     		cmp	r2, r3
 1769 0074 22D1     		bne	.L139
 739:Middlewares/ST/STM32_USB_Device_Library/Class/MSC/Src/usbd_msc_scsi.c ****   }
 1770              		.loc 1 739 5 is_stmt 1 view .LVU612
 739:Middlewares/ST/STM32_USB_Device_Library/Class/MSC/Src/usbd_msc_scsi.c ****   }
 1771              		.loc 1 739 21 is_stmt 0 view .LVU613
 1772 0076 0223     		movs	r3, #2
 1773 0078 2372     		strb	r3, [r4, #8]
 1774              	.L128:
 741:Middlewares/ST/STM32_USB_Device_Library/Class/MSC/Src/usbd_msc_scsi.c **** 
 1775              		.loc 1 741 3 is_stmt 1 view .LVU614
 741:Middlewares/ST/STM32_USB_Device_Library/Class/MSC/Src/usbd_msc_scsi.c **** 
 1776              		.loc 1 741 25 is_stmt 0 view .LVU615
 1777 007a 4FF40073 		mov	r3, #512
 1778 007e E360     		str	r3, [r4, #12]
 743:Middlewares/ST/STM32_USB_Device_Library/Class/MSC/Src/usbd_msc_scsi.c **** }
 1779              		.loc 1 743 3 is_stmt 1 view .LVU616
 743:Middlewares/ST/STM32_USB_Device_Library/Class/MSC/Src/usbd_msc_scsi.c **** }
 1780              		.loc 1 743 10 is_stmt 0 view .LVU617
 1781 0080 3946     		mov	r1, r7
 1782 0082 3046     		mov	r0, r6
 1783 0084 FFF7FEFF 		bl	SCSI_ProcessRead
 1784              	.LVL181:
 1785              	.L127:
 744:Middlewares/ST/STM32_USB_Device_Library/Class/MSC/Src/usbd_msc_scsi.c **** 
 1786              		.loc 1 744 1 view .LVU618
 1787 0088 F8BD     		pop	{r3, r4, r5, r6, r7, pc}
 1788              	.LVL182:
 1789              	.L136:
 702:Middlewares/ST/STM32_USB_Device_Library/Class/MSC/Src/usbd_msc_scsi.c ****       return -1;
 1790              		.loc 1 702 7 is_stmt 1 view .LVU619
 1791 008a 2023     		movs	r3, #32
 1792 008c 0522     		movs	r2, #5
 1793              	.LVL183:
 702:Middlewares/ST/STM32_USB_Device_Library/Class/MSC/Src/usbd_msc_scsi.c ****       return -1;
 1794              		.loc 1 702 7 is_stmt 0 view .LVU620
 1795 008e 94F81D12 		ldrb	r1, [r4, #541]	@ zero_extendqisi2
 1796              	.LVL184:
 702:Middlewares/ST/STM32_USB_Device_Library/Class/MSC/Src/usbd_msc_scsi.c ****       return -1;
 1797              		.loc 1 702 7 view .LVU621
 1798 0092 FFF7FEFF 		bl	SCSI_SenseCode
 1799              	.LVL185:
 703:Middlewares/ST/STM32_USB_Device_Library/Class/MSC/Src/usbd_msc_scsi.c ****     }
 1800              		.loc 1 703 7 is_stmt 1 view .LVU622
 703:Middlewares/ST/STM32_USB_Device_Library/Class/MSC/Src/usbd_msc_scsi.c ****     }
 1801              		.loc 1 703 14 is_stmt 0 view .LVU623
 1802 0096 4FF0FF30 		mov	r0, #-1
 1803 009a F5E7     		b	.L127
 1804              	.LVL186:
 1805              	.L137:
 708:Middlewares/ST/STM32_USB_Device_Library/Class/MSC/Src/usbd_msc_scsi.c **** 
 1806              		.loc 1 708 7 is_stmt 1 view .LVU624
 1807 009c 3A23     		movs	r3, #58
 1808 009e 0222     		movs	r2, #2
ARM GAS  C:\Users\Admin\AppData\Local\Temp\ccCPzby3.s 			page 63


 1809              	.LVL187:
 708:Middlewares/ST/STM32_USB_Device_Library/Class/MSC/Src/usbd_msc_scsi.c **** 
 1810              		.loc 1 708 7 is_stmt 0 view .LVU625
 1811 00a0 FFF7FEFF 		bl	SCSI_SenseCode
 1812              	.LVL188:
 710:Middlewares/ST/STM32_USB_Device_Library/Class/MSC/Src/usbd_msc_scsi.c ****     }
 1813              		.loc 1 710 7 is_stmt 1 view .LVU626
 710:Middlewares/ST/STM32_USB_Device_Library/Class/MSC/Src/usbd_msc_scsi.c ****     }
 1814              		.loc 1 710 14 is_stmt 0 view .LVU627
 1815 00a4 4FF0FF30 		mov	r0, #-1
 1816 00a8 EEE7     		b	.L127
 1817              	.L138:
 715:Middlewares/ST/STM32_USB_Device_Library/Class/MSC/Src/usbd_msc_scsi.c ****       return -1;
 1818              		.loc 1 715 7 is_stmt 1 view .LVU628
 1819 00aa 3A23     		movs	r3, #58
 1820 00ac 0222     		movs	r2, #2
 1821 00ae 3946     		mov	r1, r7
 1822 00b0 3046     		mov	r0, r6
 1823 00b2 FFF7FEFF 		bl	SCSI_SenseCode
 1824              	.LVL189:
 716:Middlewares/ST/STM32_USB_Device_Library/Class/MSC/Src/usbd_msc_scsi.c ****     }
 1825              		.loc 1 716 7 view .LVU629
 716:Middlewares/ST/STM32_USB_Device_Library/Class/MSC/Src/usbd_msc_scsi.c ****     }
 1826              		.loc 1 716 14 is_stmt 0 view .LVU630
 1827 00b6 4FF0FF30 		mov	r0, #-1
 1828 00ba E5E7     		b	.L127
 1829              	.L139:
 735:Middlewares/ST/STM32_USB_Device_Library/Class/MSC/Src/usbd_msc_scsi.c ****       return -1;
 1830              		.loc 1 735 7 is_stmt 1 view .LVU631
 1831 00bc 2023     		movs	r3, #32
 1832 00be 0522     		movs	r2, #5
 1833 00c0 94F81D12 		ldrb	r1, [r4, #541]	@ zero_extendqisi2
 1834 00c4 3046     		mov	r0, r6
 1835 00c6 FFF7FEFF 		bl	SCSI_SenseCode
 1836              	.LVL190:
 736:Middlewares/ST/STM32_USB_Device_Library/Class/MSC/Src/usbd_msc_scsi.c ****     }
 1837              		.loc 1 736 7 view .LVU632
 736:Middlewares/ST/STM32_USB_Device_Library/Class/MSC/Src/usbd_msc_scsi.c ****     }
 1838              		.loc 1 736 14 is_stmt 0 view .LVU633
 1839 00ca 4FF0FF30 		mov	r0, #-1
 1840 00ce DBE7     		b	.L127
 1841              	.LVL191:
 1842              	.L133:
 694:Middlewares/ST/STM32_USB_Device_Library/Class/MSC/Src/usbd_msc_scsi.c ****   }
 1843              		.loc 1 694 12 view .LVU634
 1844 00d0 4FF0FF30 		mov	r0, #-1
 1845              	.LVL192:
 694:Middlewares/ST/STM32_USB_Device_Library/Class/MSC/Src/usbd_msc_scsi.c ****   }
 1846              		.loc 1 694 12 view .LVU635
 1847 00d4 D8E7     		b	.L127
 1848              	.LVL193:
 1849              	.L134:
 729:Middlewares/ST/STM32_USB_Device_Library/Class/MSC/Src/usbd_msc_scsi.c ****     }
 1850              		.loc 1 729 14 view .LVU636
 1851 00d6 4FF0FF30 		mov	r0, #-1
 1852 00da D5E7     		b	.L127
 1853              		.cfi_endproc
ARM GAS  C:\Users\Admin\AppData\Local\Temp\ccCPzby3.s 			page 64


 1854              	.LFE148:
 1856              		.section	.text.SCSI_Read12,"ax",%progbits
 1857              		.align	1
 1858              		.syntax unified
 1859              		.thumb
 1860              		.thumb_func
 1861              		.fpu fpv4-sp-d16
 1863              	SCSI_Read12:
 1864              	.LVL194:
 1865              	.LFB149:
 755:Middlewares/ST/STM32_USB_Device_Library/Class/MSC/Src/usbd_msc_scsi.c ****   USBD_MSC_BOT_HandleTypeDef *hmsc = (USBD_MSC_BOT_HandleTypeDef *)pdev->pClassData;
 1866              		.loc 1 755 1 is_stmt 1 view -0
 1867              		.cfi_startproc
 1868              		@ args = 0, pretend = 0, frame = 0
 1869              		@ frame_needed = 0, uses_anonymous_args = 0
 755:Middlewares/ST/STM32_USB_Device_Library/Class/MSC/Src/usbd_msc_scsi.c ****   USBD_MSC_BOT_HandleTypeDef *hmsc = (USBD_MSC_BOT_HandleTypeDef *)pdev->pClassData;
 1870              		.loc 1 755 1 is_stmt 0 view .LVU638
 1871 0000 F8B5     		push	{r3, r4, r5, r6, r7, lr}
 1872              	.LCFI23:
 1873              		.cfi_def_cfa_offset 24
 1874              		.cfi_offset 3, -24
 1875              		.cfi_offset 4, -20
 1876              		.cfi_offset 5, -16
 1877              		.cfi_offset 6, -12
 1878              		.cfi_offset 7, -8
 1879              		.cfi_offset 14, -4
 756:Middlewares/ST/STM32_USB_Device_Library/Class/MSC/Src/usbd_msc_scsi.c **** 
 1880              		.loc 1 756 3 is_stmt 1 view .LVU639
 756:Middlewares/ST/STM32_USB_Device_Library/Class/MSC/Src/usbd_msc_scsi.c **** 
 1881              		.loc 1 756 31 is_stmt 0 view .LVU640
 1882 0002 D0F8BC42 		ldr	r4, [r0, #700]
 1883              	.LVL195:
 758:Middlewares/ST/STM32_USB_Device_Library/Class/MSC/Src/usbd_msc_scsi.c ****   {
 1884              		.loc 1 758 3 is_stmt 1 view .LVU641
 758:Middlewares/ST/STM32_USB_Device_Library/Class/MSC/Src/usbd_msc_scsi.c ****   {
 1885              		.loc 1 758 6 is_stmt 0 view .LVU642
 1886 0006 002C     		cmp	r4, #0
 1887 0008 69D0     		beq	.L147
 1888 000a 0646     		mov	r6, r0
 1889 000c 0F46     		mov	r7, r1
 1890 000e 1546     		mov	r5, r2
 763:Middlewares/ST/STM32_USB_Device_Library/Class/MSC/Src/usbd_msc_scsi.c ****   {
 1891              		.loc 1 763 3 is_stmt 1 view .LVU643
 763:Middlewares/ST/STM32_USB_Device_Library/Class/MSC/Src/usbd_msc_scsi.c ****   {
 1892              		.loc 1 763 11 is_stmt 0 view .LVU644
 1893 0010 237A     		ldrb	r3, [r4, #8]	@ zero_extendqisi2
 763:Middlewares/ST/STM32_USB_Device_Library/Class/MSC/Src/usbd_msc_scsi.c ****   {
 1894              		.loc 1 763 6 view .LVU645
 1895 0012 002B     		cmp	r3, #0
 1896 0014 38D1     		bne	.L142
 766:Middlewares/ST/STM32_USB_Device_Library/Class/MSC/Src/usbd_msc_scsi.c ****     {
 1897              		.loc 1 766 5 is_stmt 1 view .LVU646
 766:Middlewares/ST/STM32_USB_Device_Library/Class/MSC/Src/usbd_msc_scsi.c ****     {
 1898              		.loc 1 766 37 is_stmt 0 view .LVU647
 1899 0016 94F91C32 		ldrsb	r3, [r4, #540]
 766:Middlewares/ST/STM32_USB_Device_Library/Class/MSC/Src/usbd_msc_scsi.c ****     {
 1900              		.loc 1 766 8 view .LVU648
ARM GAS  C:\Users\Admin\AppData\Local\Temp\ccCPzby3.s 			page 65


 1901 001a 002B     		cmp	r3, #0
 1902 001c 3CDA     		bge	.L150
 772:Middlewares/ST/STM32_USB_Device_Library/Class/MSC/Src/usbd_msc_scsi.c ****     {
 1903              		.loc 1 772 5 is_stmt 1 view .LVU649
 772:Middlewares/ST/STM32_USB_Device_Library/Class/MSC/Src/usbd_msc_scsi.c ****     {
 1904              		.loc 1 772 13 is_stmt 0 view .LVU650
 1905 001e 94F86232 		ldrb	r3, [r4, #610]	@ zero_extendqisi2
 772:Middlewares/ST/STM32_USB_Device_Library/Class/MSC/Src/usbd_msc_scsi.c ****     {
 1906              		.loc 1 772 8 view .LVU651
 1907 0022 022B     		cmp	r3, #2
 1908 0024 41D0     		beq	.L151
 778:Middlewares/ST/STM32_USB_Device_Library/Class/MSC/Src/usbd_msc_scsi.c ****     {
 1909              		.loc 1 778 5 is_stmt 1 view .LVU652
 778:Middlewares/ST/STM32_USB_Device_Library/Class/MSC/Src/usbd_msc_scsi.c ****     {
 1910              		.loc 1 778 37 is_stmt 0 view .LVU653
 1911 0026 D0F8C032 		ldr	r3, [r0, #704]
 778:Middlewares/ST/STM32_USB_Device_Library/Class/MSC/Src/usbd_msc_scsi.c ****     {
 1912              		.loc 1 778 49 view .LVU654
 1913 002a 9B68     		ldr	r3, [r3, #8]
 778:Middlewares/ST/STM32_USB_Device_Library/Class/MSC/Src/usbd_msc_scsi.c ****     {
 1914              		.loc 1 778 10 view .LVU655
 1915 002c 0846     		mov	r0, r1
 1916              	.LVL196:
 778:Middlewares/ST/STM32_USB_Device_Library/Class/MSC/Src/usbd_msc_scsi.c ****     {
 1917              		.loc 1 778 10 view .LVU656
 1918 002e 9847     		blx	r3
 1919              	.LVL197:
 778:Middlewares/ST/STM32_USB_Device_Library/Class/MSC/Src/usbd_msc_scsi.c ****     {
 1920              		.loc 1 778 8 view .LVU657
 1921 0030 0028     		cmp	r0, #0
 1922 0032 41D1     		bne	.L152
 784:Middlewares/ST/STM32_USB_Device_Library/Class/MSC/Src/usbd_msc_scsi.c ****                           ((uint32_t)params[3] << 16) |
 1923              		.loc 1 784 5 is_stmt 1 view .LVU658
 784:Middlewares/ST/STM32_USB_Device_Library/Class/MSC/Src/usbd_msc_scsi.c ****                           ((uint32_t)params[3] << 16) |
 1924              		.loc 1 784 44 is_stmt 0 view .LVU659
 1925 0034 AB78     		ldrb	r3, [r5, #2]	@ zero_extendqisi2
 785:Middlewares/ST/STM32_USB_Device_Library/Class/MSC/Src/usbd_msc_scsi.c ****                           ((uint32_t)params[4] <<  8) |
 1926              		.loc 1 785 44 view .LVU660
 1927 0036 EA78     		ldrb	r2, [r5, #3]	@ zero_extendqisi2
 785:Middlewares/ST/STM32_USB_Device_Library/Class/MSC/Src/usbd_msc_scsi.c ****                           ((uint32_t)params[4] <<  8) |
 1928              		.loc 1 785 48 view .LVU661
 1929 0038 1204     		lsls	r2, r2, #16
 784:Middlewares/ST/STM32_USB_Device_Library/Class/MSC/Src/usbd_msc_scsi.c ****                           ((uint32_t)params[3] << 16) |
 1930              		.loc 1 784 55 view .LVU662
 1931 003a 42EA0362 		orr	r2, r2, r3, lsl #24
 786:Middlewares/ST/STM32_USB_Device_Library/Class/MSC/Src/usbd_msc_scsi.c ****                           (uint32_t)params[5];
 1932              		.loc 1 786 44 view .LVU663
 1933 003e 2B79     		ldrb	r3, [r5, #4]	@ zero_extendqisi2
 785:Middlewares/ST/STM32_USB_Device_Library/Class/MSC/Src/usbd_msc_scsi.c ****                           ((uint32_t)params[4] <<  8) |
 1934              		.loc 1 785 55 view .LVU664
 1935 0040 42EA0322 		orr	r2, r2, r3, lsl #8
 787:Middlewares/ST/STM32_USB_Device_Library/Class/MSC/Src/usbd_msc_scsi.c **** 
 1936              		.loc 1 787 43 view .LVU665
 1937 0044 6B79     		ldrb	r3, [r5, #5]	@ zero_extendqisi2
 786:Middlewares/ST/STM32_USB_Device_Library/Class/MSC/Src/usbd_msc_scsi.c ****                           (uint32_t)params[5];
 1938              		.loc 1 786 55 view .LVU666
 1939 0046 1A43     		orrs	r2, r2, r3
ARM GAS  C:\Users\Admin\AppData\Local\Temp\ccCPzby3.s 			page 66


 784:Middlewares/ST/STM32_USB_Device_Library/Class/MSC/Src/usbd_msc_scsi.c ****                           ((uint32_t)params[3] << 16) |
 1940              		.loc 1 784 25 view .LVU667
 1941 0048 C4F86C22 		str	r2, [r4, #620]
 789:Middlewares/ST/STM32_USB_Device_Library/Class/MSC/Src/usbd_msc_scsi.c ****                          ((uint32_t)params[7] << 16) |
 1942              		.loc 1 789 5 is_stmt 1 view .LVU668
 789:Middlewares/ST/STM32_USB_Device_Library/Class/MSC/Src/usbd_msc_scsi.c ****                          ((uint32_t)params[7] << 16) |
 1943              		.loc 1 789 43 is_stmt 0 view .LVU669
 1944 004c A979     		ldrb	r1, [r5, #6]	@ zero_extendqisi2
 790:Middlewares/ST/STM32_USB_Device_Library/Class/MSC/Src/usbd_msc_scsi.c ****                          ((uint32_t)params[8] << 8) |
 1945              		.loc 1 790 43 view .LVU670
 1946 004e EB79     		ldrb	r3, [r5, #7]	@ zero_extendqisi2
 790:Middlewares/ST/STM32_USB_Device_Library/Class/MSC/Src/usbd_msc_scsi.c ****                          ((uint32_t)params[8] << 8) |
 1947              		.loc 1 790 47 view .LVU671
 1948 0050 1B04     		lsls	r3, r3, #16
 789:Middlewares/ST/STM32_USB_Device_Library/Class/MSC/Src/usbd_msc_scsi.c ****                          ((uint32_t)params[7] << 16) |
 1949              		.loc 1 789 54 view .LVU672
 1950 0052 43EA0163 		orr	r3, r3, r1, lsl #24
 791:Middlewares/ST/STM32_USB_Device_Library/Class/MSC/Src/usbd_msc_scsi.c ****                          (uint32_t)params[9];
 1951              		.loc 1 791 43 view .LVU673
 1952 0056 297A     		ldrb	r1, [r5, #8]	@ zero_extendqisi2
 790:Middlewares/ST/STM32_USB_Device_Library/Class/MSC/Src/usbd_msc_scsi.c ****                          ((uint32_t)params[8] << 8) |
 1953              		.loc 1 790 54 view .LVU674
 1954 0058 43EA0123 		orr	r3, r3, r1, lsl #8
 792:Middlewares/ST/STM32_USB_Device_Library/Class/MSC/Src/usbd_msc_scsi.c **** 
 1955              		.loc 1 792 42 view .LVU675
 1956 005c 697A     		ldrb	r1, [r5, #9]	@ zero_extendqisi2
 791:Middlewares/ST/STM32_USB_Device_Library/Class/MSC/Src/usbd_msc_scsi.c ****                          (uint32_t)params[9];
 1957              		.loc 1 791 53 view .LVU676
 1958 005e 0B43     		orrs	r3, r3, r1
 789:Middlewares/ST/STM32_USB_Device_Library/Class/MSC/Src/usbd_msc_scsi.c ****                          ((uint32_t)params[7] << 16) |
 1959              		.loc 1 789 24 view .LVU677
 1960 0060 C4F87032 		str	r3, [r4, #624]
 794:Middlewares/ST/STM32_USB_Device_Library/Class/MSC/Src/usbd_msc_scsi.c ****                                hmsc->scsi_blk_len) < 0)
 1961              		.loc 1 794 5 is_stmt 1 view .LVU678
 794:Middlewares/ST/STM32_USB_Device_Library/Class/MSC/Src/usbd_msc_scsi.c ****                                hmsc->scsi_blk_len) < 0)
 1962              		.loc 1 794 9 is_stmt 0 view .LVU679
 1963 0064 3946     		mov	r1, r7
 1964 0066 3046     		mov	r0, r6
 1965 0068 FFF7FEFF 		bl	SCSI_CheckAddressRange
 1966              	.LVL198:
 794:Middlewares/ST/STM32_USB_Device_Library/Class/MSC/Src/usbd_msc_scsi.c ****                                hmsc->scsi_blk_len) < 0)
 1967              		.loc 1 794 8 view .LVU680
 1968 006c 0028     		cmp	r0, #0
 1969 006e 39DB     		blt	.L148
 801:Middlewares/ST/STM32_USB_Device_Library/Class/MSC/Src/usbd_msc_scsi.c ****     {
 1970              		.loc 1 801 5 is_stmt 1 view .LVU681
 801:Middlewares/ST/STM32_USB_Device_Library/Class/MSC/Src/usbd_msc_scsi.c ****     {
 1971              		.loc 1 801 18 is_stmt 0 view .LVU682
 1972 0070 D4F81822 		ldr	r2, [r4, #536]
 801:Middlewares/ST/STM32_USB_Device_Library/Class/MSC/Src/usbd_msc_scsi.c ****     {
 1973              		.loc 1 801 39 view .LVU683
 1974 0074 D4F87012 		ldr	r1, [r4, #624]
 801:Middlewares/ST/STM32_USB_Device_Library/Class/MSC/Src/usbd_msc_scsi.c ****     {
 1975              		.loc 1 801 60 view .LVU684
 1976 0078 B4F86432 		ldrh	r3, [r4, #612]
 801:Middlewares/ST/STM32_USB_Device_Library/Class/MSC/Src/usbd_msc_scsi.c ****     {
 1977              		.loc 1 801 54 view .LVU685
ARM GAS  C:\Users\Admin\AppData\Local\Temp\ccCPzby3.s 			page 67


 1978 007c 03FB01F3 		mul	r3, r3, r1
 801:Middlewares/ST/STM32_USB_Device_Library/Class/MSC/Src/usbd_msc_scsi.c ****     {
 1979              		.loc 1 801 8 view .LVU686
 1980 0080 9A42     		cmp	r2, r3
 1981 0082 22D1     		bne	.L153
 807:Middlewares/ST/STM32_USB_Device_Library/Class/MSC/Src/usbd_msc_scsi.c ****   }
 1982              		.loc 1 807 5 is_stmt 1 view .LVU687
 807:Middlewares/ST/STM32_USB_Device_Library/Class/MSC/Src/usbd_msc_scsi.c ****   }
 1983              		.loc 1 807 21 is_stmt 0 view .LVU688
 1984 0084 0223     		movs	r3, #2
 1985 0086 2372     		strb	r3, [r4, #8]
 1986              	.L142:
 809:Middlewares/ST/STM32_USB_Device_Library/Class/MSC/Src/usbd_msc_scsi.c **** 
 1987              		.loc 1 809 3 is_stmt 1 view .LVU689
 809:Middlewares/ST/STM32_USB_Device_Library/Class/MSC/Src/usbd_msc_scsi.c **** 
 1988              		.loc 1 809 25 is_stmt 0 view .LVU690
 1989 0088 4FF40073 		mov	r3, #512
 1990 008c E360     		str	r3, [r4, #12]
 811:Middlewares/ST/STM32_USB_Device_Library/Class/MSC/Src/usbd_msc_scsi.c **** }
 1991              		.loc 1 811 3 is_stmt 1 view .LVU691
 811:Middlewares/ST/STM32_USB_Device_Library/Class/MSC/Src/usbd_msc_scsi.c **** }
 1992              		.loc 1 811 10 is_stmt 0 view .LVU692
 1993 008e 3946     		mov	r1, r7
 1994 0090 3046     		mov	r0, r6
 1995 0092 FFF7FEFF 		bl	SCSI_ProcessRead
 1996              	.LVL199:
 1997              	.L141:
 812:Middlewares/ST/STM32_USB_Device_Library/Class/MSC/Src/usbd_msc_scsi.c **** 
 1998              		.loc 1 812 1 view .LVU693
 1999 0096 F8BD     		pop	{r3, r4, r5, r6, r7, pc}
 2000              	.LVL200:
 2001              	.L150:
 768:Middlewares/ST/STM32_USB_Device_Library/Class/MSC/Src/usbd_msc_scsi.c ****       return -1;
 2002              		.loc 1 768 7 is_stmt 1 view .LVU694
 2003 0098 2023     		movs	r3, #32
 2004 009a 0522     		movs	r2, #5
 2005              	.LVL201:
 768:Middlewares/ST/STM32_USB_Device_Library/Class/MSC/Src/usbd_msc_scsi.c ****       return -1;
 2006              		.loc 1 768 7 is_stmt 0 view .LVU695
 2007 009c 94F81D12 		ldrb	r1, [r4, #541]	@ zero_extendqisi2
 2008              	.LVL202:
 768:Middlewares/ST/STM32_USB_Device_Library/Class/MSC/Src/usbd_msc_scsi.c ****       return -1;
 2009              		.loc 1 768 7 view .LVU696
 2010 00a0 FFF7FEFF 		bl	SCSI_SenseCode
 2011              	.LVL203:
 769:Middlewares/ST/STM32_USB_Device_Library/Class/MSC/Src/usbd_msc_scsi.c ****     }
 2012              		.loc 1 769 7 is_stmt 1 view .LVU697
 769:Middlewares/ST/STM32_USB_Device_Library/Class/MSC/Src/usbd_msc_scsi.c ****     }
 2013              		.loc 1 769 14 is_stmt 0 view .LVU698
 2014 00a4 4FF0FF30 		mov	r0, #-1
 2015 00a8 F5E7     		b	.L141
 2016              	.LVL204:
 2017              	.L151:
 774:Middlewares/ST/STM32_USB_Device_Library/Class/MSC/Src/usbd_msc_scsi.c ****       return -1;
 2018              		.loc 1 774 7 is_stmt 1 view .LVU699
 2019 00aa 3A23     		movs	r3, #58
 2020 00ac 0222     		movs	r2, #2
ARM GAS  C:\Users\Admin\AppData\Local\Temp\ccCPzby3.s 			page 68


 2021              	.LVL205:
 774:Middlewares/ST/STM32_USB_Device_Library/Class/MSC/Src/usbd_msc_scsi.c ****       return -1;
 2022              		.loc 1 774 7 is_stmt 0 view .LVU700
 2023 00ae FFF7FEFF 		bl	SCSI_SenseCode
 2024              	.LVL206:
 775:Middlewares/ST/STM32_USB_Device_Library/Class/MSC/Src/usbd_msc_scsi.c ****     }
 2025              		.loc 1 775 7 is_stmt 1 view .LVU701
 775:Middlewares/ST/STM32_USB_Device_Library/Class/MSC/Src/usbd_msc_scsi.c ****     }
 2026              		.loc 1 775 14 is_stmt 0 view .LVU702
 2027 00b2 4FF0FF30 		mov	r0, #-1
 2028 00b6 EEE7     		b	.L141
 2029              	.L152:
 780:Middlewares/ST/STM32_USB_Device_Library/Class/MSC/Src/usbd_msc_scsi.c ****       return -1;
 2030              		.loc 1 780 7 is_stmt 1 view .LVU703
 2031 00b8 3A23     		movs	r3, #58
 2032 00ba 0222     		movs	r2, #2
 2033 00bc 3946     		mov	r1, r7
 2034 00be 3046     		mov	r0, r6
 2035 00c0 FFF7FEFF 		bl	SCSI_SenseCode
 2036              	.LVL207:
 781:Middlewares/ST/STM32_USB_Device_Library/Class/MSC/Src/usbd_msc_scsi.c ****     }
 2037              		.loc 1 781 7 view .LVU704
 781:Middlewares/ST/STM32_USB_Device_Library/Class/MSC/Src/usbd_msc_scsi.c ****     }
 2038              		.loc 1 781 14 is_stmt 0 view .LVU705
 2039 00c4 4FF0FF30 		mov	r0, #-1
 2040 00c8 E5E7     		b	.L141
 2041              	.L153:
 803:Middlewares/ST/STM32_USB_Device_Library/Class/MSC/Src/usbd_msc_scsi.c ****       return -1;
 2042              		.loc 1 803 7 is_stmt 1 view .LVU706
 2043 00ca 2023     		movs	r3, #32
 2044 00cc 0522     		movs	r2, #5
 2045 00ce 94F81D12 		ldrb	r1, [r4, #541]	@ zero_extendqisi2
 2046 00d2 3046     		mov	r0, r6
 2047 00d4 FFF7FEFF 		bl	SCSI_SenseCode
 2048              	.LVL208:
 804:Middlewares/ST/STM32_USB_Device_Library/Class/MSC/Src/usbd_msc_scsi.c ****     }
 2049              		.loc 1 804 7 view .LVU707
 804:Middlewares/ST/STM32_USB_Device_Library/Class/MSC/Src/usbd_msc_scsi.c ****     }
 2050              		.loc 1 804 14 is_stmt 0 view .LVU708
 2051 00d8 4FF0FF30 		mov	r0, #-1
 2052 00dc DBE7     		b	.L141
 2053              	.LVL209:
 2054              	.L147:
 760:Middlewares/ST/STM32_USB_Device_Library/Class/MSC/Src/usbd_msc_scsi.c ****   }
 2055              		.loc 1 760 12 view .LVU709
 2056 00de 4FF0FF30 		mov	r0, #-1
 2057              	.LVL210:
 760:Middlewares/ST/STM32_USB_Device_Library/Class/MSC/Src/usbd_msc_scsi.c ****   }
 2058              		.loc 1 760 12 view .LVU710
 2059 00e2 D8E7     		b	.L141
 2060              	.LVL211:
 2061              	.L148:
 797:Middlewares/ST/STM32_USB_Device_Library/Class/MSC/Src/usbd_msc_scsi.c ****     }
 2062              		.loc 1 797 14 view .LVU711
 2063 00e4 4FF0FF30 		mov	r0, #-1
 2064 00e8 D5E7     		b	.L141
 2065              		.cfi_endproc
ARM GAS  C:\Users\Admin\AppData\Local\Temp\ccCPzby3.s 			page 69


 2066              	.LFE149:
 2068              		.section	.text.SCSI_ProcessWrite,"ax",%progbits
 2069              		.align	1
 2070              		.syntax unified
 2071              		.thumb
 2072              		.thumb_func
 2073              		.fpu fpv4-sp-d16
 2075              	SCSI_ProcessWrite:
 2076              	.LVL212:
 2077              	.LFB155:
1097:Middlewares/ST/STM32_USB_Device_Library/Class/MSC/Src/usbd_msc_scsi.c ****   USBD_MSC_BOT_HandleTypeDef *hmsc = (USBD_MSC_BOT_HandleTypeDef *)pdev->pClassData;
 2078              		.loc 1 1097 1 is_stmt 1 view -0
 2079              		.cfi_startproc
 2080              		@ args = 0, pretend = 0, frame = 0
 2081              		@ frame_needed = 0, uses_anonymous_args = 0
1097:Middlewares/ST/STM32_USB_Device_Library/Class/MSC/Src/usbd_msc_scsi.c ****   USBD_MSC_BOT_HandleTypeDef *hmsc = (USBD_MSC_BOT_HandleTypeDef *)pdev->pClassData;
 2082              		.loc 1 1097 1 is_stmt 0 view .LVU713
 2083 0000 2DE9F843 		push	{r3, r4, r5, r6, r7, r8, r9, lr}
 2084              	.LCFI24:
 2085              		.cfi_def_cfa_offset 32
 2086              		.cfi_offset 3, -32
 2087              		.cfi_offset 4, -28
 2088              		.cfi_offset 5, -24
 2089              		.cfi_offset 6, -20
 2090              		.cfi_offset 7, -16
 2091              		.cfi_offset 8, -12
 2092              		.cfi_offset 9, -8
 2093              		.cfi_offset 14, -4
1098:Middlewares/ST/STM32_USB_Device_Library/Class/MSC/Src/usbd_msc_scsi.c ****   uint32_t len = hmsc->scsi_blk_len * hmsc->scsi_blk_size;
 2094              		.loc 1 1098 3 is_stmt 1 view .LVU714
1098:Middlewares/ST/STM32_USB_Device_Library/Class/MSC/Src/usbd_msc_scsi.c ****   uint32_t len = hmsc->scsi_blk_len * hmsc->scsi_blk_size;
 2095              		.loc 1 1098 31 is_stmt 0 view .LVU715
 2096 0004 D0F8BC42 		ldr	r4, [r0, #700]
 2097              	.LVL213:
1099:Middlewares/ST/STM32_USB_Device_Library/Class/MSC/Src/usbd_msc_scsi.c **** 
 2098              		.loc 1 1099 3 is_stmt 1 view .LVU716
1099:Middlewares/ST/STM32_USB_Device_Library/Class/MSC/Src/usbd_msc_scsi.c **** 
 2099              		.loc 1 1099 22 is_stmt 0 view .LVU717
 2100 0008 D4F87052 		ldr	r5, [r4, #624]
1099:Middlewares/ST/STM32_USB_Device_Library/Class/MSC/Src/usbd_msc_scsi.c **** 
 2101              		.loc 1 1099 43 view .LVU718
 2102 000c B4F86432 		ldrh	r3, [r4, #612]
1099:Middlewares/ST/STM32_USB_Device_Library/Class/MSC/Src/usbd_msc_scsi.c **** 
 2103              		.loc 1 1099 12 view .LVU719
 2104 0010 03FB05F5 		mul	r5, r3, r5
 2105              	.LVL214:
1101:Middlewares/ST/STM32_USB_Device_Library/Class/MSC/Src/usbd_msc_scsi.c ****   {
 2106              		.loc 1 1101 3 is_stmt 1 view .LVU720
1101:Middlewares/ST/STM32_USB_Device_Library/Class/MSC/Src/usbd_msc_scsi.c ****   {
 2107              		.loc 1 1101 6 is_stmt 0 view .LVU721
 2108 0014 002C     		cmp	r4, #0
 2109 0016 48D0     		beq	.L158
 2110 0018 0646     		mov	r6, r0
 2111 001a 8846     		mov	r8, r1
1106:Middlewares/ST/STM32_USB_Device_Library/Class/MSC/Src/usbd_msc_scsi.c **** 
 2112              		.loc 1 1106 3 is_stmt 1 view .LVU722
1106:Middlewares/ST/STM32_USB_Device_Library/Class/MSC/Src/usbd_msc_scsi.c **** 
ARM GAS  C:\Users\Admin\AppData\Local\Temp\ccCPzby3.s 			page 70


 2113              		.loc 1 1106 7 is_stmt 0 view .LVU723
 2114 001c B5F5007F 		cmp	r5, #512
 2115 0020 28BF     		it	cs
 2116 0022 4FF40075 		movcs	r5, #512
 2117              	.LVL215:
1108:Middlewares/ST/STM32_USB_Device_Library/Class/MSC/Src/usbd_msc_scsi.c ****                                                       hmsc->scsi_blk_addr,
 2118              		.loc 1 1108 3 is_stmt 1 view .LVU724
1108:Middlewares/ST/STM32_USB_Device_Library/Class/MSC/Src/usbd_msc_scsi.c ****                                                       hmsc->scsi_blk_addr,
 2119              		.loc 1 1108 35 is_stmt 0 view .LVU725
 2120 0026 D0F8C022 		ldr	r2, [r0, #704]
1108:Middlewares/ST/STM32_USB_Device_Library/Class/MSC/Src/usbd_msc_scsi.c ****                                                       hmsc->scsi_blk_addr,
 2121              		.loc 1 1108 47 view .LVU726
 2122 002a D2F81490 		ldr	r9, [r2, #20]
1108:Middlewares/ST/STM32_USB_Device_Library/Class/MSC/Src/usbd_msc_scsi.c ****                                                       hmsc->scsi_blk_addr,
 2123              		.loc 1 1108 64 view .LVU727
 2124 002e 04F11007 		add	r7, r4, #16
1110:Middlewares/ST/STM32_USB_Device_Library/Class/MSC/Src/usbd_msc_scsi.c ****   {
 2125              		.loc 1 1110 60 view .LVU728
 2126 0032 B5FBF3F3 		udiv	r3, r5, r3
1108:Middlewares/ST/STM32_USB_Device_Library/Class/MSC/Src/usbd_msc_scsi.c ****                                                       hmsc->scsi_blk_addr,
 2127              		.loc 1 1108 8 view .LVU729
 2128 0036 9BB2     		uxth	r3, r3
 2129 0038 D4F86C22 		ldr	r2, [r4, #620]
 2130 003c 3946     		mov	r1, r7
 2131              	.LVL216:
1108:Middlewares/ST/STM32_USB_Device_Library/Class/MSC/Src/usbd_msc_scsi.c ****                                                       hmsc->scsi_blk_addr,
 2132              		.loc 1 1108 8 view .LVU730
 2133 003e 4046     		mov	r0, r8
 2134              	.LVL217:
1108:Middlewares/ST/STM32_USB_Device_Library/Class/MSC/Src/usbd_msc_scsi.c ****                                                       hmsc->scsi_blk_addr,
 2135              		.loc 1 1108 8 view .LVU731
 2136 0040 C847     		blx	r9
 2137              	.LVL218:
1108:Middlewares/ST/STM32_USB_Device_Library/Class/MSC/Src/usbd_msc_scsi.c ****                                                       hmsc->scsi_blk_addr,
 2138              		.loc 1 1108 6 view .LVU732
 2139 0042 0028     		cmp	r0, #0
 2140 0044 1ADB     		blt	.L160
1116:Middlewares/ST/STM32_USB_Device_Library/Class/MSC/Src/usbd_msc_scsi.c ****   hmsc->scsi_blk_len -= (len / hmsc->scsi_blk_size);
 2141              		.loc 1 1116 3 is_stmt 1 view .LVU733
1116:Middlewares/ST/STM32_USB_Device_Library/Class/MSC/Src/usbd_msc_scsi.c ****   hmsc->scsi_blk_len -= (len / hmsc->scsi_blk_size);
 2142              		.loc 1 1116 37 is_stmt 0 view .LVU734
 2143 0046 B4F86402 		ldrh	r0, [r4, #612]
1116:Middlewares/ST/STM32_USB_Device_Library/Class/MSC/Src/usbd_msc_scsi.c ****   hmsc->scsi_blk_len -= (len / hmsc->scsi_blk_size);
 2144              		.loc 1 1116 31 view .LVU735
 2145 004a B5FBF0F1 		udiv	r1, r5, r0
1116:Middlewares/ST/STM32_USB_Device_Library/Class/MSC/Src/usbd_msc_scsi.c ****   hmsc->scsi_blk_len -= (len / hmsc->scsi_blk_size);
 2146              		.loc 1 1116 23 view .LVU736
 2147 004e D4F86C22 		ldr	r2, [r4, #620]
 2148 0052 0A44     		add	r2, r2, r1
 2149 0054 C4F86C22 		str	r2, [r4, #620]
1117:Middlewares/ST/STM32_USB_Device_Library/Class/MSC/Src/usbd_msc_scsi.c **** 
 2150              		.loc 1 1117 3 is_stmt 1 view .LVU737
1117:Middlewares/ST/STM32_USB_Device_Library/Class/MSC/Src/usbd_msc_scsi.c **** 
 2151              		.loc 1 1117 22 is_stmt 0 view .LVU738
 2152 0058 D4F87032 		ldr	r3, [r4, #624]
 2153 005c 5B1A     		subs	r3, r3, r1
 2154 005e C4F87032 		str	r3, [r4, #624]
ARM GAS  C:\Users\Admin\AppData\Local\Temp\ccCPzby3.s 			page 71


1120:Middlewares/ST/STM32_USB_Device_Library/Class/MSC/Src/usbd_msc_scsi.c **** 
 2155              		.loc 1 1120 3 is_stmt 1 view .LVU739
1120:Middlewares/ST/STM32_USB_Device_Library/Class/MSC/Src/usbd_msc_scsi.c **** 
 2156              		.loc 1 1120 26 is_stmt 0 view .LVU740
 2157 0062 D4F83822 		ldr	r2, [r4, #568]
 2158 0066 551B     		subs	r5, r2, r5
 2159              	.LVL219:
1120:Middlewares/ST/STM32_USB_Device_Library/Class/MSC/Src/usbd_msc_scsi.c **** 
 2160              		.loc 1 1120 26 view .LVU741
 2161 0068 C4F83852 		str	r5, [r4, #568]
1122:Middlewares/ST/STM32_USB_Device_Library/Class/MSC/Src/usbd_msc_scsi.c ****   {
 2162              		.loc 1 1122 3 is_stmt 1 view .LVU742
1122:Middlewares/ST/STM32_USB_Device_Library/Class/MSC/Src/usbd_msc_scsi.c ****   {
 2163              		.loc 1 1122 6 is_stmt 0 view .LVU743
 2164 006c 7BB9     		cbnz	r3, .L157
1124:Middlewares/ST/STM32_USB_Device_Library/Class/MSC/Src/usbd_msc_scsi.c ****   }
 2165              		.loc 1 1124 5 is_stmt 1 view .LVU744
 2166 006e 0021     		movs	r1, #0
 2167 0070 3046     		mov	r0, r6
 2168 0072 FFF7FEFF 		bl	MSC_BOT_SendCSW
 2169              	.LVL220:
1134:Middlewares/ST/STM32_USB_Device_Library/Class/MSC/Src/usbd_msc_scsi.c **** }
 2170              		.loc 1 1134 10 is_stmt 0 view .LVU745
 2171 0076 0020     		movs	r0, #0
 2172              	.LVL221:
 2173              	.L155:
1135:Middlewares/ST/STM32_USB_Device_Library/Class/MSC/Src/usbd_msc_scsi.c **** 
 2174              		.loc 1 1135 1 view .LVU746
 2175 0078 BDE8F883 		pop	{r3, r4, r5, r6, r7, r8, r9, pc}
 2176              	.LVL222:
 2177              	.L160:
1112:Middlewares/ST/STM32_USB_Device_Library/Class/MSC/Src/usbd_msc_scsi.c ****     return -1;
 2178              		.loc 1 1112 5 is_stmt 1 view .LVU747
 2179 007c 0323     		movs	r3, #3
 2180 007e 0422     		movs	r2, #4
 2181 0080 4146     		mov	r1, r8
 2182 0082 3046     		mov	r0, r6
 2183 0084 FFF7FEFF 		bl	SCSI_SenseCode
 2184              	.LVL223:
1113:Middlewares/ST/STM32_USB_Device_Library/Class/MSC/Src/usbd_msc_scsi.c ****   }
 2185              		.loc 1 1113 5 view .LVU748
1113:Middlewares/ST/STM32_USB_Device_Library/Class/MSC/Src/usbd_msc_scsi.c ****   }
 2186              		.loc 1 1113 12 is_stmt 0 view .LVU749
 2187 0088 4FF0FF30 		mov	r0, #-1
 2188 008c F4E7     		b	.L155
 2189              	.LVL224:
 2190              	.L157:
1128:Middlewares/ST/STM32_USB_Device_Library/Class/MSC/Src/usbd_msc_scsi.c **** 
 2191              		.loc 1 1128 5 is_stmt 1 view .LVU750
1128:Middlewares/ST/STM32_USB_Device_Library/Class/MSC/Src/usbd_msc_scsi.c **** 
 2192              		.loc 1 1128 11 is_stmt 0 view .LVU751
 2193 008e 03FB00F3 		mul	r3, r3, r0
 2194              	.LVL225:
1131:Middlewares/ST/STM32_USB_Device_Library/Class/MSC/Src/usbd_msc_scsi.c ****   }
 2195              		.loc 1 1131 5 is_stmt 1 view .LVU752
1131:Middlewares/ST/STM32_USB_Device_Library/Class/MSC/Src/usbd_msc_scsi.c ****   }
 2196              		.loc 1 1131 11 is_stmt 0 view .LVU753
ARM GAS  C:\Users\Admin\AppData\Local\Temp\ccCPzby3.s 			page 72


 2197 0092 B3F5007F 		cmp	r3, #512
 2198 0096 28BF     		it	cs
 2199 0098 4FF40073 		movcs	r3, #512
 2200              	.LVL226:
1131:Middlewares/ST/STM32_USB_Device_Library/Class/MSC/Src/usbd_msc_scsi.c ****   }
 2201              		.loc 1 1131 11 view .LVU754
 2202 009c 3A46     		mov	r2, r7
 2203 009e 0121     		movs	r1, #1
 2204 00a0 3046     		mov	r0, r6
 2205              	.LVL227:
1131:Middlewares/ST/STM32_USB_Device_Library/Class/MSC/Src/usbd_msc_scsi.c ****   }
 2206              		.loc 1 1131 11 view .LVU755
 2207 00a2 FFF7FEFF 		bl	USBD_LL_PrepareReceive
 2208              	.LVL228:
1134:Middlewares/ST/STM32_USB_Device_Library/Class/MSC/Src/usbd_msc_scsi.c **** }
 2209              		.loc 1 1134 10 view .LVU756
 2210 00a6 0020     		movs	r0, #0
 2211 00a8 E6E7     		b	.L155
 2212              	.LVL229:
 2213              	.L158:
1103:Middlewares/ST/STM32_USB_Device_Library/Class/MSC/Src/usbd_msc_scsi.c ****   }
 2214              		.loc 1 1103 12 view .LVU757
 2215 00aa 4FF0FF30 		mov	r0, #-1
 2216              	.LVL230:
1103:Middlewares/ST/STM32_USB_Device_Library/Class/MSC/Src/usbd_msc_scsi.c ****   }
 2217              		.loc 1 1103 12 view .LVU758
 2218 00ae E3E7     		b	.L155
 2219              		.cfi_endproc
 2220              	.LFE155:
 2222              		.section	.text.SCSI_Write10,"ax",%progbits
 2223              		.align	1
 2224              		.syntax unified
 2225              		.thumb
 2226              		.thumb_func
 2227              		.fpu fpv4-sp-d16
 2229              	SCSI_Write10:
 2230              	.LVL231:
 2231              	.LFB150:
 823:Middlewares/ST/STM32_USB_Device_Library/Class/MSC/Src/usbd_msc_scsi.c ****   USBD_MSC_BOT_HandleTypeDef *hmsc = (USBD_MSC_BOT_HandleTypeDef *)pdev->pClassData;
 2232              		.loc 1 823 1 is_stmt 1 view -0
 2233              		.cfi_startproc
 2234              		@ args = 0, pretend = 0, frame = 0
 2235              		@ frame_needed = 0, uses_anonymous_args = 0
 823:Middlewares/ST/STM32_USB_Device_Library/Class/MSC/Src/usbd_msc_scsi.c ****   USBD_MSC_BOT_HandleTypeDef *hmsc = (USBD_MSC_BOT_HandleTypeDef *)pdev->pClassData;
 2236              		.loc 1 823 1 is_stmt 0 view .LVU760
 2237 0000 2DE9F041 		push	{r4, r5, r6, r7, r8, lr}
 2238              	.LCFI25:
 2239              		.cfi_def_cfa_offset 24
 2240              		.cfi_offset 4, -24
 2241              		.cfi_offset 5, -20
 2242              		.cfi_offset 6, -16
 2243              		.cfi_offset 7, -12
 2244              		.cfi_offset 8, -8
 2245              		.cfi_offset 14, -4
 824:Middlewares/ST/STM32_USB_Device_Library/Class/MSC/Src/usbd_msc_scsi.c ****   uint32_t len;
 2246              		.loc 1 824 3 is_stmt 1 view .LVU761
 824:Middlewares/ST/STM32_USB_Device_Library/Class/MSC/Src/usbd_msc_scsi.c ****   uint32_t len;
ARM GAS  C:\Users\Admin\AppData\Local\Temp\ccCPzby3.s 			page 73


 2247              		.loc 1 824 31 is_stmt 0 view .LVU762
 2248 0004 D0F8BC42 		ldr	r4, [r0, #700]
 2249              	.LVL232:
 825:Middlewares/ST/STM32_USB_Device_Library/Class/MSC/Src/usbd_msc_scsi.c **** 
 2250              		.loc 1 825 3 is_stmt 1 view .LVU763
 827:Middlewares/ST/STM32_USB_Device_Library/Class/MSC/Src/usbd_msc_scsi.c ****   {
 2251              		.loc 1 827 3 view .LVU764
 827:Middlewares/ST/STM32_USB_Device_Library/Class/MSC/Src/usbd_msc_scsi.c ****   {
 2252              		.loc 1 827 6 is_stmt 0 view .LVU765
 2253 0008 002C     		cmp	r4, #0
 2254 000a 7FD0     		beq	.L169
 2255 000c 0646     		mov	r6, r0
 2256 000e 0F46     		mov	r7, r1
 2257 0010 1546     		mov	r5, r2
 832:Middlewares/ST/STM32_USB_Device_Library/Class/MSC/Src/usbd_msc_scsi.c ****   {
 2258              		.loc 1 832 3 is_stmt 1 view .LVU766
 832:Middlewares/ST/STM32_USB_Device_Library/Class/MSC/Src/usbd_msc_scsi.c ****   {
 2259              		.loc 1 832 11 is_stmt 0 view .LVU767
 2260 0012 237A     		ldrb	r3, [r4, #8]	@ zero_extendqisi2
 832:Middlewares/ST/STM32_USB_Device_Library/Class/MSC/Src/usbd_msc_scsi.c ****   {
 2261              		.loc 1 832 6 view .LVU768
 2262 0014 002B     		cmp	r3, #0
 2263 0016 75D1     		bne	.L163
 834:Middlewares/ST/STM32_USB_Device_Library/Class/MSC/Src/usbd_msc_scsi.c ****     {
 2264              		.loc 1 834 5 is_stmt 1 view .LVU769
 834:Middlewares/ST/STM32_USB_Device_Library/Class/MSC/Src/usbd_msc_scsi.c ****     {
 2265              		.loc 1 834 18 is_stmt 0 view .LVU770
 2266 0018 D4F81832 		ldr	r3, [r4, #536]
 834:Middlewares/ST/STM32_USB_Device_Library/Class/MSC/Src/usbd_msc_scsi.c ****     {
 2267              		.loc 1 834 8 view .LVU771
 2268 001c 002B     		cmp	r3, #0
 2269 001e 43D0     		beq	.L172
 841:Middlewares/ST/STM32_USB_Device_Library/Class/MSC/Src/usbd_msc_scsi.c ****     {
 2270              		.loc 1 841 5 is_stmt 1 view .LVU772
 841:Middlewares/ST/STM32_USB_Device_Library/Class/MSC/Src/usbd_msc_scsi.c ****     {
 2271              		.loc 1 841 37 is_stmt 0 view .LVU773
 2272 0020 94F91C32 		ldrsb	r3, [r4, #540]
 841:Middlewares/ST/STM32_USB_Device_Library/Class/MSC/Src/usbd_msc_scsi.c ****     {
 2273              		.loc 1 841 8 view .LVU774
 2274 0024 002B     		cmp	r3, #0
 2275 0026 48DB     		blt	.L173
 848:Middlewares/ST/STM32_USB_Device_Library/Class/MSC/Src/usbd_msc_scsi.c ****     {
 2276              		.loc 1 848 5 is_stmt 1 view .LVU775
 848:Middlewares/ST/STM32_USB_Device_Library/Class/MSC/Src/usbd_msc_scsi.c ****     {
 2277              		.loc 1 848 37 is_stmt 0 view .LVU776
 2278 0028 D0F8C032 		ldr	r3, [r0, #704]
 848:Middlewares/ST/STM32_USB_Device_Library/Class/MSC/Src/usbd_msc_scsi.c ****     {
 2279              		.loc 1 848 49 view .LVU777
 2280 002c 9B68     		ldr	r3, [r3, #8]
 848:Middlewares/ST/STM32_USB_Device_Library/Class/MSC/Src/usbd_msc_scsi.c ****     {
 2281              		.loc 1 848 10 view .LVU778
 2282 002e 0846     		mov	r0, r1
 2283              	.LVL233:
 848:Middlewares/ST/STM32_USB_Device_Library/Class/MSC/Src/usbd_msc_scsi.c ****     {
 2284              		.loc 1 848 10 view .LVU779
 2285 0030 9847     		blx	r3
 2286              	.LVL234:
ARM GAS  C:\Users\Admin\AppData\Local\Temp\ccCPzby3.s 			page 74


 848:Middlewares/ST/STM32_USB_Device_Library/Class/MSC/Src/usbd_msc_scsi.c ****     {
 2287              		.loc 1 848 8 view .LVU780
 2288 0032 0028     		cmp	r0, #0
 2289 0034 4AD1     		bne	.L174
 855:Middlewares/ST/STM32_USB_Device_Library/Class/MSC/Src/usbd_msc_scsi.c ****     {
 2290              		.loc 1 855 5 is_stmt 1 view .LVU781
 855:Middlewares/ST/STM32_USB_Device_Library/Class/MSC/Src/usbd_msc_scsi.c ****     {
 2291              		.loc 1 855 37 is_stmt 0 view .LVU782
 2292 0036 D6F8C032 		ldr	r3, [r6, #704]
 855:Middlewares/ST/STM32_USB_Device_Library/Class/MSC/Src/usbd_msc_scsi.c ****     {
 2293              		.loc 1 855 49 view .LVU783
 2294 003a DB68     		ldr	r3, [r3, #12]
 855:Middlewares/ST/STM32_USB_Device_Library/Class/MSC/Src/usbd_msc_scsi.c ****     {
 2295              		.loc 1 855 10 view .LVU784
 2296 003c 3846     		mov	r0, r7
 2297 003e 9847     		blx	r3
 2298              	.LVL235:
 855:Middlewares/ST/STM32_USB_Device_Library/Class/MSC/Src/usbd_msc_scsi.c ****     {
 2299              		.loc 1 855 8 view .LVU785
 2300 0040 8046     		mov	r8, r0
 2301 0042 0028     		cmp	r0, #0
 2302 0044 4BD1     		bne	.L175
 861:Middlewares/ST/STM32_USB_Device_Library/Class/MSC/Src/usbd_msc_scsi.c ****                           ((uint32_t)params[3] << 16) |
 2303              		.loc 1 861 5 is_stmt 1 view .LVU786
 861:Middlewares/ST/STM32_USB_Device_Library/Class/MSC/Src/usbd_msc_scsi.c ****                           ((uint32_t)params[3] << 16) |
 2304              		.loc 1 861 44 is_stmt 0 view .LVU787
 2305 0046 AA78     		ldrb	r2, [r5, #2]	@ zero_extendqisi2
 862:Middlewares/ST/STM32_USB_Device_Library/Class/MSC/Src/usbd_msc_scsi.c ****                           ((uint32_t)params[4] << 8) |
 2306              		.loc 1 862 44 view .LVU788
 2307 0048 EB78     		ldrb	r3, [r5, #3]	@ zero_extendqisi2
 862:Middlewares/ST/STM32_USB_Device_Library/Class/MSC/Src/usbd_msc_scsi.c ****                           ((uint32_t)params[4] << 8) |
 2308              		.loc 1 862 48 view .LVU789
 2309 004a 1B04     		lsls	r3, r3, #16
 861:Middlewares/ST/STM32_USB_Device_Library/Class/MSC/Src/usbd_msc_scsi.c ****                           ((uint32_t)params[3] << 16) |
 2310              		.loc 1 861 55 view .LVU790
 2311 004c 43EA0263 		orr	r3, r3, r2, lsl #24
 863:Middlewares/ST/STM32_USB_Device_Library/Class/MSC/Src/usbd_msc_scsi.c ****                           (uint32_t)params[5];
 2312              		.loc 1 863 44 view .LVU791
 2313 0050 2A79     		ldrb	r2, [r5, #4]	@ zero_extendqisi2
 862:Middlewares/ST/STM32_USB_Device_Library/Class/MSC/Src/usbd_msc_scsi.c ****                           ((uint32_t)params[4] << 8) |
 2314              		.loc 1 862 55 view .LVU792
 2315 0052 43EA0223 		orr	r3, r3, r2, lsl #8
 864:Middlewares/ST/STM32_USB_Device_Library/Class/MSC/Src/usbd_msc_scsi.c **** 
 2316              		.loc 1 864 43 view .LVU793
 2317 0056 6A79     		ldrb	r2, [r5, #5]	@ zero_extendqisi2
 863:Middlewares/ST/STM32_USB_Device_Library/Class/MSC/Src/usbd_msc_scsi.c ****                           (uint32_t)params[5];
 2318              		.loc 1 863 54 view .LVU794
 2319 0058 1A43     		orrs	r2, r2, r3
 861:Middlewares/ST/STM32_USB_Device_Library/Class/MSC/Src/usbd_msc_scsi.c ****                           ((uint32_t)params[3] << 16) |
 2320              		.loc 1 861 25 view .LVU795
 2321 005a C4F86C22 		str	r2, [r4, #620]
 866:Middlewares/ST/STM32_USB_Device_Library/Class/MSC/Src/usbd_msc_scsi.c ****                          (uint32_t)params[8];
 2322              		.loc 1 866 5 is_stmt 1 view .LVU796
 866:Middlewares/ST/STM32_USB_Device_Library/Class/MSC/Src/usbd_msc_scsi.c ****                          (uint32_t)params[8];
 2323              		.loc 1 866 43 is_stmt 0 view .LVU797
 2324 005e E979     		ldrb	r1, [r5, #7]	@ zero_extendqisi2
 867:Middlewares/ST/STM32_USB_Device_Library/Class/MSC/Src/usbd_msc_scsi.c **** 
ARM GAS  C:\Users\Admin\AppData\Local\Temp\ccCPzby3.s 			page 75


 2325              		.loc 1 867 42 view .LVU798
 2326 0060 2B7A     		ldrb	r3, [r5, #8]	@ zero_extendqisi2
 866:Middlewares/ST/STM32_USB_Device_Library/Class/MSC/Src/usbd_msc_scsi.c ****                          (uint32_t)params[8];
 2327              		.loc 1 866 53 view .LVU799
 2328 0062 43EA0123 		orr	r3, r3, r1, lsl #8
 866:Middlewares/ST/STM32_USB_Device_Library/Class/MSC/Src/usbd_msc_scsi.c ****                          (uint32_t)params[8];
 2329              		.loc 1 866 24 view .LVU800
 2330 0066 C4F87032 		str	r3, [r4, #624]
 870:Middlewares/ST/STM32_USB_Device_Library/Class/MSC/Src/usbd_msc_scsi.c ****                                hmsc->scsi_blk_len) < 0)
 2331              		.loc 1 870 5 is_stmt 1 view .LVU801
 870:Middlewares/ST/STM32_USB_Device_Library/Class/MSC/Src/usbd_msc_scsi.c ****                                hmsc->scsi_blk_len) < 0)
 2332              		.loc 1 870 9 is_stmt 0 view .LVU802
 2333 006a 3946     		mov	r1, r7
 2334 006c 3046     		mov	r0, r6
 2335 006e FFF7FEFF 		bl	SCSI_CheckAddressRange
 2336              	.LVL236:
 870:Middlewares/ST/STM32_USB_Device_Library/Class/MSC/Src/usbd_msc_scsi.c ****                                hmsc->scsi_blk_len) < 0)
 2337              		.loc 1 870 8 view .LVU803
 2338 0072 0028     		cmp	r0, #0
 2339 0074 4DDB     		blt	.L170
 876:Middlewares/ST/STM32_USB_Device_Library/Class/MSC/Src/usbd_msc_scsi.c **** 
 2340              		.loc 1 876 5 is_stmt 1 view .LVU804
 876:Middlewares/ST/STM32_USB_Device_Library/Class/MSC/Src/usbd_msc_scsi.c **** 
 2341              		.loc 1 876 15 is_stmt 0 view .LVU805
 2342 0076 D4F87022 		ldr	r2, [r4, #624]
 876:Middlewares/ST/STM32_USB_Device_Library/Class/MSC/Src/usbd_msc_scsi.c **** 
 2343              		.loc 1 876 36 view .LVU806
 2344 007a B4F86432 		ldrh	r3, [r4, #612]
 876:Middlewares/ST/STM32_USB_Device_Library/Class/MSC/Src/usbd_msc_scsi.c **** 
 2345              		.loc 1 876 9 view .LVU807
 2346 007e 03FB02F3 		mul	r3, r3, r2
 2347              	.LVL237:
 879:Middlewares/ST/STM32_USB_Device_Library/Class/MSC/Src/usbd_msc_scsi.c ****     {
 2348              		.loc 1 879 5 is_stmt 1 view .LVU808
 879:Middlewares/ST/STM32_USB_Device_Library/Class/MSC/Src/usbd_msc_scsi.c ****     {
 2349              		.loc 1 879 18 is_stmt 0 view .LVU809
 2350 0082 D4F81822 		ldr	r2, [r4, #536]
 879:Middlewares/ST/STM32_USB_Device_Library/Class/MSC/Src/usbd_msc_scsi.c ****     {
 2351              		.loc 1 879 8 view .LVU810
 2352 0086 9A42     		cmp	r2, r3
 2353 0088 32D1     		bne	.L176
 885:Middlewares/ST/STM32_USB_Device_Library/Class/MSC/Src/usbd_msc_scsi.c **** 
 2354              		.loc 1 885 5 is_stmt 1 view .LVU811
 2355              	.LVL238:
 888:Middlewares/ST/STM32_USB_Device_Library/Class/MSC/Src/usbd_msc_scsi.c ****     (void)USBD_LL_PrepareReceive(pdev, MSC_EPOUT_ADDR, hmsc->bot_data, len);
 2356              		.loc 1 888 5 view .LVU812
 888:Middlewares/ST/STM32_USB_Device_Library/Class/MSC/Src/usbd_msc_scsi.c ****     (void)USBD_LL_PrepareReceive(pdev, MSC_EPOUT_ADDR, hmsc->bot_data, len);
 2357              		.loc 1 888 21 is_stmt 0 view .LVU813
 2358 008a 0121     		movs	r1, #1
 2359 008c 2172     		strb	r1, [r4, #8]
 889:Middlewares/ST/STM32_USB_Device_Library/Class/MSC/Src/usbd_msc_scsi.c ****   }
 2360              		.loc 1 889 5 is_stmt 1 view .LVU814
 889:Middlewares/ST/STM32_USB_Device_Library/Class/MSC/Src/usbd_msc_scsi.c ****   }
 2361              		.loc 1 889 11 is_stmt 0 view .LVU815
 2362 008e B3F5007F 		cmp	r3, #512
 2363 0092 28BF     		it	cs
 2364 0094 4FF40073 		movcs	r3, #512
ARM GAS  C:\Users\Admin\AppData\Local\Temp\ccCPzby3.s 			page 76


 2365              	.LVL239:
 889:Middlewares/ST/STM32_USB_Device_Library/Class/MSC/Src/usbd_msc_scsi.c ****   }
 2366              		.loc 1 889 11 view .LVU816
 2367 0098 04F11002 		add	r2, r4, #16
 2368 009c 3046     		mov	r0, r6
 2369 009e FFF7FEFF 		bl	USBD_LL_PrepareReceive
 2370              	.LVL240:
 896:Middlewares/ST/STM32_USB_Device_Library/Class/MSC/Src/usbd_msc_scsi.c **** }
 2371              		.loc 1 896 3 is_stmt 1 view .LVU817
 2372              	.L162:
 897:Middlewares/ST/STM32_USB_Device_Library/Class/MSC/Src/usbd_msc_scsi.c **** 
 2373              		.loc 1 897 1 is_stmt 0 view .LVU818
 2374 00a2 4046     		mov	r0, r8
 2375 00a4 BDE8F081 		pop	{r4, r5, r6, r7, r8, pc}
 2376              	.LVL241:
 2377              	.L172:
 836:Middlewares/ST/STM32_USB_Device_Library/Class/MSC/Src/usbd_msc_scsi.c ****       return -1;
 2378              		.loc 1 836 7 is_stmt 1 view .LVU819
 2379 00a8 2023     		movs	r3, #32
 2380 00aa 0522     		movs	r2, #5
 2381              	.LVL242:
 836:Middlewares/ST/STM32_USB_Device_Library/Class/MSC/Src/usbd_msc_scsi.c ****       return -1;
 2382              		.loc 1 836 7 is_stmt 0 view .LVU820
 2383 00ac 94F81D12 		ldrb	r1, [r4, #541]	@ zero_extendqisi2
 2384              	.LVL243:
 836:Middlewares/ST/STM32_USB_Device_Library/Class/MSC/Src/usbd_msc_scsi.c ****       return -1;
 2385              		.loc 1 836 7 view .LVU821
 2386 00b0 FFF7FEFF 		bl	SCSI_SenseCode
 2387              	.LVL244:
 837:Middlewares/ST/STM32_USB_Device_Library/Class/MSC/Src/usbd_msc_scsi.c ****     }
 2388              		.loc 1 837 7 is_stmt 1 view .LVU822
 837:Middlewares/ST/STM32_USB_Device_Library/Class/MSC/Src/usbd_msc_scsi.c ****     }
 2389              		.loc 1 837 14 is_stmt 0 view .LVU823
 2390 00b4 4FF0FF38 		mov	r8, #-1
 2391 00b8 F3E7     		b	.L162
 2392              	.LVL245:
 2393              	.L173:
 843:Middlewares/ST/STM32_USB_Device_Library/Class/MSC/Src/usbd_msc_scsi.c ****       return -1;
 2394              		.loc 1 843 7 is_stmt 1 view .LVU824
 2395 00ba 2023     		movs	r3, #32
 2396 00bc 0522     		movs	r2, #5
 2397              	.LVL246:
 843:Middlewares/ST/STM32_USB_Device_Library/Class/MSC/Src/usbd_msc_scsi.c ****       return -1;
 2398              		.loc 1 843 7 is_stmt 0 view .LVU825
 2399 00be 94F81D12 		ldrb	r1, [r4, #541]	@ zero_extendqisi2
 2400              	.LVL247:
 843:Middlewares/ST/STM32_USB_Device_Library/Class/MSC/Src/usbd_msc_scsi.c ****       return -1;
 2401              		.loc 1 843 7 view .LVU826
 2402 00c2 FFF7FEFF 		bl	SCSI_SenseCode
 2403              	.LVL248:
 844:Middlewares/ST/STM32_USB_Device_Library/Class/MSC/Src/usbd_msc_scsi.c ****     }
 2404              		.loc 1 844 7 is_stmt 1 view .LVU827
 844:Middlewares/ST/STM32_USB_Device_Library/Class/MSC/Src/usbd_msc_scsi.c ****     }
 2405              		.loc 1 844 14 is_stmt 0 view .LVU828
 2406 00c6 4FF0FF38 		mov	r8, #-1
 2407 00ca EAE7     		b	.L162
 2408              	.L174:
ARM GAS  C:\Users\Admin\AppData\Local\Temp\ccCPzby3.s 			page 77


 850:Middlewares/ST/STM32_USB_Device_Library/Class/MSC/Src/usbd_msc_scsi.c ****       return -1;
 2409              		.loc 1 850 7 is_stmt 1 view .LVU829
 2410 00cc 3A23     		movs	r3, #58
 2411 00ce 0222     		movs	r2, #2
 2412 00d0 3946     		mov	r1, r7
 2413 00d2 3046     		mov	r0, r6
 2414 00d4 FFF7FEFF 		bl	SCSI_SenseCode
 2415              	.LVL249:
 851:Middlewares/ST/STM32_USB_Device_Library/Class/MSC/Src/usbd_msc_scsi.c ****     }
 2416              		.loc 1 851 7 view .LVU830
 851:Middlewares/ST/STM32_USB_Device_Library/Class/MSC/Src/usbd_msc_scsi.c ****     }
 2417              		.loc 1 851 14 is_stmt 0 view .LVU831
 2418 00d8 4FF0FF38 		mov	r8, #-1
 2419 00dc E1E7     		b	.L162
 2420              	.L175:
 857:Middlewares/ST/STM32_USB_Device_Library/Class/MSC/Src/usbd_msc_scsi.c ****       return -1;
 2421              		.loc 1 857 7 is_stmt 1 view .LVU832
 2422 00de 2723     		movs	r3, #39
 2423 00e0 0222     		movs	r2, #2
 2424 00e2 3946     		mov	r1, r7
 2425 00e4 3046     		mov	r0, r6
 2426 00e6 FFF7FEFF 		bl	SCSI_SenseCode
 2427              	.LVL250:
 858:Middlewares/ST/STM32_USB_Device_Library/Class/MSC/Src/usbd_msc_scsi.c ****     }
 2428              		.loc 1 858 7 view .LVU833
 858:Middlewares/ST/STM32_USB_Device_Library/Class/MSC/Src/usbd_msc_scsi.c ****     }
 2429              		.loc 1 858 14 is_stmt 0 view .LVU834
 2430 00ea 4FF0FF38 		mov	r8, #-1
 2431 00ee D8E7     		b	.L162
 2432              	.LVL251:
 2433              	.L176:
 881:Middlewares/ST/STM32_USB_Device_Library/Class/MSC/Src/usbd_msc_scsi.c ****       return -1;
 2434              		.loc 1 881 7 is_stmt 1 view .LVU835
 2435 00f0 2023     		movs	r3, #32
 2436              	.LVL252:
 881:Middlewares/ST/STM32_USB_Device_Library/Class/MSC/Src/usbd_msc_scsi.c ****       return -1;
 2437              		.loc 1 881 7 is_stmt 0 view .LVU836
 2438 00f2 0522     		movs	r2, #5
 2439 00f4 94F81D12 		ldrb	r1, [r4, #541]	@ zero_extendqisi2
 2440 00f8 3046     		mov	r0, r6
 2441 00fa FFF7FEFF 		bl	SCSI_SenseCode
 2442              	.LVL253:
 882:Middlewares/ST/STM32_USB_Device_Library/Class/MSC/Src/usbd_msc_scsi.c ****     }
 2443              		.loc 1 882 7 is_stmt 1 view .LVU837
 882:Middlewares/ST/STM32_USB_Device_Library/Class/MSC/Src/usbd_msc_scsi.c ****     }
 2444              		.loc 1 882 14 is_stmt 0 view .LVU838
 2445 00fe 4FF0FF38 		mov	r8, #-1
 2446 0102 CEE7     		b	.L162
 2447              	.LVL254:
 2448              	.L163:
 893:Middlewares/ST/STM32_USB_Device_Library/Class/MSC/Src/usbd_msc_scsi.c ****   }
 2449              		.loc 1 893 5 is_stmt 1 view .LVU839
 893:Middlewares/ST/STM32_USB_Device_Library/Class/MSC/Src/usbd_msc_scsi.c ****   }
 2450              		.loc 1 893 12 is_stmt 0 view .LVU840
 2451 0104 FFF7FEFF 		bl	SCSI_ProcessWrite
 2452              	.LVL255:
 893:Middlewares/ST/STM32_USB_Device_Library/Class/MSC/Src/usbd_msc_scsi.c ****   }
ARM GAS  C:\Users\Admin\AppData\Local\Temp\ccCPzby3.s 			page 78


 2453              		.loc 1 893 12 view .LVU841
 2454 0108 8046     		mov	r8, r0
 2455 010a CAE7     		b	.L162
 2456              	.LVL256:
 2457              	.L169:
 829:Middlewares/ST/STM32_USB_Device_Library/Class/MSC/Src/usbd_msc_scsi.c ****   }
 2458              		.loc 1 829 12 view .LVU842
 2459 010c 4FF0FF38 		mov	r8, #-1
 2460 0110 C7E7     		b	.L162
 2461              	.LVL257:
 2462              	.L170:
 873:Middlewares/ST/STM32_USB_Device_Library/Class/MSC/Src/usbd_msc_scsi.c ****     }
 2463              		.loc 1 873 14 view .LVU843
 2464 0112 4FF0FF38 		mov	r8, #-1
 2465 0116 C4E7     		b	.L162
 2466              		.cfi_endproc
 2467              	.LFE150:
 2469              		.section	.text.SCSI_Write12,"ax",%progbits
 2470              		.align	1
 2471              		.syntax unified
 2472              		.thumb
 2473              		.thumb_func
 2474              		.fpu fpv4-sp-d16
 2476              	SCSI_Write12:
 2477              	.LVL258:
 2478              	.LFB151:
 908:Middlewares/ST/STM32_USB_Device_Library/Class/MSC/Src/usbd_msc_scsi.c ****   USBD_MSC_BOT_HandleTypeDef *hmsc = (USBD_MSC_BOT_HandleTypeDef *)pdev->pClassData;
 2479              		.loc 1 908 1 is_stmt 1 view -0
 2480              		.cfi_startproc
 2481              		@ args = 0, pretend = 0, frame = 0
 2482              		@ frame_needed = 0, uses_anonymous_args = 0
 908:Middlewares/ST/STM32_USB_Device_Library/Class/MSC/Src/usbd_msc_scsi.c ****   USBD_MSC_BOT_HandleTypeDef *hmsc = (USBD_MSC_BOT_HandleTypeDef *)pdev->pClassData;
 2483              		.loc 1 908 1 is_stmt 0 view .LVU845
 2484 0000 2DE9F041 		push	{r4, r5, r6, r7, r8, lr}
 2485              	.LCFI26:
 2486              		.cfi_def_cfa_offset 24
 2487              		.cfi_offset 4, -24
 2488              		.cfi_offset 5, -20
 2489              		.cfi_offset 6, -16
 2490              		.cfi_offset 7, -12
 2491              		.cfi_offset 8, -8
 2492              		.cfi_offset 14, -4
 909:Middlewares/ST/STM32_USB_Device_Library/Class/MSC/Src/usbd_msc_scsi.c ****   uint32_t len;
 2493              		.loc 1 909 3 is_stmt 1 view .LVU846
 909:Middlewares/ST/STM32_USB_Device_Library/Class/MSC/Src/usbd_msc_scsi.c ****   uint32_t len;
 2494              		.loc 1 909 31 is_stmt 0 view .LVU847
 2495 0004 D0F8BC42 		ldr	r4, [r0, #700]
 2496              	.LVL259:
 910:Middlewares/ST/STM32_USB_Device_Library/Class/MSC/Src/usbd_msc_scsi.c **** 
 2497              		.loc 1 910 3 is_stmt 1 view .LVU848
 912:Middlewares/ST/STM32_USB_Device_Library/Class/MSC/Src/usbd_msc_scsi.c ****   {
 2498              		.loc 1 912 3 view .LVU849
 912:Middlewares/ST/STM32_USB_Device_Library/Class/MSC/Src/usbd_msc_scsi.c ****   {
 2499              		.loc 1 912 6 is_stmt 0 view .LVU850
 2500 0008 002C     		cmp	r4, #0
 2501 000a 00F08A80 		beq	.L185
 2502 000e 0646     		mov	r6, r0
ARM GAS  C:\Users\Admin\AppData\Local\Temp\ccCPzby3.s 			page 79


 2503 0010 0F46     		mov	r7, r1
 2504 0012 1546     		mov	r5, r2
 917:Middlewares/ST/STM32_USB_Device_Library/Class/MSC/Src/usbd_msc_scsi.c ****   {
 2505              		.loc 1 917 3 is_stmt 1 view .LVU851
 917:Middlewares/ST/STM32_USB_Device_Library/Class/MSC/Src/usbd_msc_scsi.c ****   {
 2506              		.loc 1 917 11 is_stmt 0 view .LVU852
 2507 0014 237A     		ldrb	r3, [r4, #8]	@ zero_extendqisi2
 917:Middlewares/ST/STM32_USB_Device_Library/Class/MSC/Src/usbd_msc_scsi.c ****   {
 2508              		.loc 1 917 6 view .LVU853
 2509 0016 002B     		cmp	r3, #0
 2510 0018 7FD1     		bne	.L179
 919:Middlewares/ST/STM32_USB_Device_Library/Class/MSC/Src/usbd_msc_scsi.c ****     {
 2511              		.loc 1 919 5 is_stmt 1 view .LVU854
 919:Middlewares/ST/STM32_USB_Device_Library/Class/MSC/Src/usbd_msc_scsi.c ****     {
 2512              		.loc 1 919 18 is_stmt 0 view .LVU855
 2513 001a D4F81832 		ldr	r3, [r4, #536]
 919:Middlewares/ST/STM32_USB_Device_Library/Class/MSC/Src/usbd_msc_scsi.c ****     {
 2514              		.loc 1 919 8 view .LVU856
 2515 001e 002B     		cmp	r3, #0
 2516 0020 49D0     		beq	.L188
 926:Middlewares/ST/STM32_USB_Device_Library/Class/MSC/Src/usbd_msc_scsi.c ****     {
 2517              		.loc 1 926 5 is_stmt 1 view .LVU857
 926:Middlewares/ST/STM32_USB_Device_Library/Class/MSC/Src/usbd_msc_scsi.c ****     {
 2518              		.loc 1 926 37 is_stmt 0 view .LVU858
 2519 0022 94F91C32 		ldrsb	r3, [r4, #540]
 926:Middlewares/ST/STM32_USB_Device_Library/Class/MSC/Src/usbd_msc_scsi.c ****     {
 2520              		.loc 1 926 8 view .LVU859
 2521 0026 002B     		cmp	r3, #0
 2522 0028 4EDB     		blt	.L189
 933:Middlewares/ST/STM32_USB_Device_Library/Class/MSC/Src/usbd_msc_scsi.c ****     {
 2523              		.loc 1 933 5 is_stmt 1 view .LVU860
 933:Middlewares/ST/STM32_USB_Device_Library/Class/MSC/Src/usbd_msc_scsi.c ****     {
 2524              		.loc 1 933 37 is_stmt 0 view .LVU861
 2525 002a D0F8C032 		ldr	r3, [r0, #704]
 933:Middlewares/ST/STM32_USB_Device_Library/Class/MSC/Src/usbd_msc_scsi.c ****     {
 2526              		.loc 1 933 49 view .LVU862
 2527 002e 9B68     		ldr	r3, [r3, #8]
 933:Middlewares/ST/STM32_USB_Device_Library/Class/MSC/Src/usbd_msc_scsi.c ****     {
 2528              		.loc 1 933 10 view .LVU863
 2529 0030 0846     		mov	r0, r1
 2530              	.LVL260:
 933:Middlewares/ST/STM32_USB_Device_Library/Class/MSC/Src/usbd_msc_scsi.c ****     {
 2531              		.loc 1 933 10 view .LVU864
 2532 0032 9847     		blx	r3
 2533              	.LVL261:
 933:Middlewares/ST/STM32_USB_Device_Library/Class/MSC/Src/usbd_msc_scsi.c ****     {
 2534              		.loc 1 933 8 view .LVU865
 2535 0034 0028     		cmp	r0, #0
 2536 0036 50D1     		bne	.L190
 941:Middlewares/ST/STM32_USB_Device_Library/Class/MSC/Src/usbd_msc_scsi.c ****     {
 2537              		.loc 1 941 5 is_stmt 1 view .LVU866
 941:Middlewares/ST/STM32_USB_Device_Library/Class/MSC/Src/usbd_msc_scsi.c ****     {
 2538              		.loc 1 941 37 is_stmt 0 view .LVU867
 2539 0038 D6F8C032 		ldr	r3, [r6, #704]
 941:Middlewares/ST/STM32_USB_Device_Library/Class/MSC/Src/usbd_msc_scsi.c ****     {
 2540              		.loc 1 941 49 view .LVU868
 2541 003c DB68     		ldr	r3, [r3, #12]
ARM GAS  C:\Users\Admin\AppData\Local\Temp\ccCPzby3.s 			page 80


 941:Middlewares/ST/STM32_USB_Device_Library/Class/MSC/Src/usbd_msc_scsi.c ****     {
 2542              		.loc 1 941 10 view .LVU869
 2543 003e 3846     		mov	r0, r7
 2544 0040 9847     		blx	r3
 2545              	.LVL262:
 941:Middlewares/ST/STM32_USB_Device_Library/Class/MSC/Src/usbd_msc_scsi.c ****     {
 2546              		.loc 1 941 8 view .LVU870
 2547 0042 8046     		mov	r8, r0
 2548 0044 0028     		cmp	r0, #0
 2549 0046 53D1     		bne	.L191
 948:Middlewares/ST/STM32_USB_Device_Library/Class/MSC/Src/usbd_msc_scsi.c ****                           ((uint32_t)params[3] << 16) |
 2550              		.loc 1 948 5 is_stmt 1 view .LVU871
 948:Middlewares/ST/STM32_USB_Device_Library/Class/MSC/Src/usbd_msc_scsi.c ****                           ((uint32_t)params[3] << 16) |
 2551              		.loc 1 948 44 is_stmt 0 view .LVU872
 2552 0048 AB78     		ldrb	r3, [r5, #2]	@ zero_extendqisi2
 949:Middlewares/ST/STM32_USB_Device_Library/Class/MSC/Src/usbd_msc_scsi.c ****                           ((uint32_t)params[4] << 8) |
 2553              		.loc 1 949 44 view .LVU873
 2554 004a EA78     		ldrb	r2, [r5, #3]	@ zero_extendqisi2
 949:Middlewares/ST/STM32_USB_Device_Library/Class/MSC/Src/usbd_msc_scsi.c ****                           ((uint32_t)params[4] << 8) |
 2555              		.loc 1 949 48 view .LVU874
 2556 004c 1204     		lsls	r2, r2, #16
 948:Middlewares/ST/STM32_USB_Device_Library/Class/MSC/Src/usbd_msc_scsi.c ****                           ((uint32_t)params[3] << 16) |
 2557              		.loc 1 948 55 view .LVU875
 2558 004e 42EA0362 		orr	r2, r2, r3, lsl #24
 950:Middlewares/ST/STM32_USB_Device_Library/Class/MSC/Src/usbd_msc_scsi.c ****                           (uint32_t)params[5];
 2559              		.loc 1 950 44 view .LVU876
 2560 0052 2B79     		ldrb	r3, [r5, #4]	@ zero_extendqisi2
 949:Middlewares/ST/STM32_USB_Device_Library/Class/MSC/Src/usbd_msc_scsi.c ****                           ((uint32_t)params[4] << 8) |
 2561              		.loc 1 949 55 view .LVU877
 2562 0054 42EA0322 		orr	r2, r2, r3, lsl #8
 951:Middlewares/ST/STM32_USB_Device_Library/Class/MSC/Src/usbd_msc_scsi.c **** 
 2563              		.loc 1 951 43 view .LVU878
 2564 0058 6B79     		ldrb	r3, [r5, #5]	@ zero_extendqisi2
 950:Middlewares/ST/STM32_USB_Device_Library/Class/MSC/Src/usbd_msc_scsi.c ****                           (uint32_t)params[5];
 2565              		.loc 1 950 54 view .LVU879
 2566 005a 1A43     		orrs	r2, r2, r3
 948:Middlewares/ST/STM32_USB_Device_Library/Class/MSC/Src/usbd_msc_scsi.c ****                           ((uint32_t)params[3] << 16) |
 2567              		.loc 1 948 25 view .LVU880
 2568 005c C4F86C22 		str	r2, [r4, #620]
 953:Middlewares/ST/STM32_USB_Device_Library/Class/MSC/Src/usbd_msc_scsi.c ****                          ((uint32_t)params[7] << 16) |
 2569              		.loc 1 953 5 is_stmt 1 view .LVU881
 953:Middlewares/ST/STM32_USB_Device_Library/Class/MSC/Src/usbd_msc_scsi.c ****                          ((uint32_t)params[7] << 16) |
 2570              		.loc 1 953 43 is_stmt 0 view .LVU882
 2571 0060 A979     		ldrb	r1, [r5, #6]	@ zero_extendqisi2
 954:Middlewares/ST/STM32_USB_Device_Library/Class/MSC/Src/usbd_msc_scsi.c ****                          ((uint32_t)params[8] << 8) |
 2572              		.loc 1 954 43 view .LVU883
 2573 0062 EB79     		ldrb	r3, [r5, #7]	@ zero_extendqisi2
 954:Middlewares/ST/STM32_USB_Device_Library/Class/MSC/Src/usbd_msc_scsi.c ****                          ((uint32_t)params[8] << 8) |
 2574              		.loc 1 954 47 view .LVU884
 2575 0064 1B04     		lsls	r3, r3, #16
 953:Middlewares/ST/STM32_USB_Device_Library/Class/MSC/Src/usbd_msc_scsi.c ****                          ((uint32_t)params[7] << 16) |
 2576              		.loc 1 953 54 view .LVU885
 2577 0066 43EA0163 		orr	r3, r3, r1, lsl #24
 955:Middlewares/ST/STM32_USB_Device_Library/Class/MSC/Src/usbd_msc_scsi.c ****                          (uint32_t)params[9];
 2578              		.loc 1 955 43 view .LVU886
 2579 006a 297A     		ldrb	r1, [r5, #8]	@ zero_extendqisi2
 954:Middlewares/ST/STM32_USB_Device_Library/Class/MSC/Src/usbd_msc_scsi.c ****                          ((uint32_t)params[8] << 8) |
ARM GAS  C:\Users\Admin\AppData\Local\Temp\ccCPzby3.s 			page 81


 2580              		.loc 1 954 54 view .LVU887
 2581 006c 43EA0123 		orr	r3, r3, r1, lsl #8
 956:Middlewares/ST/STM32_USB_Device_Library/Class/MSC/Src/usbd_msc_scsi.c **** 
 2582              		.loc 1 956 42 view .LVU888
 2583 0070 697A     		ldrb	r1, [r5, #9]	@ zero_extendqisi2
 955:Middlewares/ST/STM32_USB_Device_Library/Class/MSC/Src/usbd_msc_scsi.c ****                          (uint32_t)params[9];
 2584              		.loc 1 955 53 view .LVU889
 2585 0072 0B43     		orrs	r3, r3, r1
 953:Middlewares/ST/STM32_USB_Device_Library/Class/MSC/Src/usbd_msc_scsi.c ****                          ((uint32_t)params[7] << 16) |
 2586              		.loc 1 953 24 view .LVU890
 2587 0074 C4F87032 		str	r3, [r4, #624]
 959:Middlewares/ST/STM32_USB_Device_Library/Class/MSC/Src/usbd_msc_scsi.c ****                                hmsc->scsi_blk_len) < 0)
 2588              		.loc 1 959 5 is_stmt 1 view .LVU891
 959:Middlewares/ST/STM32_USB_Device_Library/Class/MSC/Src/usbd_msc_scsi.c ****                                hmsc->scsi_blk_len) < 0)
 2589              		.loc 1 959 9 is_stmt 0 view .LVU892
 2590 0078 3946     		mov	r1, r7
 2591 007a 3046     		mov	r0, r6
 2592 007c FFF7FEFF 		bl	SCSI_CheckAddressRange
 2593              	.LVL263:
 959:Middlewares/ST/STM32_USB_Device_Library/Class/MSC/Src/usbd_msc_scsi.c ****                                hmsc->scsi_blk_len) < 0)
 2594              		.loc 1 959 8 view .LVU893
 2595 0080 0028     		cmp	r0, #0
 2596 0082 51DB     		blt	.L186
 965:Middlewares/ST/STM32_USB_Device_Library/Class/MSC/Src/usbd_msc_scsi.c **** 
 2597              		.loc 1 965 5 is_stmt 1 view .LVU894
 965:Middlewares/ST/STM32_USB_Device_Library/Class/MSC/Src/usbd_msc_scsi.c **** 
 2598              		.loc 1 965 15 is_stmt 0 view .LVU895
 2599 0084 D4F87022 		ldr	r2, [r4, #624]
 965:Middlewares/ST/STM32_USB_Device_Library/Class/MSC/Src/usbd_msc_scsi.c **** 
 2600              		.loc 1 965 36 view .LVU896
 2601 0088 B4F86432 		ldrh	r3, [r4, #612]
 965:Middlewares/ST/STM32_USB_Device_Library/Class/MSC/Src/usbd_msc_scsi.c **** 
 2602              		.loc 1 965 9 view .LVU897
 2603 008c 03FB02F3 		mul	r3, r3, r2
 2604              	.LVL264:
 968:Middlewares/ST/STM32_USB_Device_Library/Class/MSC/Src/usbd_msc_scsi.c ****     {
 2605              		.loc 1 968 5 is_stmt 1 view .LVU898
 968:Middlewares/ST/STM32_USB_Device_Library/Class/MSC/Src/usbd_msc_scsi.c ****     {
 2606              		.loc 1 968 18 is_stmt 0 view .LVU899
 2607 0090 D4F81822 		ldr	r2, [r4, #536]
 968:Middlewares/ST/STM32_USB_Device_Library/Class/MSC/Src/usbd_msc_scsi.c ****     {
 2608              		.loc 1 968 8 view .LVU900
 2609 0094 9A42     		cmp	r2, r3
 2610 0096 36D1     		bne	.L192
 974:Middlewares/ST/STM32_USB_Device_Library/Class/MSC/Src/usbd_msc_scsi.c **** 
 2611              		.loc 1 974 5 is_stmt 1 view .LVU901
 2612              	.LVL265:
 977:Middlewares/ST/STM32_USB_Device_Library/Class/MSC/Src/usbd_msc_scsi.c ****     (void)USBD_LL_PrepareReceive(pdev, MSC_EPOUT_ADDR, hmsc->bot_data, len);
 2613              		.loc 1 977 5 view .LVU902
 977:Middlewares/ST/STM32_USB_Device_Library/Class/MSC/Src/usbd_msc_scsi.c ****     (void)USBD_LL_PrepareReceive(pdev, MSC_EPOUT_ADDR, hmsc->bot_data, len);
 2614              		.loc 1 977 21 is_stmt 0 view .LVU903
 2615 0098 0121     		movs	r1, #1
 2616 009a 2172     		strb	r1, [r4, #8]
 978:Middlewares/ST/STM32_USB_Device_Library/Class/MSC/Src/usbd_msc_scsi.c ****   }
 2617              		.loc 1 978 5 is_stmt 1 view .LVU904
 978:Middlewares/ST/STM32_USB_Device_Library/Class/MSC/Src/usbd_msc_scsi.c ****   }
 2618              		.loc 1 978 11 is_stmt 0 view .LVU905
ARM GAS  C:\Users\Admin\AppData\Local\Temp\ccCPzby3.s 			page 82


 2619 009c B3F5007F 		cmp	r3, #512
 2620 00a0 28BF     		it	cs
 2621 00a2 4FF40073 		movcs	r3, #512
 2622              	.LVL266:
 978:Middlewares/ST/STM32_USB_Device_Library/Class/MSC/Src/usbd_msc_scsi.c ****   }
 2623              		.loc 1 978 11 view .LVU906
 2624 00a6 04F11002 		add	r2, r4, #16
 2625 00aa 3046     		mov	r0, r6
 2626 00ac FFF7FEFF 		bl	USBD_LL_PrepareReceive
 2627              	.LVL267:
 985:Middlewares/ST/STM32_USB_Device_Library/Class/MSC/Src/usbd_msc_scsi.c **** }
 2628              		.loc 1 985 3 is_stmt 1 view .LVU907
 2629              	.L178:
 986:Middlewares/ST/STM32_USB_Device_Library/Class/MSC/Src/usbd_msc_scsi.c **** 
 2630              		.loc 1 986 1 is_stmt 0 view .LVU908
 2631 00b0 4046     		mov	r0, r8
 2632 00b2 BDE8F081 		pop	{r4, r5, r6, r7, r8, pc}
 2633              	.LVL268:
 2634              	.L188:
 921:Middlewares/ST/STM32_USB_Device_Library/Class/MSC/Src/usbd_msc_scsi.c ****       return -1;
 2635              		.loc 1 921 7 is_stmt 1 view .LVU909
 2636 00b6 2023     		movs	r3, #32
 2637 00b8 0522     		movs	r2, #5
 2638              	.LVL269:
 921:Middlewares/ST/STM32_USB_Device_Library/Class/MSC/Src/usbd_msc_scsi.c ****       return -1;
 2639              		.loc 1 921 7 is_stmt 0 view .LVU910
 2640 00ba 94F81D12 		ldrb	r1, [r4, #541]	@ zero_extendqisi2
 2641              	.LVL270:
 921:Middlewares/ST/STM32_USB_Device_Library/Class/MSC/Src/usbd_msc_scsi.c ****       return -1;
 2642              		.loc 1 921 7 view .LVU911
 2643 00be FFF7FEFF 		bl	SCSI_SenseCode
 2644              	.LVL271:
 922:Middlewares/ST/STM32_USB_Device_Library/Class/MSC/Src/usbd_msc_scsi.c ****     }
 2645              		.loc 1 922 7 is_stmt 1 view .LVU912
 922:Middlewares/ST/STM32_USB_Device_Library/Class/MSC/Src/usbd_msc_scsi.c ****     }
 2646              		.loc 1 922 14 is_stmt 0 view .LVU913
 2647 00c2 4FF0FF38 		mov	r8, #-1
 2648 00c6 F3E7     		b	.L178
 2649              	.LVL272:
 2650              	.L189:
 928:Middlewares/ST/STM32_USB_Device_Library/Class/MSC/Src/usbd_msc_scsi.c ****       return -1;
 2651              		.loc 1 928 7 is_stmt 1 view .LVU914
 2652 00c8 2023     		movs	r3, #32
 2653 00ca 0522     		movs	r2, #5
 2654              	.LVL273:
 928:Middlewares/ST/STM32_USB_Device_Library/Class/MSC/Src/usbd_msc_scsi.c ****       return -1;
 2655              		.loc 1 928 7 is_stmt 0 view .LVU915
 2656 00cc 94F81D12 		ldrb	r1, [r4, #541]	@ zero_extendqisi2
 2657              	.LVL274:
 928:Middlewares/ST/STM32_USB_Device_Library/Class/MSC/Src/usbd_msc_scsi.c ****       return -1;
 2658              		.loc 1 928 7 view .LVU916
 2659 00d0 FFF7FEFF 		bl	SCSI_SenseCode
 2660              	.LVL275:
 929:Middlewares/ST/STM32_USB_Device_Library/Class/MSC/Src/usbd_msc_scsi.c ****     }
 2661              		.loc 1 929 7 is_stmt 1 view .LVU917
 929:Middlewares/ST/STM32_USB_Device_Library/Class/MSC/Src/usbd_msc_scsi.c ****     }
 2662              		.loc 1 929 14 is_stmt 0 view .LVU918
ARM GAS  C:\Users\Admin\AppData\Local\Temp\ccCPzby3.s 			page 83


 2663 00d4 4FF0FF38 		mov	r8, #-1
 2664 00d8 EAE7     		b	.L178
 2665              	.L190:
 935:Middlewares/ST/STM32_USB_Device_Library/Class/MSC/Src/usbd_msc_scsi.c ****       hmsc->bot_state = USBD_BOT_NO_DATA;
 2666              		.loc 1 935 7 is_stmt 1 view .LVU919
 2667 00da 3A23     		movs	r3, #58
 2668 00dc 0222     		movs	r2, #2
 2669 00de 3946     		mov	r1, r7
 2670 00e0 3046     		mov	r0, r6
 2671 00e2 FFF7FEFF 		bl	SCSI_SenseCode
 2672              	.LVL276:
 936:Middlewares/ST/STM32_USB_Device_Library/Class/MSC/Src/usbd_msc_scsi.c ****       return -1;
 2673              		.loc 1 936 7 view .LVU920
 936:Middlewares/ST/STM32_USB_Device_Library/Class/MSC/Src/usbd_msc_scsi.c ****       return -1;
 2674              		.loc 1 936 23 is_stmt 0 view .LVU921
 2675 00e6 0523     		movs	r3, #5
 2676 00e8 2372     		strb	r3, [r4, #8]
 937:Middlewares/ST/STM32_USB_Device_Library/Class/MSC/Src/usbd_msc_scsi.c ****     }
 2677              		.loc 1 937 7 is_stmt 1 view .LVU922
 937:Middlewares/ST/STM32_USB_Device_Library/Class/MSC/Src/usbd_msc_scsi.c ****     }
 2678              		.loc 1 937 14 is_stmt 0 view .LVU923
 2679 00ea 4FF0FF38 		mov	r8, #-1
 2680 00ee DFE7     		b	.L178
 2681              	.L191:
 943:Middlewares/ST/STM32_USB_Device_Library/Class/MSC/Src/usbd_msc_scsi.c ****       hmsc->bot_state = USBD_BOT_NO_DATA;
 2682              		.loc 1 943 7 is_stmt 1 view .LVU924
 2683 00f0 2723     		movs	r3, #39
 2684 00f2 0222     		movs	r2, #2
 2685 00f4 3946     		mov	r1, r7
 2686 00f6 3046     		mov	r0, r6
 2687 00f8 FFF7FEFF 		bl	SCSI_SenseCode
 2688              	.LVL277:
 944:Middlewares/ST/STM32_USB_Device_Library/Class/MSC/Src/usbd_msc_scsi.c ****       return -1;
 2689              		.loc 1 944 7 view .LVU925
 944:Middlewares/ST/STM32_USB_Device_Library/Class/MSC/Src/usbd_msc_scsi.c ****       return -1;
 2690              		.loc 1 944 23 is_stmt 0 view .LVU926
 2691 00fc 0523     		movs	r3, #5
 2692 00fe 2372     		strb	r3, [r4, #8]
 945:Middlewares/ST/STM32_USB_Device_Library/Class/MSC/Src/usbd_msc_scsi.c ****     }
 2693              		.loc 1 945 7 is_stmt 1 view .LVU927
 945:Middlewares/ST/STM32_USB_Device_Library/Class/MSC/Src/usbd_msc_scsi.c ****     }
 2694              		.loc 1 945 14 is_stmt 0 view .LVU928
 2695 0100 4FF0FF38 		mov	r8, #-1
 2696 0104 D4E7     		b	.L178
 2697              	.LVL278:
 2698              	.L192:
 970:Middlewares/ST/STM32_USB_Device_Library/Class/MSC/Src/usbd_msc_scsi.c ****       return -1;
 2699              		.loc 1 970 7 is_stmt 1 view .LVU929
 2700 0106 2023     		movs	r3, #32
 2701              	.LVL279:
 970:Middlewares/ST/STM32_USB_Device_Library/Class/MSC/Src/usbd_msc_scsi.c ****       return -1;
 2702              		.loc 1 970 7 is_stmt 0 view .LVU930
 2703 0108 0522     		movs	r2, #5
 2704 010a 94F81D12 		ldrb	r1, [r4, #541]	@ zero_extendqisi2
 2705 010e 3046     		mov	r0, r6
 2706 0110 FFF7FEFF 		bl	SCSI_SenseCode
 2707              	.LVL280:
ARM GAS  C:\Users\Admin\AppData\Local\Temp\ccCPzby3.s 			page 84


 971:Middlewares/ST/STM32_USB_Device_Library/Class/MSC/Src/usbd_msc_scsi.c ****     }
 2708              		.loc 1 971 7 is_stmt 1 view .LVU931
 971:Middlewares/ST/STM32_USB_Device_Library/Class/MSC/Src/usbd_msc_scsi.c ****     }
 2709              		.loc 1 971 14 is_stmt 0 view .LVU932
 2710 0114 4FF0FF38 		mov	r8, #-1
 2711 0118 CAE7     		b	.L178
 2712              	.LVL281:
 2713              	.L179:
 982:Middlewares/ST/STM32_USB_Device_Library/Class/MSC/Src/usbd_msc_scsi.c ****   }
 2714              		.loc 1 982 5 is_stmt 1 view .LVU933
 982:Middlewares/ST/STM32_USB_Device_Library/Class/MSC/Src/usbd_msc_scsi.c ****   }
 2715              		.loc 1 982 12 is_stmt 0 view .LVU934
 2716 011a FFF7FEFF 		bl	SCSI_ProcessWrite
 2717              	.LVL282:
 982:Middlewares/ST/STM32_USB_Device_Library/Class/MSC/Src/usbd_msc_scsi.c ****   }
 2718              		.loc 1 982 12 view .LVU935
 2719 011e 8046     		mov	r8, r0
 2720 0120 C6E7     		b	.L178
 2721              	.LVL283:
 2722              	.L185:
 914:Middlewares/ST/STM32_USB_Device_Library/Class/MSC/Src/usbd_msc_scsi.c ****   }
 2723              		.loc 1 914 12 view .LVU936
 2724 0122 4FF0FF38 		mov	r8, #-1
 2725 0126 C3E7     		b	.L178
 2726              	.LVL284:
 2727              	.L186:
 962:Middlewares/ST/STM32_USB_Device_Library/Class/MSC/Src/usbd_msc_scsi.c ****     }
 2728              		.loc 1 962 14 view .LVU937
 2729 0128 4FF0FF38 		mov	r8, #-1
 2730 012c C0E7     		b	.L178
 2731              		.cfi_endproc
 2732              	.LFE151:
 2734              		.section	.text.SCSI_Verify10,"ax",%progbits
 2735              		.align	1
 2736              		.syntax unified
 2737              		.thumb
 2738              		.thumb_func
 2739              		.fpu fpv4-sp-d16
 2741              	SCSI_Verify10:
 2742              	.LVL285:
 2743              	.LFB152:
 997:Middlewares/ST/STM32_USB_Device_Library/Class/MSC/Src/usbd_msc_scsi.c ****   USBD_MSC_BOT_HandleTypeDef *hmsc = (USBD_MSC_BOT_HandleTypeDef *)pdev->pClassData;
 2744              		.loc 1 997 1 is_stmt 1 view -0
 2745              		.cfi_startproc
 2746              		@ args = 0, pretend = 0, frame = 0
 2747              		@ frame_needed = 0, uses_anonymous_args = 0
 997:Middlewares/ST/STM32_USB_Device_Library/Class/MSC/Src/usbd_msc_scsi.c ****   USBD_MSC_BOT_HandleTypeDef *hmsc = (USBD_MSC_BOT_HandleTypeDef *)pdev->pClassData;
 2748              		.loc 1 997 1 is_stmt 0 view .LVU939
 2749 0000 10B5     		push	{r4, lr}
 2750              	.LCFI27:
 2751              		.cfi_def_cfa_offset 8
 2752              		.cfi_offset 4, -8
 2753              		.cfi_offset 14, -4
 998:Middlewares/ST/STM32_USB_Device_Library/Class/MSC/Src/usbd_msc_scsi.c **** 
 2754              		.loc 1 998 3 is_stmt 1 view .LVU940
 998:Middlewares/ST/STM32_USB_Device_Library/Class/MSC/Src/usbd_msc_scsi.c **** 
 2755              		.loc 1 998 31 is_stmt 0 view .LVU941
ARM GAS  C:\Users\Admin\AppData\Local\Temp\ccCPzby3.s 			page 85


 2756 0002 D0F8BC42 		ldr	r4, [r0, #700]
 2757              	.LVL286:
1000:Middlewares/ST/STM32_USB_Device_Library/Class/MSC/Src/usbd_msc_scsi.c ****   {
 2758              		.loc 1 1000 3 is_stmt 1 view .LVU942
1000:Middlewares/ST/STM32_USB_Device_Library/Class/MSC/Src/usbd_msc_scsi.c ****   {
 2759              		.loc 1 1000 6 is_stmt 0 view .LVU943
 2760 0006 ACB1     		cbz	r4, .L196
1005:Middlewares/ST/STM32_USB_Device_Library/Class/MSC/Src/usbd_msc_scsi.c ****   {
 2761              		.loc 1 1005 3 is_stmt 1 view .LVU944
1005:Middlewares/ST/STM32_USB_Device_Library/Class/MSC/Src/usbd_msc_scsi.c ****   {
 2762              		.loc 1 1005 14 is_stmt 0 view .LVU945
 2763 0008 5378     		ldrb	r3, [r2, #1]	@ zero_extendqisi2
1005:Middlewares/ST/STM32_USB_Device_Library/Class/MSC/Src/usbd_msc_scsi.c ****   {
 2764              		.loc 1 1005 6 view .LVU946
 2765 000a 13F0020F 		tst	r3, #2
 2766 000e 0AD1     		bne	.L199
1011:Middlewares/ST/STM32_USB_Device_Library/Class/MSC/Src/usbd_msc_scsi.c ****   {
 2767              		.loc 1 1011 3 is_stmt 1 view .LVU947
1011:Middlewares/ST/STM32_USB_Device_Library/Class/MSC/Src/usbd_msc_scsi.c ****   {
 2768              		.loc 1 1011 7 is_stmt 0 view .LVU948
 2769 0010 D4F87032 		ldr	r3, [r4, #624]
 2770 0014 D4F86C22 		ldr	r2, [r4, #620]
 2771              	.LVL287:
1011:Middlewares/ST/STM32_USB_Device_Library/Class/MSC/Src/usbd_msc_scsi.c ****   {
 2772              		.loc 1 1011 7 view .LVU949
 2773 0018 FFF7FEFF 		bl	SCSI_CheckAddressRange
 2774              	.LVL288:
1011:Middlewares/ST/STM32_USB_Device_Library/Class/MSC/Src/usbd_msc_scsi.c ****   {
 2775              		.loc 1 1011 6 view .LVU950
 2776 001c 0028     		cmp	r0, #0
 2777 001e 0CDB     		blt	.L197
1016:Middlewares/ST/STM32_USB_Device_Library/Class/MSC/Src/usbd_msc_scsi.c **** 
 2778              		.loc 1 1016 3 is_stmt 1 view .LVU951
1016:Middlewares/ST/STM32_USB_Device_Library/Class/MSC/Src/usbd_msc_scsi.c **** 
 2779              		.loc 1 1016 25 is_stmt 0 view .LVU952
 2780 0020 0020     		movs	r0, #0
 2781 0022 E060     		str	r0, [r4, #12]
1018:Middlewares/ST/STM32_USB_Device_Library/Class/MSC/Src/usbd_msc_scsi.c **** }
 2782              		.loc 1 1018 3 is_stmt 1 view .LVU953
 2783              	.L194:
1019:Middlewares/ST/STM32_USB_Device_Library/Class/MSC/Src/usbd_msc_scsi.c **** 
 2784              		.loc 1 1019 1 is_stmt 0 view .LVU954
 2785 0024 10BD     		pop	{r4, pc}
 2786              	.LVL289:
 2787              	.L199:
1007:Middlewares/ST/STM32_USB_Device_Library/Class/MSC/Src/usbd_msc_scsi.c ****     return -1; /* Error, Verify Mode Not supported*/
 2788              		.loc 1 1007 5 is_stmt 1 view .LVU955
 2789 0026 2423     		movs	r3, #36
 2790 0028 0522     		movs	r2, #5
 2791              	.LVL290:
1007:Middlewares/ST/STM32_USB_Device_Library/Class/MSC/Src/usbd_msc_scsi.c ****     return -1; /* Error, Verify Mode Not supported*/
 2792              		.loc 1 1007 5 is_stmt 0 view .LVU956
 2793 002a FFF7FEFF 		bl	SCSI_SenseCode
 2794              	.LVL291:
1008:Middlewares/ST/STM32_USB_Device_Library/Class/MSC/Src/usbd_msc_scsi.c ****   }
 2795              		.loc 1 1008 5 is_stmt 1 view .LVU957
1008:Middlewares/ST/STM32_USB_Device_Library/Class/MSC/Src/usbd_msc_scsi.c ****   }
ARM GAS  C:\Users\Admin\AppData\Local\Temp\ccCPzby3.s 			page 86


 2796              		.loc 1 1008 12 is_stmt 0 view .LVU958
 2797 002e 4FF0FF30 		mov	r0, #-1
 2798 0032 F7E7     		b	.L194
 2799              	.LVL292:
 2800              	.L196:
1002:Middlewares/ST/STM32_USB_Device_Library/Class/MSC/Src/usbd_msc_scsi.c ****   }
 2801              		.loc 1 1002 12 view .LVU959
 2802 0034 4FF0FF30 		mov	r0, #-1
 2803              	.LVL293:
1002:Middlewares/ST/STM32_USB_Device_Library/Class/MSC/Src/usbd_msc_scsi.c ****   }
 2804              		.loc 1 1002 12 view .LVU960
 2805 0038 F4E7     		b	.L194
 2806              	.LVL294:
 2807              	.L197:
1013:Middlewares/ST/STM32_USB_Device_Library/Class/MSC/Src/usbd_msc_scsi.c ****   }
 2808              		.loc 1 1013 12 view .LVU961
 2809 003a 4FF0FF30 		mov	r0, #-1
 2810 003e F1E7     		b	.L194
 2811              		.cfi_endproc
 2812              	.LFE152:
 2814              		.section	.text.SCSI_ProcessCmd,"ax",%progbits
 2815              		.align	1
 2816              		.global	SCSI_ProcessCmd
 2817              		.syntax unified
 2818              		.thumb
 2819              		.thumb_func
 2820              		.fpu fpv4-sp-d16
 2822              	SCSI_ProcessCmd:
 2823              	.LVL295:
 2824              	.LFB136:
 122:Middlewares/ST/STM32_USB_Device_Library/Class/MSC/Src/usbd_msc_scsi.c ****   int8_t ret;
 2825              		.loc 1 122 1 is_stmt 1 view -0
 2826              		.cfi_startproc
 2827              		@ args = 0, pretend = 0, frame = 0
 2828              		@ frame_needed = 0, uses_anonymous_args = 0
 122:Middlewares/ST/STM32_USB_Device_Library/Class/MSC/Src/usbd_msc_scsi.c ****   int8_t ret;
 2829              		.loc 1 122 1 is_stmt 0 view .LVU963
 2830 0000 10B5     		push	{r4, lr}
 2831              	.LCFI28:
 2832              		.cfi_def_cfa_offset 8
 2833              		.cfi_offset 4, -8
 2834              		.cfi_offset 14, -4
 123:Middlewares/ST/STM32_USB_Device_Library/Class/MSC/Src/usbd_msc_scsi.c ****   USBD_MSC_BOT_HandleTypeDef *hmsc = (USBD_MSC_BOT_HandleTypeDef *)pdev->pClassData;
 2835              		.loc 1 123 3 is_stmt 1 view .LVU964
 124:Middlewares/ST/STM32_USB_Device_Library/Class/MSC/Src/usbd_msc_scsi.c **** 
 2836              		.loc 1 124 3 view .LVU965
 124:Middlewares/ST/STM32_USB_Device_Library/Class/MSC/Src/usbd_msc_scsi.c **** 
 2837              		.loc 1 124 31 is_stmt 0 view .LVU966
 2838 0002 D0F8BC42 		ldr	r4, [r0, #700]
 2839              	.LVL296:
 126:Middlewares/ST/STM32_USB_Device_Library/Class/MSC/Src/usbd_msc_scsi.c ****   {
 2840              		.loc 1 126 3 is_stmt 1 view .LVU967
 126:Middlewares/ST/STM32_USB_Device_Library/Class/MSC/Src/usbd_msc_scsi.c ****   {
 2841              		.loc 1 126 6 is_stmt 0 view .LVU968
 2842 0006 002C     		cmp	r4, #0
 2843 0008 70D0     		beq	.L220
 131:Middlewares/ST/STM32_USB_Device_Library/Class/MSC/Src/usbd_msc_scsi.c ****   {
ARM GAS  C:\Users\Admin\AppData\Local\Temp\ccCPzby3.s 			page 87


 2844              		.loc 1 131 3 is_stmt 1 view .LVU969
 131:Middlewares/ST/STM32_USB_Device_Library/Class/MSC/Src/usbd_msc_scsi.c ****   {
 2845              		.loc 1 131 14 is_stmt 0 view .LVU970
 2846 000a 1378     		ldrb	r3, [r2]	@ zero_extendqisi2
 131:Middlewares/ST/STM32_USB_Device_Library/Class/MSC/Src/usbd_msc_scsi.c ****   {
 2847              		.loc 1 131 3 view .LVU971
 2848 000c 5A2B     		cmp	r3, #90
 2849 000e 31D8     		bhi	.L202
 2850 0010 5A2B     		cmp	r3, #90
 2851 0012 62D8     		bhi	.L203
 2852 0014 DFE803F0 		tbb	[pc, r3]
 2853              	.L205:
 2854 0018 3A       		.byte	(.L216-.L205)/2
 2855 0019 61       		.byte	(.L203-.L205)/2
 2856 001a 61       		.byte	(.L203-.L205)/2
 2857 001b 3D       		.byte	(.L215-.L205)/2
 2858 001c 61       		.byte	(.L203-.L205)/2
 2859 001d 61       		.byte	(.L203-.L205)/2
 2860 001e 61       		.byte	(.L203-.L205)/2
 2861 001f 61       		.byte	(.L203-.L205)/2
 2862 0020 61       		.byte	(.L203-.L205)/2
 2863 0021 61       		.byte	(.L203-.L205)/2
 2864 0022 61       		.byte	(.L203-.L205)/2
 2865 0023 61       		.byte	(.L203-.L205)/2
 2866 0024 61       		.byte	(.L203-.L205)/2
 2867 0025 61       		.byte	(.L203-.L205)/2
 2868 0026 61       		.byte	(.L203-.L205)/2
 2869 0027 61       		.byte	(.L203-.L205)/2
 2870 0028 61       		.byte	(.L203-.L205)/2
 2871 0029 61       		.byte	(.L203-.L205)/2
 2872 002a 40       		.byte	(.L214-.L205)/2
 2873 002b 61       		.byte	(.L203-.L205)/2
 2874 002c 61       		.byte	(.L203-.L205)/2
 2875 002d 61       		.byte	(.L203-.L205)/2
 2876 002e 61       		.byte	(.L203-.L205)/2
 2877 002f 61       		.byte	(.L203-.L205)/2
 2878 0030 61       		.byte	(.L203-.L205)/2
 2879 0031 61       		.byte	(.L203-.L205)/2
 2880 0032 49       		.byte	(.L213-.L205)/2
 2881 0033 43       		.byte	(.L212-.L205)/2
 2882 0034 61       		.byte	(.L203-.L205)/2
 2883 0035 61       		.byte	(.L203-.L205)/2
 2884 0036 46       		.byte	(.L211-.L205)/2
 2885 0037 61       		.byte	(.L203-.L205)/2
 2886 0038 61       		.byte	(.L203-.L205)/2
 2887 0039 61       		.byte	(.L203-.L205)/2
 2888 003a 61       		.byte	(.L203-.L205)/2
 2889 003b 4F       		.byte	(.L210-.L205)/2
 2890 003c 61       		.byte	(.L203-.L205)/2
 2891 003d 52       		.byte	(.L209-.L205)/2
 2892 003e 61       		.byte	(.L203-.L205)/2
 2893 003f 61       		.byte	(.L203-.L205)/2
 2894 0040 55       		.byte	(.L208-.L205)/2
 2895 0041 61       		.byte	(.L203-.L205)/2
 2896 0042 5B       		.byte	(.L207-.L205)/2
 2897 0043 61       		.byte	(.L203-.L205)/2
 2898 0044 61       		.byte	(.L203-.L205)/2
ARM GAS  C:\Users\Admin\AppData\Local\Temp\ccCPzby3.s 			page 88


 2899 0045 61       		.byte	(.L203-.L205)/2
 2900 0046 61       		.byte	(.L203-.L205)/2
 2901 0047 5E       		.byte	(.L206-.L205)/2
 2902 0048 61       		.byte	(.L203-.L205)/2
 2903 0049 61       		.byte	(.L203-.L205)/2
 2904 004a 61       		.byte	(.L203-.L205)/2
 2905 004b 61       		.byte	(.L203-.L205)/2
 2906 004c 61       		.byte	(.L203-.L205)/2
 2907 004d 61       		.byte	(.L203-.L205)/2
 2908 004e 61       		.byte	(.L203-.L205)/2
 2909 004f 61       		.byte	(.L203-.L205)/2
 2910 0050 61       		.byte	(.L203-.L205)/2
 2911 0051 61       		.byte	(.L203-.L205)/2
 2912 0052 61       		.byte	(.L203-.L205)/2
 2913 0053 61       		.byte	(.L203-.L205)/2
 2914 0054 61       		.byte	(.L203-.L205)/2
 2915 0055 61       		.byte	(.L203-.L205)/2
 2916 0056 61       		.byte	(.L203-.L205)/2
 2917 0057 61       		.byte	(.L203-.L205)/2
 2918 0058 61       		.byte	(.L203-.L205)/2
 2919 0059 61       		.byte	(.L203-.L205)/2
 2920 005a 61       		.byte	(.L203-.L205)/2
 2921 005b 61       		.byte	(.L203-.L205)/2
 2922 005c 61       		.byte	(.L203-.L205)/2
 2923 005d 61       		.byte	(.L203-.L205)/2
 2924 005e 61       		.byte	(.L203-.L205)/2
 2925 005f 61       		.byte	(.L203-.L205)/2
 2926 0060 61       		.byte	(.L203-.L205)/2
 2927 0061 61       		.byte	(.L203-.L205)/2
 2928 0062 61       		.byte	(.L203-.L205)/2
 2929 0063 61       		.byte	(.L203-.L205)/2
 2930 0064 61       		.byte	(.L203-.L205)/2
 2931 0065 61       		.byte	(.L203-.L205)/2
 2932 0066 61       		.byte	(.L203-.L205)/2
 2933 0067 61       		.byte	(.L203-.L205)/2
 2934 0068 61       		.byte	(.L203-.L205)/2
 2935 0069 61       		.byte	(.L203-.L205)/2
 2936 006a 61       		.byte	(.L203-.L205)/2
 2937 006b 61       		.byte	(.L203-.L205)/2
 2938 006c 61       		.byte	(.L203-.L205)/2
 2939 006d 61       		.byte	(.L203-.L205)/2
 2940 006e 61       		.byte	(.L203-.L205)/2
 2941 006f 61       		.byte	(.L203-.L205)/2
 2942 0070 61       		.byte	(.L203-.L205)/2
 2943 0071 61       		.byte	(.L203-.L205)/2
 2944 0072 4C       		.byte	(.L204-.L205)/2
 2945 0073 00       		.p2align 1
 2946              	.L202:
 2947 0074 A82B     		cmp	r3, #168
 2948 0076 27D0     		beq	.L217
 2949 0078 AA2B     		cmp	r3, #170
 2950 007a 02D1     		bne	.L222
 186:Middlewares/ST/STM32_USB_Device_Library/Class/MSC/Src/usbd_msc_scsi.c ****       break;
 2951              		.loc 1 186 7 is_stmt 1 view .LVU972
 186:Middlewares/ST/STM32_USB_Device_Library/Class/MSC/Src/usbd_msc_scsi.c ****       break;
 2952              		.loc 1 186 13 is_stmt 0 view .LVU973
 2953 007c FFF7FEFF 		bl	SCSI_Write12
ARM GAS  C:\Users\Admin\AppData\Local\Temp\ccCPzby3.s 			page 89


 2954              	.LVL297:
 187:Middlewares/ST/STM32_USB_Device_Library/Class/MSC/Src/usbd_msc_scsi.c **** 
 2955              		.loc 1 187 7 is_stmt 1 view .LVU974
 2956 0080 06E0     		b	.L201
 2957              	.LVL298:
 2958              	.L222:
 131:Middlewares/ST/STM32_USB_Device_Library/Class/MSC/Src/usbd_msc_scsi.c ****   {
 2959              		.loc 1 131 3 is_stmt 0 view .LVU975
 2960 0082 9E2B     		cmp	r3, #158
 2961 0084 29D1     		bne	.L203
 170:Middlewares/ST/STM32_USB_Device_Library/Class/MSC/Src/usbd_msc_scsi.c ****       break;
 2962              		.loc 1 170 7 is_stmt 1 view .LVU976
 170:Middlewares/ST/STM32_USB_Device_Library/Class/MSC/Src/usbd_msc_scsi.c ****       break;
 2963              		.loc 1 170 13 is_stmt 0 view .LVU977
 2964 0086 FFF7FEFF 		bl	SCSI_ReadCapacity16
 2965              	.LVL299:
 171:Middlewares/ST/STM32_USB_Device_Library/Class/MSC/Src/usbd_msc_scsi.c **** 
 2966              		.loc 1 171 7 is_stmt 1 view .LVU978
 2967 008a 01E0     		b	.L201
 2968              	.LVL300:
 2969              	.L216:
 134:Middlewares/ST/STM32_USB_Device_Library/Class/MSC/Src/usbd_msc_scsi.c ****       break;
 2970              		.loc 1 134 7 view .LVU979
 134:Middlewares/ST/STM32_USB_Device_Library/Class/MSC/Src/usbd_msc_scsi.c ****       break;
 2971              		.loc 1 134 13 is_stmt 0 view .LVU980
 2972 008c FFF7FEFF 		bl	SCSI_TestUnitReady
 2973              	.LVL301:
 135:Middlewares/ST/STM32_USB_Device_Library/Class/MSC/Src/usbd_msc_scsi.c **** 
 2974              		.loc 1 135 7 is_stmt 1 view .LVU981
 2975              	.L201:
 201:Middlewares/ST/STM32_USB_Device_Library/Class/MSC/Src/usbd_msc_scsi.c **** 
 2976              		.loc 1 201 1 is_stmt 0 view .LVU982
 2977 0090 10BD     		pop	{r4, pc}
 2978              	.LVL302:
 2979              	.L215:
 138:Middlewares/ST/STM32_USB_Device_Library/Class/MSC/Src/usbd_msc_scsi.c ****       break;
 2980              		.loc 1 138 7 is_stmt 1 view .LVU983
 138:Middlewares/ST/STM32_USB_Device_Library/Class/MSC/Src/usbd_msc_scsi.c ****       break;
 2981              		.loc 1 138 13 is_stmt 0 view .LVU984
 2982 0092 FFF7FEFF 		bl	SCSI_RequestSense
 2983              	.LVL303:
 139:Middlewares/ST/STM32_USB_Device_Library/Class/MSC/Src/usbd_msc_scsi.c **** 
 2984              		.loc 1 139 7 is_stmt 1 view .LVU985
 2985 0096 FBE7     		b	.L201
 2986              	.LVL304:
 2987              	.L214:
 142:Middlewares/ST/STM32_USB_Device_Library/Class/MSC/Src/usbd_msc_scsi.c ****       break;
 2988              		.loc 1 142 7 view .LVU986
 142:Middlewares/ST/STM32_USB_Device_Library/Class/MSC/Src/usbd_msc_scsi.c ****       break;
 2989              		.loc 1 142 13 is_stmt 0 view .LVU987
 2990 0098 FFF7FEFF 		bl	SCSI_Inquiry
 2991              	.LVL305:
 143:Middlewares/ST/STM32_USB_Device_Library/Class/MSC/Src/usbd_msc_scsi.c **** 
 2992              		.loc 1 143 7 is_stmt 1 view .LVU988
 2993 009c F8E7     		b	.L201
 2994              	.LVL306:
 2995              	.L212:
ARM GAS  C:\Users\Admin\AppData\Local\Temp\ccCPzby3.s 			page 90


 146:Middlewares/ST/STM32_USB_Device_Library/Class/MSC/Src/usbd_msc_scsi.c ****       break;
 2996              		.loc 1 146 7 view .LVU989
 146:Middlewares/ST/STM32_USB_Device_Library/Class/MSC/Src/usbd_msc_scsi.c ****       break;
 2997              		.loc 1 146 13 is_stmt 0 view .LVU990
 2998 009e FFF7FEFF 		bl	SCSI_StartStopUnit
 2999              	.LVL307:
 147:Middlewares/ST/STM32_USB_Device_Library/Class/MSC/Src/usbd_msc_scsi.c **** 
 3000              		.loc 1 147 7 is_stmt 1 view .LVU991
 3001 00a2 F5E7     		b	.L201
 3002              	.LVL308:
 3003              	.L211:
 150:Middlewares/ST/STM32_USB_Device_Library/Class/MSC/Src/usbd_msc_scsi.c ****       break;
 3004              		.loc 1 150 7 view .LVU992
 150:Middlewares/ST/STM32_USB_Device_Library/Class/MSC/Src/usbd_msc_scsi.c ****       break;
 3005              		.loc 1 150 13 is_stmt 0 view .LVU993
 3006 00a4 FFF7FEFF 		bl	SCSI_AllowPreventRemovable
 3007              	.LVL309:
 151:Middlewares/ST/STM32_USB_Device_Library/Class/MSC/Src/usbd_msc_scsi.c **** 
 3008              		.loc 1 151 7 is_stmt 1 view .LVU994
 3009 00a8 F2E7     		b	.L201
 3010              	.LVL310:
 3011              	.L213:
 154:Middlewares/ST/STM32_USB_Device_Library/Class/MSC/Src/usbd_msc_scsi.c ****       break;
 3012              		.loc 1 154 7 view .LVU995
 154:Middlewares/ST/STM32_USB_Device_Library/Class/MSC/Src/usbd_msc_scsi.c ****       break;
 3013              		.loc 1 154 13 is_stmt 0 view .LVU996
 3014 00aa FFF7FEFF 		bl	SCSI_ModeSense6
 3015              	.LVL311:
 155:Middlewares/ST/STM32_USB_Device_Library/Class/MSC/Src/usbd_msc_scsi.c **** 
 3016              		.loc 1 155 7 is_stmt 1 view .LVU997
 3017 00ae EFE7     		b	.L201
 3018              	.LVL312:
 3019              	.L204:
 158:Middlewares/ST/STM32_USB_Device_Library/Class/MSC/Src/usbd_msc_scsi.c ****       break;
 3020              		.loc 1 158 7 view .LVU998
 158:Middlewares/ST/STM32_USB_Device_Library/Class/MSC/Src/usbd_msc_scsi.c ****       break;
 3021              		.loc 1 158 13 is_stmt 0 view .LVU999
 3022 00b0 FFF7FEFF 		bl	SCSI_ModeSense10
 3023              	.LVL313:
 159:Middlewares/ST/STM32_USB_Device_Library/Class/MSC/Src/usbd_msc_scsi.c **** 
 3024              		.loc 1 159 7 is_stmt 1 view .LVU1000
 3025 00b4 ECE7     		b	.L201
 3026              	.LVL314:
 3027              	.L210:
 162:Middlewares/ST/STM32_USB_Device_Library/Class/MSC/Src/usbd_msc_scsi.c ****       break;
 3028              		.loc 1 162 7 view .LVU1001
 162:Middlewares/ST/STM32_USB_Device_Library/Class/MSC/Src/usbd_msc_scsi.c ****       break;
 3029              		.loc 1 162 13 is_stmt 0 view .LVU1002
 3030 00b6 FFF7FEFF 		bl	SCSI_ReadFormatCapacity
 3031              	.LVL315:
 163:Middlewares/ST/STM32_USB_Device_Library/Class/MSC/Src/usbd_msc_scsi.c **** 
 3032              		.loc 1 163 7 is_stmt 1 view .LVU1003
 3033 00ba E9E7     		b	.L201
 3034              	.LVL316:
 3035              	.L209:
 166:Middlewares/ST/STM32_USB_Device_Library/Class/MSC/Src/usbd_msc_scsi.c ****       break;
 3036              		.loc 1 166 7 view .LVU1004
ARM GAS  C:\Users\Admin\AppData\Local\Temp\ccCPzby3.s 			page 91


 166:Middlewares/ST/STM32_USB_Device_Library/Class/MSC/Src/usbd_msc_scsi.c ****       break;
 3037              		.loc 1 166 13 is_stmt 0 view .LVU1005
 3038 00bc FFF7FEFF 		bl	SCSI_ReadCapacity10
 3039              	.LVL317:
 167:Middlewares/ST/STM32_USB_Device_Library/Class/MSC/Src/usbd_msc_scsi.c **** 
 3040              		.loc 1 167 7 is_stmt 1 view .LVU1006
 3041 00c0 E6E7     		b	.L201
 3042              	.LVL318:
 3043              	.L208:
 174:Middlewares/ST/STM32_USB_Device_Library/Class/MSC/Src/usbd_msc_scsi.c ****       break;
 3044              		.loc 1 174 7 view .LVU1007
 174:Middlewares/ST/STM32_USB_Device_Library/Class/MSC/Src/usbd_msc_scsi.c ****       break;
 3045              		.loc 1 174 13 is_stmt 0 view .LVU1008
 3046 00c2 FFF7FEFF 		bl	SCSI_Read10
 3047              	.LVL319:
 175:Middlewares/ST/STM32_USB_Device_Library/Class/MSC/Src/usbd_msc_scsi.c **** 
 3048              		.loc 1 175 7 is_stmt 1 view .LVU1009
 3049 00c6 E3E7     		b	.L201
 3050              	.LVL320:
 3051              	.L217:
 178:Middlewares/ST/STM32_USB_Device_Library/Class/MSC/Src/usbd_msc_scsi.c ****       break;
 3052              		.loc 1 178 7 view .LVU1010
 178:Middlewares/ST/STM32_USB_Device_Library/Class/MSC/Src/usbd_msc_scsi.c ****       break;
 3053              		.loc 1 178 13 is_stmt 0 view .LVU1011
 3054 00c8 FFF7FEFF 		bl	SCSI_Read12
 3055              	.LVL321:
 179:Middlewares/ST/STM32_USB_Device_Library/Class/MSC/Src/usbd_msc_scsi.c **** 
 3056              		.loc 1 179 7 is_stmt 1 view .LVU1012
 3057 00cc E0E7     		b	.L201
 3058              	.LVL322:
 3059              	.L207:
 182:Middlewares/ST/STM32_USB_Device_Library/Class/MSC/Src/usbd_msc_scsi.c ****       break;
 3060              		.loc 1 182 7 view .LVU1013
 182:Middlewares/ST/STM32_USB_Device_Library/Class/MSC/Src/usbd_msc_scsi.c ****       break;
 3061              		.loc 1 182 13 is_stmt 0 view .LVU1014
 3062 00ce FFF7FEFF 		bl	SCSI_Write10
 3063              	.LVL323:
 183:Middlewares/ST/STM32_USB_Device_Library/Class/MSC/Src/usbd_msc_scsi.c **** 
 3064              		.loc 1 183 7 is_stmt 1 view .LVU1015
 3065 00d2 DDE7     		b	.L201
 3066              	.LVL324:
 3067              	.L206:
 190:Middlewares/ST/STM32_USB_Device_Library/Class/MSC/Src/usbd_msc_scsi.c ****       break;
 3068              		.loc 1 190 7 view .LVU1016
 190:Middlewares/ST/STM32_USB_Device_Library/Class/MSC/Src/usbd_msc_scsi.c ****       break;
 3069              		.loc 1 190 13 is_stmt 0 view .LVU1017
 3070 00d4 FFF7FEFF 		bl	SCSI_Verify10
 3071              	.LVL325:
 191:Middlewares/ST/STM32_USB_Device_Library/Class/MSC/Src/usbd_msc_scsi.c **** 
 3072              		.loc 1 191 7 is_stmt 1 view .LVU1018
 3073 00d8 DAE7     		b	.L201
 3074              	.LVL326:
 3075              	.L203:
 194:Middlewares/ST/STM32_USB_Device_Library/Class/MSC/Src/usbd_msc_scsi.c ****       hmsc->bot_status = USBD_BOT_STATUS_ERROR;
 3076              		.loc 1 194 7 view .LVU1019
 3077 00da 2023     		movs	r3, #32
 3078 00dc 0522     		movs	r2, #5
ARM GAS  C:\Users\Admin\AppData\Local\Temp\ccCPzby3.s 			page 92


 3079              	.LVL327:
 194:Middlewares/ST/STM32_USB_Device_Library/Class/MSC/Src/usbd_msc_scsi.c ****       hmsc->bot_status = USBD_BOT_STATUS_ERROR;
 3080              		.loc 1 194 7 is_stmt 0 view .LVU1020
 3081 00de FFF7FEFF 		bl	SCSI_SenseCode
 3082              	.LVL328:
 195:Middlewares/ST/STM32_USB_Device_Library/Class/MSC/Src/usbd_msc_scsi.c ****       ret = -1;
 3083              		.loc 1 195 7 is_stmt 1 view .LVU1021
 195:Middlewares/ST/STM32_USB_Device_Library/Class/MSC/Src/usbd_msc_scsi.c ****       ret = -1;
 3084              		.loc 1 195 24 is_stmt 0 view .LVU1022
 3085 00e2 0223     		movs	r3, #2
 3086 00e4 6372     		strb	r3, [r4, #9]
 196:Middlewares/ST/STM32_USB_Device_Library/Class/MSC/Src/usbd_msc_scsi.c ****       break;
 3087              		.loc 1 196 7 is_stmt 1 view .LVU1023
 3088              	.LVL329:
 197:Middlewares/ST/STM32_USB_Device_Library/Class/MSC/Src/usbd_msc_scsi.c ****   }
 3089              		.loc 1 197 7 view .LVU1024
 196:Middlewares/ST/STM32_USB_Device_Library/Class/MSC/Src/usbd_msc_scsi.c ****       break;
 3090              		.loc 1 196 11 is_stmt 0 view .LVU1025
 3091 00e6 4FF0FF30 		mov	r0, #-1
 197:Middlewares/ST/STM32_USB_Device_Library/Class/MSC/Src/usbd_msc_scsi.c ****   }
 3092              		.loc 1 197 7 view .LVU1026
 3093 00ea D1E7     		b	.L201
 3094              	.LVL330:
 3095              	.L220:
 128:Middlewares/ST/STM32_USB_Device_Library/Class/MSC/Src/usbd_msc_scsi.c ****   }
 3096              		.loc 1 128 12 view .LVU1027
 3097 00ec 4FF0FF30 		mov	r0, #-1
 3098              	.LVL331:
 128:Middlewares/ST/STM32_USB_Device_Library/Class/MSC/Src/usbd_msc_scsi.c ****   }
 3099              		.loc 1 128 12 view .LVU1028
 3100 00f0 CEE7     		b	.L201
 3101              		.cfi_endproc
 3102              	.LFE136:
 3104              		.text
 3105              	.Letext0:
 3106              		.file 2 "c:\\ncs\\v1.7.1\\toolchain\\opt\\arm-none-eabi\\include\\machine\\_default_types.h"
 3107              		.file 3 "c:\\ncs\\v1.7.1\\toolchain\\opt\\arm-none-eabi\\include\\sys\\lock.h"
 3108              		.file 4 "c:\\ncs\\v1.7.1\\toolchain\\opt\\arm-none-eabi\\include\\sys\\_types.h"
 3109              		.file 5 "c:\\ncs\\v1.7.1\\toolchain\\opt\\lib\\gcc\\arm-none-eabi\\9.2.1\\include\\stddef.h"
 3110              		.file 6 "c:\\ncs\\v1.7.1\\toolchain\\opt\\arm-none-eabi\\include\\sys\\reent.h"
 3111              		.file 7 "c:\\ncs\\v1.7.1\\toolchain\\opt\\arm-none-eabi\\include\\sys\\_stdint.h"
 3112              		.file 8 "c:\\ncs\\v1.7.1\\toolchain\\opt\\arm-none-eabi\\include\\stdlib.h"
 3113              		.file 9 "Drivers/CMSIS/Include/core_cm4.h"
 3114              		.file 10 "Drivers/CMSIS/Device/ST/STM32L4xx/Include/system_stm32l4xx.h"
 3115              		.file 11 "Drivers/STM32L4xx_HAL_Driver/Inc/stm32l4xx_hal_def.h"
 3116              		.file 12 "Drivers/STM32L4xx_HAL_Driver/Inc/stm32l4xx_hal_flash.h"
 3117              		.file 13 "Drivers/STM32L4xx_HAL_Driver/Inc/stm32l4xx_hal.h"
 3118              		.file 14 "Middlewares/ST/STM32_USB_Device_Library/Core/Inc/usbd_def.h"
 3119              		.file 15 "Middlewares/ST/STM32_USB_Device_Library/Class/MSC/Inc/usbd_msc_bot.h"
 3120              		.file 16 "Middlewares/ST/STM32_USB_Device_Library/Class/MSC/Inc/usbd_msc_scsi.h"
 3121              		.file 17 "Middlewares/ST/STM32_USB_Device_Library/Class/MSC/Inc/usbd_msc.h"
 3122              		.file 18 "Middlewares/ST/STM32_USB_Device_Library/Class/MSC/Inc/usbd_msc_data.h"
 3123              		.file 19 "Middlewares/ST/STM32_USB_Device_Library/Core/Inc/usbd_core.h"
ARM GAS  C:\Users\Admin\AppData\Local\Temp\ccCPzby3.s 			page 93


DEFINED SYMBOLS
                            *ABS*:00000000 usbd_msc_scsi.c
C:\Users\Admin\AppData\Local\Temp\ccCPzby3.s:18     .text.SCSI_AllowPreventRemovable:00000000 $t
C:\Users\Admin\AppData\Local\Temp\ccCPzby3.s:25     .text.SCSI_AllowPreventRemovable:00000000 SCSI_AllowPreventRemovable
C:\Users\Admin\AppData\Local\Temp\ccCPzby3.s:79     .text.SCSI_UpdateBotData:00000000 $t
C:\Users\Admin\AppData\Local\Temp\ccCPzby3.s:85     .text.SCSI_UpdateBotData:00000000 SCSI_UpdateBotData
C:\Users\Admin\AppData\Local\Temp\ccCPzby3.s:147    .text.SCSI_ModeSense6:00000000 $t
C:\Users\Admin\AppData\Local\Temp\ccCPzby3.s:153    .text.SCSI_ModeSense6:00000000 SCSI_ModeSense6
C:\Users\Admin\AppData\Local\Temp\ccCPzby3.s:213    .text.SCSI_ModeSense6:00000024 $d
C:\Users\Admin\AppData\Local\Temp\ccCPzby3.s:218    .text.SCSI_ModeSense10:00000000 $t
C:\Users\Admin\AppData\Local\Temp\ccCPzby3.s:224    .text.SCSI_ModeSense10:00000000 SCSI_ModeSense10
C:\Users\Admin\AppData\Local\Temp\ccCPzby3.s:284    .text.SCSI_ModeSense10:00000024 $d
C:\Users\Admin\AppData\Local\Temp\ccCPzby3.s:289    .text.SCSI_SenseCode:00000000 $t
C:\Users\Admin\AppData\Local\Temp\ccCPzby3.s:296    .text.SCSI_SenseCode:00000000 SCSI_SenseCode
C:\Users\Admin\AppData\Local\Temp\ccCPzby3.s:374    .text.SCSI_TestUnitReady:00000000 $t
C:\Users\Admin\AppData\Local\Temp\ccCPzby3.s:380    .text.SCSI_TestUnitReady:00000000 SCSI_TestUnitReady
C:\Users\Admin\AppData\Local\Temp\ccCPzby3.s:498    .text.SCSI_RequestSense:00000000 $t
C:\Users\Admin\AppData\Local\Temp\ccCPzby3.s:504    .text.SCSI_RequestSense:00000000 SCSI_RequestSense
C:\Users\Admin\AppData\Local\Temp\ccCPzby3.s:659    .text.SCSI_Inquiry:00000000 $t
C:\Users\Admin\AppData\Local\Temp\ccCPzby3.s:665    .text.SCSI_Inquiry:00000000 SCSI_Inquiry
C:\Users\Admin\AppData\Local\Temp\ccCPzby3.s:824    .text.SCSI_Inquiry:0000008c $d
C:\Users\Admin\AppData\Local\Temp\ccCPzby3.s:830    .text.SCSI_StartStopUnit:00000000 $t
C:\Users\Admin\AppData\Local\Temp\ccCPzby3.s:836    .text.SCSI_StartStopUnit:00000000 SCSI_StartStopUnit
C:\Users\Admin\AppData\Local\Temp\ccCPzby3.s:937    .text.SCSI_ReadFormatCapacity:00000000 $t
C:\Users\Admin\AppData\Local\Temp\ccCPzby3.s:943    .text.SCSI_ReadFormatCapacity:00000000 SCSI_ReadFormatCapacity
C:\Users\Admin\AppData\Local\Temp\ccCPzby3.s:1115   .text.SCSI_ReadCapacity10:00000000 $t
C:\Users\Admin\AppData\Local\Temp\ccCPzby3.s:1121   .text.SCSI_ReadCapacity10:00000000 SCSI_ReadCapacity10
C:\Users\Admin\AppData\Local\Temp\ccCPzby3.s:1249   .text.SCSI_ReadCapacity16:00000000 $t
C:\Users\Admin\AppData\Local\Temp\ccCPzby3.s:1255   .text.SCSI_ReadCapacity16:00000000 SCSI_ReadCapacity16
C:\Users\Admin\AppData\Local\Temp\ccCPzby3.s:1449   .text.SCSI_CheckAddressRange:00000000 $t
C:\Users\Admin\AppData\Local\Temp\ccCPzby3.s:1455   .text.SCSI_CheckAddressRange:00000000 SCSI_CheckAddressRange
C:\Users\Admin\AppData\Local\Temp\ccCPzby3.s:1513   .text.SCSI_ProcessRead:00000000 $t
C:\Users\Admin\AppData\Local\Temp\ccCPzby3.s:1519   .text.SCSI_ProcessRead:00000000 SCSI_ProcessRead
C:\Users\Admin\AppData\Local\Temp\ccCPzby3.s:1656   .text.SCSI_Read10:00000000 $t
C:\Users\Admin\AppData\Local\Temp\ccCPzby3.s:1662   .text.SCSI_Read10:00000000 SCSI_Read10
C:\Users\Admin\AppData\Local\Temp\ccCPzby3.s:1857   .text.SCSI_Read12:00000000 $t
C:\Users\Admin\AppData\Local\Temp\ccCPzby3.s:1863   .text.SCSI_Read12:00000000 SCSI_Read12
C:\Users\Admin\AppData\Local\Temp\ccCPzby3.s:2069   .text.SCSI_ProcessWrite:00000000 $t
C:\Users\Admin\AppData\Local\Temp\ccCPzby3.s:2075   .text.SCSI_ProcessWrite:00000000 SCSI_ProcessWrite
C:\Users\Admin\AppData\Local\Temp\ccCPzby3.s:2223   .text.SCSI_Write10:00000000 $t
C:\Users\Admin\AppData\Local\Temp\ccCPzby3.s:2229   .text.SCSI_Write10:00000000 SCSI_Write10
C:\Users\Admin\AppData\Local\Temp\ccCPzby3.s:2470   .text.SCSI_Write12:00000000 $t
C:\Users\Admin\AppData\Local\Temp\ccCPzby3.s:2476   .text.SCSI_Write12:00000000 SCSI_Write12
C:\Users\Admin\AppData\Local\Temp\ccCPzby3.s:2735   .text.SCSI_Verify10:00000000 $t
C:\Users\Admin\AppData\Local\Temp\ccCPzby3.s:2741   .text.SCSI_Verify10:00000000 SCSI_Verify10
C:\Users\Admin\AppData\Local\Temp\ccCPzby3.s:2815   .text.SCSI_ProcessCmd:00000000 $t
C:\Users\Admin\AppData\Local\Temp\ccCPzby3.s:2822   .text.SCSI_ProcessCmd:00000000 SCSI_ProcessCmd
C:\Users\Admin\AppData\Local\Temp\ccCPzby3.s:2854   .text.SCSI_ProcessCmd:00000018 $d
C:\Users\Admin\AppData\Local\Temp\ccCPzby3.s:2945   .text.SCSI_ProcessCmd:00000073 $d
C:\Users\Admin\AppData\Local\Temp\ccCPzby3.s:2945   .text.SCSI_ProcessCmd:00000074 $t

UNDEFINED SYMBOLS
MSC_Mode_Sense6_data
MSC_Mode_Sense10_data
MSC_Page80_Inquiry_Data
MSC_Page00_Inquiry_Data
USBD_LL_Transmit
ARM GAS  C:\Users\Admin\AppData\Local\Temp\ccCPzby3.s 			page 94


MSC_BOT_SendCSW
USBD_LL_PrepareReceive
