ARM GAS  C:\Users\Admin\AppData\Local\Temp\ccukIInD.s 			page 1


   1              		.cpu cortex-m4
   2              		.eabi_attribute 27, 1
   3              		.eabi_attribute 28, 1
   4              		.eabi_attribute 20, 1
   5              		.eabi_attribute 21, 1
   6              		.eabi_attribute 23, 3
   7              		.eabi_attribute 24, 1
   8              		.eabi_attribute 25, 1
   9              		.eabi_attribute 26, 1
  10              		.eabi_attribute 30, 1
  11              		.eabi_attribute 34, 1
  12              		.eabi_attribute 18, 4
  13              		.file	"user_diskio_spi.c"
  14              		.text
  15              	.Ltext0:
  16              		.cfi_sections	.debug_frame
  17              		.section	.text.xchg_spi,"ax",%progbits
  18              		.align	1
  19              		.arch armv7e-m
  20              		.syntax unified
  21              		.thumb
  22              		.thumb_func
  23              		.fpu fpv4-sp-d16
  25              	xchg_spi:
  26              	.LVL0:
  27              	.LFB134:
  28              		.file 1 "FATFS/Target/user_diskio_spi.c"
   1:FATFS/Target/user_diskio_spi.c **** /**
   2:FATFS/Target/user_diskio_spi.c ****  ******************************************************************************
   3:FATFS/Target/user_diskio_spi.c ****   * @file    user_diskio_spi.c
   4:FATFS/Target/user_diskio_spi.c ****   * @brief   This file contains the implementation of the user_diskio_spi FatFs
   5:FATFS/Target/user_diskio_spi.c ****   *          driver.
   6:FATFS/Target/user_diskio_spi.c ****   ******************************************************************************
   7:FATFS/Target/user_diskio_spi.c ****   * Portions copyright (C) 2014, ChaN, all rights reserved.
   8:FATFS/Target/user_diskio_spi.c ****   * Portions copyright (C) 2017, kiwih, all rights reserved.
   9:FATFS/Target/user_diskio_spi.c ****   *
  10:FATFS/Target/user_diskio_spi.c ****   * This software is a free software and there is NO WARRANTY.
  11:FATFS/Target/user_diskio_spi.c ****   * No restriction on use. You can use, modify and redistribute it for
  12:FATFS/Target/user_diskio_spi.c ****   * personal, non-profit or commercial products UNDER YOUR RESPONSIBILITY.
  13:FATFS/Target/user_diskio_spi.c ****   * Redistributions of source code must retain the above copyright notice.
  14:FATFS/Target/user_diskio_spi.c ****   *
  15:FATFS/Target/user_diskio_spi.c ****   ******************************************************************************
  16:FATFS/Target/user_diskio_spi.c ****   */
  17:FATFS/Target/user_diskio_spi.c **** 
  18:FATFS/Target/user_diskio_spi.c **** //This code was ported by kiwih from a copywrited (C) library written by ChaN
  19:FATFS/Target/user_diskio_spi.c **** //available at http://elm-chan.org/fsw/ff/ffsample.zip
  20:FATFS/Target/user_diskio_spi.c **** //(text at http://elm-chan.org/fsw/ff/00index_e.html)
  21:FATFS/Target/user_diskio_spi.c **** 
  22:FATFS/Target/user_diskio_spi.c **** //This file provides the FatFs driver functions and SPI code required to manage
  23:FATFS/Target/user_diskio_spi.c **** //an SPI-connected MMC or compatible SD card with FAT
  24:FATFS/Target/user_diskio_spi.c **** 
  25:FATFS/Target/user_diskio_spi.c **** //It is designed to be wrapped by a cubemx generated user_diskio.c file.
  26:FATFS/Target/user_diskio_spi.c **** 
  27:FATFS/Target/user_diskio_spi.c **** #include "stm32l4xx_hal.h" /* Provide the low-level HAL functions */
  28:FATFS/Target/user_diskio_spi.c **** #include "user_diskio_spi.h"
  29:FATFS/Target/user_diskio_spi.c **** 
  30:FATFS/Target/user_diskio_spi.c **** //Make sure you set #define SD_SPI_HANDLE as some hspix in main.h
ARM GAS  C:\Users\Admin\AppData\Local\Temp\ccukIInD.s 			page 2


  31:FATFS/Target/user_diskio_spi.c **** //Make sure you set #define SD_CS_GPIO_Port as some GPIO port in main.h
  32:FATFS/Target/user_diskio_spi.c **** //Make sure you set #define SD_CS_Pin as some GPIO pin in main.h
  33:FATFS/Target/user_diskio_spi.c **** extern SPI_HandleTypeDef SD_SPI_HANDLE;
  34:FATFS/Target/user_diskio_spi.c **** 
  35:FATFS/Target/user_diskio_spi.c **** /* Function prototypes */
  36:FATFS/Target/user_diskio_spi.c **** 
  37:FATFS/Target/user_diskio_spi.c **** //(Note that the _256 is used as a mask to clear the prescalar bits as it provides binary 111 in th
  38:FATFS/Target/user_diskio_spi.c **** #define FCLK_SLOW() { MODIFY_REG(SD_SPI_HANDLE.Instance->CR1, SPI_BAUDRATEPRESCALER_256, SPI_BAUDRA
  39:FATFS/Target/user_diskio_spi.c **** #define FCLK_FAST() { MODIFY_REG(SD_SPI_HANDLE.Instance->CR1, SPI_BAUDRATEPRESCALER_256, SPI_BAUDRA
  40:FATFS/Target/user_diskio_spi.c **** 
  41:FATFS/Target/user_diskio_spi.c **** #define CS_HIGH()	{HAL_GPIO_WritePin(SD_CS_GPIO_Port, SD_CS_Pin, GPIO_PIN_SET);}
  42:FATFS/Target/user_diskio_spi.c **** #define CS_LOW()	{HAL_GPIO_WritePin(SD_CS_GPIO_Port, SD_CS_Pin, GPIO_PIN_RESET);}
  43:FATFS/Target/user_diskio_spi.c **** 
  44:FATFS/Target/user_diskio_spi.c **** /*--------------------------------------------------------------------------
  45:FATFS/Target/user_diskio_spi.c **** 
  46:FATFS/Target/user_diskio_spi.c ****    Module Private Functions
  47:FATFS/Target/user_diskio_spi.c **** 
  48:FATFS/Target/user_diskio_spi.c **** ---------------------------------------------------------------------------*/
  49:FATFS/Target/user_diskio_spi.c **** 
  50:FATFS/Target/user_diskio_spi.c **** /* MMC/SD command */
  51:FATFS/Target/user_diskio_spi.c **** #define CMD0	(0)			/* GO_IDLE_STATE */
  52:FATFS/Target/user_diskio_spi.c **** #define CMD1	(1)			/* SEND_OP_COND (MMC) */
  53:FATFS/Target/user_diskio_spi.c **** #define	ACMD41	(0x80+41)	/* SEND_OP_COND (SDC) */
  54:FATFS/Target/user_diskio_spi.c **** #define CMD8	(8)			/* SEND_IF_COND */
  55:FATFS/Target/user_diskio_spi.c **** #define CMD9	(9)			/* SEND_CSD */
  56:FATFS/Target/user_diskio_spi.c **** #define CMD10	(10)		/* SEND_CID */
  57:FATFS/Target/user_diskio_spi.c **** #define CMD12	(12)		/* STOP_TRANSMISSION */
  58:FATFS/Target/user_diskio_spi.c **** #define ACMD13	(0x80+13)	/* SD_STATUS (SDC) */
  59:FATFS/Target/user_diskio_spi.c **** #define CMD16	(16)		/* SET_BLOCKLEN */
  60:FATFS/Target/user_diskio_spi.c **** #define CMD17	(17)		/* READ_SINGLE_BLOCK */
  61:FATFS/Target/user_diskio_spi.c **** #define CMD18	(18)		/* READ_MULTIPLE_BLOCK */
  62:FATFS/Target/user_diskio_spi.c **** #define CMD23	(23)		/* SET_BLOCK_COUNT (MMC) */
  63:FATFS/Target/user_diskio_spi.c **** #define	ACMD23	(0x80+23)	/* SET_WR_BLK_ERASE_COUNT (SDC) */
  64:FATFS/Target/user_diskio_spi.c **** #define CMD24	(24)		/* WRITE_BLOCK */
  65:FATFS/Target/user_diskio_spi.c **** #define CMD25	(25)		/* WRITE_MULTIPLE_BLOCK */
  66:FATFS/Target/user_diskio_spi.c **** #define CMD32	(32)		/* ERASE_ER_BLK_START */
  67:FATFS/Target/user_diskio_spi.c **** #define CMD33	(33)		/* ERASE_ER_BLK_END */
  68:FATFS/Target/user_diskio_spi.c **** #define CMD38	(38)		/* ERASE */
  69:FATFS/Target/user_diskio_spi.c **** #define CMD55	(55)		/* APP_CMD */
  70:FATFS/Target/user_diskio_spi.c **** #define CMD58	(58)		/* READ_OCR */
  71:FATFS/Target/user_diskio_spi.c **** 
  72:FATFS/Target/user_diskio_spi.c **** /* MMC card type flags (MMC_GET_TYPE) */
  73:FATFS/Target/user_diskio_spi.c **** #define CT_MMC		0x01		/* MMC ver 3 */
  74:FATFS/Target/user_diskio_spi.c **** #define CT_SD1		0x02		/* SD ver 1 */
  75:FATFS/Target/user_diskio_spi.c **** #define CT_SD2		0x04		/* SD ver 2 */
  76:FATFS/Target/user_diskio_spi.c **** #define CT_SDC		(CT_SD1|CT_SD2)	/* SD */
  77:FATFS/Target/user_diskio_spi.c **** #define CT_BLOCK	0x08		/* Block addressing */
  78:FATFS/Target/user_diskio_spi.c **** 
  79:FATFS/Target/user_diskio_spi.c **** static volatile
  80:FATFS/Target/user_diskio_spi.c **** DSTATUS Stat = STA_NOINIT;	/* Physical drive status */
  81:FATFS/Target/user_diskio_spi.c **** 
  82:FATFS/Target/user_diskio_spi.c **** 
  83:FATFS/Target/user_diskio_spi.c **** static
  84:FATFS/Target/user_diskio_spi.c **** BYTE CardType;			/* Card type flags */
  85:FATFS/Target/user_diskio_spi.c **** 
  86:FATFS/Target/user_diskio_spi.c **** uint32_t spiTimerTickStart;
  87:FATFS/Target/user_diskio_spi.c **** uint32_t spiTimerTickDelay;
ARM GAS  C:\Users\Admin\AppData\Local\Temp\ccukIInD.s 			page 3


  88:FATFS/Target/user_diskio_spi.c **** 
  89:FATFS/Target/user_diskio_spi.c **** void SPI_Timer_On(uint32_t waitTicks) {
  90:FATFS/Target/user_diskio_spi.c ****     spiTimerTickStart = HAL_GetTick();
  91:FATFS/Target/user_diskio_spi.c ****     spiTimerTickDelay = waitTicks;
  92:FATFS/Target/user_diskio_spi.c **** }
  93:FATFS/Target/user_diskio_spi.c **** 
  94:FATFS/Target/user_diskio_spi.c **** uint8_t SPI_Timer_Status() {
  95:FATFS/Target/user_diskio_spi.c ****     return ((HAL_GetTick() - spiTimerTickStart) < spiTimerTickDelay);
  96:FATFS/Target/user_diskio_spi.c **** }
  97:FATFS/Target/user_diskio_spi.c **** 
  98:FATFS/Target/user_diskio_spi.c **** /*-----------------------------------------------------------------------*/
  99:FATFS/Target/user_diskio_spi.c **** /* SPI controls (Platform dependent)                                     */
 100:FATFS/Target/user_diskio_spi.c **** /*-----------------------------------------------------------------------*/
 101:FATFS/Target/user_diskio_spi.c **** 
 102:FATFS/Target/user_diskio_spi.c **** /* Exchange a byte */
 103:FATFS/Target/user_diskio_spi.c **** static
 104:FATFS/Target/user_diskio_spi.c **** BYTE xchg_spi (
 105:FATFS/Target/user_diskio_spi.c **** 	BYTE dat	/* Data to send */
 106:FATFS/Target/user_diskio_spi.c **** )
 107:FATFS/Target/user_diskio_spi.c **** {
  29              		.loc 1 107 1 view -0
  30              		.cfi_startproc
  31              		@ args = 0, pretend = 0, frame = 16
  32              		@ frame_needed = 0, uses_anonymous_args = 0
  33              		.loc 1 107 1 is_stmt 0 view .LVU1
  34 0000 00B5     		push	{lr}
  35              	.LCFI0:
  36              		.cfi_def_cfa_offset 4
  37              		.cfi_offset 14, -4
  38 0002 87B0     		sub	sp, sp, #28
  39              	.LCFI1:
  40              		.cfi_def_cfa_offset 32
  41 0004 8DF80F00 		strb	r0, [sp, #15]
 108:FATFS/Target/user_diskio_spi.c **** 	BYTE rxDat;
  42              		.loc 1 108 2 is_stmt 1 view .LVU2
 109:FATFS/Target/user_diskio_spi.c ****     HAL_SPI_TransmitReceive(&SD_SPI_HANDLE, &dat, &rxDat, 1, 50);
  43              		.loc 1 109 5 view .LVU3
  44 0008 3223     		movs	r3, #50
  45 000a 0093     		str	r3, [sp]
  46 000c 0123     		movs	r3, #1
  47 000e 0DF11702 		add	r2, sp, #23
  48 0012 0DF10F01 		add	r1, sp, #15
  49 0016 0448     		ldr	r0, .L3
  50              	.LVL1:
  51              		.loc 1 109 5 is_stmt 0 view .LVU4
  52 0018 FFF7FEFF 		bl	HAL_SPI_TransmitReceive
  53              	.LVL2:
 110:FATFS/Target/user_diskio_spi.c ****     return rxDat;
  54              		.loc 1 110 5 is_stmt 1 view .LVU5
 111:FATFS/Target/user_diskio_spi.c **** }
  55              		.loc 1 111 1 is_stmt 0 view .LVU6
  56 001c 9DF81700 		ldrb	r0, [sp, #23]	@ zero_extendqisi2
  57 0020 07B0     		add	sp, sp, #28
  58              	.LCFI2:
  59              		.cfi_def_cfa_offset 4
  60              		@ sp needed
  61 0022 5DF804FB 		ldr	pc, [sp], #4
ARM GAS  C:\Users\Admin\AppData\Local\Temp\ccukIInD.s 			page 4


  62              	.L4:
  63 0026 00BF     		.align	2
  64              	.L3:
  65 0028 00000000 		.word	hspi2
  66              		.cfi_endproc
  67              	.LFE134:
  69              		.section	.text.wait_ready,"ax",%progbits
  70              		.align	1
  71              		.syntax unified
  72              		.thumb
  73              		.thumb_func
  74              		.fpu fpv4-sp-d16
  76              	wait_ready:
  77              	.LVL3:
  78              	.LFB137:
 112:FATFS/Target/user_diskio_spi.c **** 
 113:FATFS/Target/user_diskio_spi.c **** 
 114:FATFS/Target/user_diskio_spi.c **** /* Receive multiple byte */
 115:FATFS/Target/user_diskio_spi.c **** static
 116:FATFS/Target/user_diskio_spi.c **** void rcvr_spi_multi (
 117:FATFS/Target/user_diskio_spi.c **** 	BYTE *buff,		/* Pointer to data buffer */
 118:FATFS/Target/user_diskio_spi.c **** 	UINT btr		/* Number of bytes to receive (even number) */
 119:FATFS/Target/user_diskio_spi.c **** )
 120:FATFS/Target/user_diskio_spi.c **** {
 121:FATFS/Target/user_diskio_spi.c **** 	for(UINT i=0; i<btr; i++) {
 122:FATFS/Target/user_diskio_spi.c **** 		*(buff+i) = xchg_spi(0xFF);
 123:FATFS/Target/user_diskio_spi.c **** 	}
 124:FATFS/Target/user_diskio_spi.c **** }
 125:FATFS/Target/user_diskio_spi.c **** 
 126:FATFS/Target/user_diskio_spi.c **** 
 127:FATFS/Target/user_diskio_spi.c **** #if _USE_WRITE
 128:FATFS/Target/user_diskio_spi.c **** /* Send multiple byte */
 129:FATFS/Target/user_diskio_spi.c **** static
 130:FATFS/Target/user_diskio_spi.c **** void xmit_spi_multi (
 131:FATFS/Target/user_diskio_spi.c **** 	const BYTE *buff,	/* Pointer to the data */
 132:FATFS/Target/user_diskio_spi.c **** 	UINT btx			/* Number of bytes to send (even number) */
 133:FATFS/Target/user_diskio_spi.c **** )
 134:FATFS/Target/user_diskio_spi.c **** {
 135:FATFS/Target/user_diskio_spi.c **** 	for(UINT i=0; i<btx; i++) {
 136:FATFS/Target/user_diskio_spi.c **** 		xchg_spi(*(buff+i));
 137:FATFS/Target/user_diskio_spi.c **** 	}
 138:FATFS/Target/user_diskio_spi.c **** }
 139:FATFS/Target/user_diskio_spi.c **** #endif
 140:FATFS/Target/user_diskio_spi.c **** 
 141:FATFS/Target/user_diskio_spi.c **** 
 142:FATFS/Target/user_diskio_spi.c **** /*-----------------------------------------------------------------------*/
 143:FATFS/Target/user_diskio_spi.c **** /* Wait for card ready                                                   */
 144:FATFS/Target/user_diskio_spi.c **** /*-----------------------------------------------------------------------*/
 145:FATFS/Target/user_diskio_spi.c **** 
 146:FATFS/Target/user_diskio_spi.c **** static
 147:FATFS/Target/user_diskio_spi.c **** int wait_ready (	/* 1:Ready, 0:Timeout */
 148:FATFS/Target/user_diskio_spi.c **** 	UINT wt			/* Timeout [ms] */
 149:FATFS/Target/user_diskio_spi.c **** )
 150:FATFS/Target/user_diskio_spi.c **** {
  79              		.loc 1 150 1 is_stmt 1 view -0
  80              		.cfi_startproc
  81              		@ args = 0, pretend = 0, frame = 0
ARM GAS  C:\Users\Admin\AppData\Local\Temp\ccukIInD.s 			page 5


  82              		@ frame_needed = 0, uses_anonymous_args = 0
  83              		.loc 1 150 1 is_stmt 0 view .LVU8
  84 0000 70B5     		push	{r4, r5, r6, lr}
  85              	.LCFI3:
  86              		.cfi_def_cfa_offset 16
  87              		.cfi_offset 4, -16
  88              		.cfi_offset 5, -12
  89              		.cfi_offset 6, -8
  90              		.cfi_offset 14, -4
  91 0002 0646     		mov	r6, r0
 151:FATFS/Target/user_diskio_spi.c **** 	BYTE d;
  92              		.loc 1 151 2 is_stmt 1 view .LVU9
 152:FATFS/Target/user_diskio_spi.c **** 	//wait_ready needs its own timer, unfortunately, so it can't use the
 153:FATFS/Target/user_diskio_spi.c **** 	//spi_timer functions
 154:FATFS/Target/user_diskio_spi.c **** 	uint32_t waitSpiTimerTickStart;
  93              		.loc 1 154 2 view .LVU10
 155:FATFS/Target/user_diskio_spi.c **** 	uint32_t waitSpiTimerTickDelay;
  94              		.loc 1 155 2 view .LVU11
 156:FATFS/Target/user_diskio_spi.c **** 
 157:FATFS/Target/user_diskio_spi.c **** 	waitSpiTimerTickStart = HAL_GetTick();
  95              		.loc 1 157 2 view .LVU12
  96              		.loc 1 157 26 is_stmt 0 view .LVU13
  97 0004 FFF7FEFF 		bl	HAL_GetTick
  98              	.LVL4:
  99              		.loc 1 157 26 view .LVU14
 100 0008 0546     		mov	r5, r0
 101              	.LVL5:
 158:FATFS/Target/user_diskio_spi.c **** 	waitSpiTimerTickDelay = (uint32_t)wt;
 102              		.loc 1 158 2 is_stmt 1 view .LVU15
 103              	.L7:
 159:FATFS/Target/user_diskio_spi.c **** 	do {
 104              		.loc 1 159 2 discriminator 2 view .LVU16
 160:FATFS/Target/user_diskio_spi.c **** 		d = xchg_spi(0xFF);
 105              		.loc 1 160 3 discriminator 2 view .LVU17
 106              		.loc 1 160 7 is_stmt 0 discriminator 2 view .LVU18
 107 000a FF20     		movs	r0, #255
 108 000c FFF7FEFF 		bl	xchg_spi
 109              	.LVL6:
 110 0010 0446     		mov	r4, r0
 111              	.LVL7:
 161:FATFS/Target/user_diskio_spi.c **** 		/* This loop takes a time. Insert rot_rdq() here for multitask envilonment. */
 162:FATFS/Target/user_diskio_spi.c **** 	} while (d != 0xFF && ((HAL_GetTick() - waitSpiTimerTickStart) < waitSpiTimerTickDelay));	/* Wait 
 112              		.loc 1 162 10 is_stmt 1 discriminator 2 view .LVU19
 113              		.loc 1 162 2 is_stmt 0 discriminator 2 view .LVU20
 114 0012 FF28     		cmp	r0, #255
 115 0014 04D0     		beq	.L6
 116              		.loc 1 162 26 discriminator 1 view .LVU21
 117 0016 FFF7FEFF 		bl	HAL_GetTick
 118              	.LVL8:
 119              		.loc 1 162 40 discriminator 1 view .LVU22
 120 001a 401B     		subs	r0, r0, r5
 121              		.loc 1 162 21 discriminator 1 view .LVU23
 122 001c B042     		cmp	r0, r6
 123 001e F4D3     		bcc	.L7
 124              	.L6:
 163:FATFS/Target/user_diskio_spi.c **** 
 164:FATFS/Target/user_diskio_spi.c **** 	return (d == 0xFF) ? 1 : 0;
ARM GAS  C:\Users\Admin\AppData\Local\Temp\ccukIInD.s 			page 6


 125              		.loc 1 164 2 is_stmt 1 view .LVU24
 165:FATFS/Target/user_diskio_spi.c **** }
 126              		.loc 1 165 1 is_stmt 0 view .LVU25
 127 0020 FF2C     		cmp	r4, #255
 128 0022 14BF     		ite	ne
 129 0024 0020     		movne	r0, #0
 130 0026 0120     		moveq	r0, #1
 131 0028 70BD     		pop	{r4, r5, r6, pc}
 132              		.loc 1 165 1 view .LVU26
 133              		.cfi_endproc
 134              	.LFE137:
 136              		.section	.text.rcvr_spi_multi,"ax",%progbits
 137              		.align	1
 138              		.syntax unified
 139              		.thumb
 140              		.thumb_func
 141              		.fpu fpv4-sp-d16
 143              	rcvr_spi_multi:
 144              	.LVL9:
 145              	.LFB135:
 120:FATFS/Target/user_diskio_spi.c **** 	for(UINT i=0; i<btr; i++) {
 146              		.loc 1 120 1 is_stmt 1 view -0
 147              		.cfi_startproc
 148              		@ args = 0, pretend = 0, frame = 0
 149              		@ frame_needed = 0, uses_anonymous_args = 0
 120:FATFS/Target/user_diskio_spi.c **** 	for(UINT i=0; i<btr; i++) {
 150              		.loc 1 120 1 is_stmt 0 view .LVU28
 151 0000 70B5     		push	{r4, r5, r6, lr}
 152              	.LCFI4:
 153              		.cfi_def_cfa_offset 16
 154              		.cfi_offset 4, -16
 155              		.cfi_offset 5, -12
 156              		.cfi_offset 6, -8
 157              		.cfi_offset 14, -4
 158 0002 0646     		mov	r6, r0
 159 0004 0D46     		mov	r5, r1
 121:FATFS/Target/user_diskio_spi.c **** 		*(buff+i) = xchg_spi(0xFF);
 160              		.loc 1 121 2 is_stmt 1 view .LVU29
 161              	.LBB2:
 121:FATFS/Target/user_diskio_spi.c **** 		*(buff+i) = xchg_spi(0xFF);
 162              		.loc 1 121 6 view .LVU30
 163              	.LVL10:
 121:FATFS/Target/user_diskio_spi.c **** 		*(buff+i) = xchg_spi(0xFF);
 164              		.loc 1 121 11 is_stmt 0 view .LVU31
 165 0006 0024     		movs	r4, #0
 166              	.LVL11:
 167              	.L10:
 121:FATFS/Target/user_diskio_spi.c **** 		*(buff+i) = xchg_spi(0xFF);
 168              		.loc 1 121 16 is_stmt 1 discriminator 1 view .LVU32
 121:FATFS/Target/user_diskio_spi.c **** 		*(buff+i) = xchg_spi(0xFF);
 169              		.loc 1 121 2 is_stmt 0 discriminator 1 view .LVU33
 170 0008 AC42     		cmp	r4, r5
 171 000a 05D2     		bcs	.L13
 122:FATFS/Target/user_diskio_spi.c **** 	}
 172              		.loc 1 122 3 is_stmt 1 discriminator 3 view .LVU34
 122:FATFS/Target/user_diskio_spi.c **** 	}
 173              		.loc 1 122 15 is_stmt 0 discriminator 3 view .LVU35
ARM GAS  C:\Users\Admin\AppData\Local\Temp\ccukIInD.s 			page 7


 174 000c FF20     		movs	r0, #255
 175 000e FFF7FEFF 		bl	xchg_spi
 176              	.LVL12:
 122:FATFS/Target/user_diskio_spi.c **** 	}
 177              		.loc 1 122 13 discriminator 3 view .LVU36
 178 0012 3055     		strb	r0, [r6, r4]
 121:FATFS/Target/user_diskio_spi.c **** 		*(buff+i) = xchg_spi(0xFF);
 179              		.loc 1 121 23 is_stmt 1 discriminator 3 view .LVU37
 121:FATFS/Target/user_diskio_spi.c **** 		*(buff+i) = xchg_spi(0xFF);
 180              		.loc 1 121 24 is_stmt 0 discriminator 3 view .LVU38
 181 0014 0134     		adds	r4, r4, #1
 182              	.LVL13:
 121:FATFS/Target/user_diskio_spi.c **** 		*(buff+i) = xchg_spi(0xFF);
 183              		.loc 1 121 24 discriminator 3 view .LVU39
 184 0016 F7E7     		b	.L10
 185              	.L13:
 121:FATFS/Target/user_diskio_spi.c **** 		*(buff+i) = xchg_spi(0xFF);
 186              		.loc 1 121 24 discriminator 3 view .LVU40
 187              	.LBE2:
 124:FATFS/Target/user_diskio_spi.c **** 
 188              		.loc 1 124 1 view .LVU41
 189 0018 70BD     		pop	{r4, r5, r6, pc}
 124:FATFS/Target/user_diskio_spi.c **** 
 190              		.loc 1 124 1 view .LVU42
 191              		.cfi_endproc
 192              	.LFE135:
 194              		.section	.text.xmit_spi_multi,"ax",%progbits
 195              		.align	1
 196              		.syntax unified
 197              		.thumb
 198              		.thumb_func
 199              		.fpu fpv4-sp-d16
 201              	xmit_spi_multi:
 202              	.LVL14:
 203              	.LFB136:
 134:FATFS/Target/user_diskio_spi.c **** 	for(UINT i=0; i<btx; i++) {
 204              		.loc 1 134 1 is_stmt 1 view -0
 205              		.cfi_startproc
 206              		@ args = 0, pretend = 0, frame = 0
 207              		@ frame_needed = 0, uses_anonymous_args = 0
 134:FATFS/Target/user_diskio_spi.c **** 	for(UINT i=0; i<btx; i++) {
 208              		.loc 1 134 1 is_stmt 0 view .LVU44
 209 0000 70B5     		push	{r4, r5, r6, lr}
 210              	.LCFI5:
 211              		.cfi_def_cfa_offset 16
 212              		.cfi_offset 4, -16
 213              		.cfi_offset 5, -12
 214              		.cfi_offset 6, -8
 215              		.cfi_offset 14, -4
 216 0002 0646     		mov	r6, r0
 217 0004 0D46     		mov	r5, r1
 135:FATFS/Target/user_diskio_spi.c **** 		xchg_spi(*(buff+i));
 218              		.loc 1 135 2 is_stmt 1 view .LVU45
 219              	.LBB3:
 135:FATFS/Target/user_diskio_spi.c **** 		xchg_spi(*(buff+i));
 220              		.loc 1 135 6 view .LVU46
 221              	.LVL15:
ARM GAS  C:\Users\Admin\AppData\Local\Temp\ccukIInD.s 			page 8


 135:FATFS/Target/user_diskio_spi.c **** 		xchg_spi(*(buff+i));
 222              		.loc 1 135 11 is_stmt 0 view .LVU47
 223 0006 0024     		movs	r4, #0
 224              	.LVL16:
 225              	.L15:
 135:FATFS/Target/user_diskio_spi.c **** 		xchg_spi(*(buff+i));
 226              		.loc 1 135 16 is_stmt 1 discriminator 1 view .LVU48
 135:FATFS/Target/user_diskio_spi.c **** 		xchg_spi(*(buff+i));
 227              		.loc 1 135 2 is_stmt 0 discriminator 1 view .LVU49
 228 0008 AC42     		cmp	r4, r5
 229 000a 04D2     		bcs	.L18
 136:FATFS/Target/user_diskio_spi.c **** 	}
 230              		.loc 1 136 3 is_stmt 1 discriminator 3 view .LVU50
 231 000c 305D     		ldrb	r0, [r6, r4]	@ zero_extendqisi2
 232 000e FFF7FEFF 		bl	xchg_spi
 233              	.LVL17:
 135:FATFS/Target/user_diskio_spi.c **** 		xchg_spi(*(buff+i));
 234              		.loc 1 135 23 discriminator 3 view .LVU51
 135:FATFS/Target/user_diskio_spi.c **** 		xchg_spi(*(buff+i));
 235              		.loc 1 135 24 is_stmt 0 discriminator 3 view .LVU52
 236 0012 0134     		adds	r4, r4, #1
 237              	.LVL18:
 135:FATFS/Target/user_diskio_spi.c **** 		xchg_spi(*(buff+i));
 238              		.loc 1 135 24 discriminator 3 view .LVU53
 239 0014 F8E7     		b	.L15
 240              	.L18:
 135:FATFS/Target/user_diskio_spi.c **** 		xchg_spi(*(buff+i));
 241              		.loc 1 135 24 discriminator 3 view .LVU54
 242              	.LBE3:
 138:FATFS/Target/user_diskio_spi.c **** #endif
 243              		.loc 1 138 1 view .LVU55
 244 0016 70BD     		pop	{r4, r5, r6, pc}
 138:FATFS/Target/user_diskio_spi.c **** #endif
 245              		.loc 1 138 1 view .LVU56
 246              		.cfi_endproc
 247              	.LFE136:
 249              		.section	.text.xmit_datablock,"ax",%progbits
 250              		.align	1
 251              		.syntax unified
 252              		.thumb
 253              		.thumb_func
 254              		.fpu fpv4-sp-d16
 256              	xmit_datablock:
 257              	.LVL19:
 258              	.LFB141:
 166:FATFS/Target/user_diskio_spi.c **** 
 167:FATFS/Target/user_diskio_spi.c **** 
 168:FATFS/Target/user_diskio_spi.c **** 
 169:FATFS/Target/user_diskio_spi.c **** /*-----------------------------------------------------------------------*/
 170:FATFS/Target/user_diskio_spi.c **** /* Despiselect card and release SPI                                         */
 171:FATFS/Target/user_diskio_spi.c **** /*-----------------------------------------------------------------------*/
 172:FATFS/Target/user_diskio_spi.c **** 
 173:FATFS/Target/user_diskio_spi.c **** static
 174:FATFS/Target/user_diskio_spi.c **** void despiselect (void)
 175:FATFS/Target/user_diskio_spi.c **** {
 176:FATFS/Target/user_diskio_spi.c **** 	CS_HIGH();		/* Set CS# high */
 177:FATFS/Target/user_diskio_spi.c **** 	xchg_spi(0xFF);	/* Dummy clock (force DO hi-z for multiple slave SPI) */
ARM GAS  C:\Users\Admin\AppData\Local\Temp\ccukIInD.s 			page 9


 178:FATFS/Target/user_diskio_spi.c **** 
 179:FATFS/Target/user_diskio_spi.c **** }
 180:FATFS/Target/user_diskio_spi.c **** 
 181:FATFS/Target/user_diskio_spi.c **** 
 182:FATFS/Target/user_diskio_spi.c **** 
 183:FATFS/Target/user_diskio_spi.c **** /*-----------------------------------------------------------------------*/
 184:FATFS/Target/user_diskio_spi.c **** /* Select card and wait for ready                                        */
 185:FATFS/Target/user_diskio_spi.c **** /*-----------------------------------------------------------------------*/
 186:FATFS/Target/user_diskio_spi.c **** 
 187:FATFS/Target/user_diskio_spi.c **** static
 188:FATFS/Target/user_diskio_spi.c **** int spiselect (void)	/* 1:OK, 0:Timeout */
 189:FATFS/Target/user_diskio_spi.c **** {
 190:FATFS/Target/user_diskio_spi.c **** 	CS_LOW();		/* Set CS# low */
 191:FATFS/Target/user_diskio_spi.c **** 	xchg_spi(0xFF);	/* Dummy clock (force DO enabled) */
 192:FATFS/Target/user_diskio_spi.c **** 	if (wait_ready(500)) return 1;	/* Wait for card ready */
 193:FATFS/Target/user_diskio_spi.c **** 
 194:FATFS/Target/user_diskio_spi.c **** 	despiselect();
 195:FATFS/Target/user_diskio_spi.c **** 	return 0;	/* Timeout */
 196:FATFS/Target/user_diskio_spi.c **** }
 197:FATFS/Target/user_diskio_spi.c **** 
 198:FATFS/Target/user_diskio_spi.c **** 
 199:FATFS/Target/user_diskio_spi.c **** 
 200:FATFS/Target/user_diskio_spi.c **** /*-----------------------------------------------------------------------*/
 201:FATFS/Target/user_diskio_spi.c **** /* Receive a data packet from the MMC                                    */
 202:FATFS/Target/user_diskio_spi.c **** /*-----------------------------------------------------------------------*/
 203:FATFS/Target/user_diskio_spi.c **** 
 204:FATFS/Target/user_diskio_spi.c **** static
 205:FATFS/Target/user_diskio_spi.c **** int rcvr_datablock (	/* 1:OK, 0:Error */
 206:FATFS/Target/user_diskio_spi.c **** 	BYTE *buff,			/* Data buffer */
 207:FATFS/Target/user_diskio_spi.c **** 	UINT btr			/* Data block length (byte) */
 208:FATFS/Target/user_diskio_spi.c **** )
 209:FATFS/Target/user_diskio_spi.c **** {
 210:FATFS/Target/user_diskio_spi.c **** 	BYTE token;
 211:FATFS/Target/user_diskio_spi.c **** 
 212:FATFS/Target/user_diskio_spi.c **** 
 213:FATFS/Target/user_diskio_spi.c **** 	SPI_Timer_On(200);
 214:FATFS/Target/user_diskio_spi.c **** 	do {							/* Wait for DataStart token in timeout of 200ms */
 215:FATFS/Target/user_diskio_spi.c **** 		token = xchg_spi(0xFF);
 216:FATFS/Target/user_diskio_spi.c **** 		/* This loop will take a time. Insert rot_rdq() here for multitask envilonment. */
 217:FATFS/Target/user_diskio_spi.c **** 	} while ((token == 0xFF) && SPI_Timer_Status());
 218:FATFS/Target/user_diskio_spi.c **** 	if(token != 0xFE) return 0;		/* Function fails if invalid DataStart token or timeout */
 219:FATFS/Target/user_diskio_spi.c **** 
 220:FATFS/Target/user_diskio_spi.c **** 	rcvr_spi_multi(buff, btr);		/* Store trailing data to the buffer */
 221:FATFS/Target/user_diskio_spi.c **** 	xchg_spi(0xFF); xchg_spi(0xFF);			/* Discard CRC */
 222:FATFS/Target/user_diskio_spi.c **** 
 223:FATFS/Target/user_diskio_spi.c **** 	return 1;						/* Function succeeded */
 224:FATFS/Target/user_diskio_spi.c **** }
 225:FATFS/Target/user_diskio_spi.c **** 
 226:FATFS/Target/user_diskio_spi.c **** 
 227:FATFS/Target/user_diskio_spi.c **** 
 228:FATFS/Target/user_diskio_spi.c **** /*-----------------------------------------------------------------------*/
 229:FATFS/Target/user_diskio_spi.c **** /* Send a data packet to the MMC                                         */
 230:FATFS/Target/user_diskio_spi.c **** /*-----------------------------------------------------------------------*/
 231:FATFS/Target/user_diskio_spi.c **** 
 232:FATFS/Target/user_diskio_spi.c **** #if _USE_WRITE
 233:FATFS/Target/user_diskio_spi.c **** static
 234:FATFS/Target/user_diskio_spi.c **** int xmit_datablock (	/* 1:OK, 0:Failed */
ARM GAS  C:\Users\Admin\AppData\Local\Temp\ccukIInD.s 			page 10


 235:FATFS/Target/user_diskio_spi.c **** 	const BYTE *buff,	/* Ponter to 512 byte data to be sent */
 236:FATFS/Target/user_diskio_spi.c **** 	BYTE token			/* Token */
 237:FATFS/Target/user_diskio_spi.c **** )
 238:FATFS/Target/user_diskio_spi.c **** {
 259              		.loc 1 238 1 is_stmt 1 view -0
 260              		.cfi_startproc
 261              		@ args = 0, pretend = 0, frame = 0
 262              		@ frame_needed = 0, uses_anonymous_args = 0
 263              		.loc 1 238 1 is_stmt 0 view .LVU58
 264 0000 38B5     		push	{r3, r4, r5, lr}
 265              	.LCFI6:
 266              		.cfi_def_cfa_offset 16
 267              		.cfi_offset 3, -16
 268              		.cfi_offset 4, -12
 269              		.cfi_offset 5, -8
 270              		.cfi_offset 14, -4
 271 0002 0546     		mov	r5, r0
 272 0004 0C46     		mov	r4, r1
 239:FATFS/Target/user_diskio_spi.c **** 	BYTE resp;
 273              		.loc 1 239 2 is_stmt 1 view .LVU59
 240:FATFS/Target/user_diskio_spi.c **** 
 241:FATFS/Target/user_diskio_spi.c **** 
 242:FATFS/Target/user_diskio_spi.c **** 	if (!wait_ready(500)) return 0;		/* Wait for card ready */
 274              		.loc 1 242 2 view .LVU60
 275              		.loc 1 242 7 is_stmt 0 view .LVU61
 276 0006 4FF4FA70 		mov	r0, #500
 277              	.LVL20:
 278              		.loc 1 242 7 view .LVU62
 279 000a FFF7FEFF 		bl	wait_ready
 280              	.LVL21:
 281              		.loc 1 242 5 view .LVU63
 282 000e 00B9     		cbnz	r0, .L24
 283              	.L19:
 243:FATFS/Target/user_diskio_spi.c **** 
 244:FATFS/Target/user_diskio_spi.c **** 	xchg_spi(token);					/* Send token */
 245:FATFS/Target/user_diskio_spi.c **** 	if (token != 0xFD) {				/* Send data if token is other than StopTran */
 246:FATFS/Target/user_diskio_spi.c **** 		xmit_spi_multi(buff, 512);		/* Data */
 247:FATFS/Target/user_diskio_spi.c **** 		xchg_spi(0xFF); xchg_spi(0xFF);	/* Dummy CRC */
 248:FATFS/Target/user_diskio_spi.c **** 
 249:FATFS/Target/user_diskio_spi.c **** 		resp = xchg_spi(0xFF);				/* Receive data resp */
 250:FATFS/Target/user_diskio_spi.c **** 		if ((resp & 0x1F) != 0x05) return 0;	/* Function fails if the data packet was not accepted */
 251:FATFS/Target/user_diskio_spi.c **** 	}
 252:FATFS/Target/user_diskio_spi.c **** 	return 1;
 253:FATFS/Target/user_diskio_spi.c **** }
 284              		.loc 1 253 1 view .LVU64
 285 0010 38BD     		pop	{r3, r4, r5, pc}
 286              	.LVL22:
 287              	.L24:
 244:FATFS/Target/user_diskio_spi.c **** 	if (token != 0xFD) {				/* Send data if token is other than StopTran */
 288              		.loc 1 244 2 is_stmt 1 view .LVU65
 289 0012 2046     		mov	r0, r4
 290 0014 FFF7FEFF 		bl	xchg_spi
 291              	.LVL23:
 245:FATFS/Target/user_diskio_spi.c **** 		xmit_spi_multi(buff, 512);		/* Data */
 292              		.loc 1 245 2 view .LVU66
 245:FATFS/Target/user_diskio_spi.c **** 		xmit_spi_multi(buff, 512);		/* Data */
 293              		.loc 1 245 5 is_stmt 0 view .LVU67
ARM GAS  C:\Users\Admin\AppData\Local\Temp\ccukIInD.s 			page 11


 294 0018 FD2C     		cmp	r4, #253
 295 001a 01D1     		bne	.L25
 252:FATFS/Target/user_diskio_spi.c **** }
 296              		.loc 1 252 9 view .LVU68
 297 001c 0120     		movs	r0, #1
 298 001e F7E7     		b	.L19
 299              	.L25:
 246:FATFS/Target/user_diskio_spi.c **** 		xchg_spi(0xFF); xchg_spi(0xFF);	/* Dummy CRC */
 300              		.loc 1 246 3 is_stmt 1 view .LVU69
 301 0020 4FF40071 		mov	r1, #512
 302 0024 2846     		mov	r0, r5
 303 0026 FFF7FEFF 		bl	xmit_spi_multi
 304              	.LVL24:
 247:FATFS/Target/user_diskio_spi.c **** 
 305              		.loc 1 247 3 view .LVU70
 306 002a FF20     		movs	r0, #255
 307 002c FFF7FEFF 		bl	xchg_spi
 308              	.LVL25:
 247:FATFS/Target/user_diskio_spi.c **** 
 309              		.loc 1 247 19 view .LVU71
 310 0030 FF20     		movs	r0, #255
 311 0032 FFF7FEFF 		bl	xchg_spi
 312              	.LVL26:
 249:FATFS/Target/user_diskio_spi.c **** 		if ((resp & 0x1F) != 0x05) return 0;	/* Function fails if the data packet was not accepted */
 313              		.loc 1 249 3 view .LVU72
 249:FATFS/Target/user_diskio_spi.c **** 		if ((resp & 0x1F) != 0x05) return 0;	/* Function fails if the data packet was not accepted */
 314              		.loc 1 249 10 is_stmt 0 view .LVU73
 315 0036 FF20     		movs	r0, #255
 316 0038 FFF7FEFF 		bl	xchg_spi
 317              	.LVL27:
 250:FATFS/Target/user_diskio_spi.c **** 	}
 318              		.loc 1 250 3 is_stmt 1 view .LVU74
 250:FATFS/Target/user_diskio_spi.c **** 	}
 319              		.loc 1 250 6 is_stmt 0 view .LVU75
 320 003c 00F01F00 		and	r0, r0, #31
 321              	.LVL28:
 250:FATFS/Target/user_diskio_spi.c **** 	}
 322              		.loc 1 250 6 view .LVU76
 323 0040 0528     		cmp	r0, #5
 324 0042 01D1     		bne	.L22
 252:FATFS/Target/user_diskio_spi.c **** }
 325              		.loc 1 252 9 view .LVU77
 326 0044 0120     		movs	r0, #1
 327 0046 E3E7     		b	.L19
 328              	.L22:
 250:FATFS/Target/user_diskio_spi.c **** 	}
 329              		.loc 1 250 37 view .LVU78
 330 0048 0020     		movs	r0, #0
 331 004a E1E7     		b	.L19
 332              		.cfi_endproc
 333              	.LFE141:
 335              		.section	.text.despiselect,"ax",%progbits
 336              		.align	1
 337              		.syntax unified
 338              		.thumb
 339              		.thumb_func
 340              		.fpu fpv4-sp-d16
ARM GAS  C:\Users\Admin\AppData\Local\Temp\ccukIInD.s 			page 12


 342              	despiselect:
 343              	.LFB138:
 175:FATFS/Target/user_diskio_spi.c **** 	CS_HIGH();		/* Set CS# high */
 344              		.loc 1 175 1 is_stmt 1 view -0
 345              		.cfi_startproc
 346              		@ args = 0, pretend = 0, frame = 0
 347              		@ frame_needed = 0, uses_anonymous_args = 0
 348 0000 08B5     		push	{r3, lr}
 349              	.LCFI7:
 350              		.cfi_def_cfa_offset 8
 351              		.cfi_offset 3, -8
 352              		.cfi_offset 14, -4
 176:FATFS/Target/user_diskio_spi.c **** 	xchg_spi(0xFF);	/* Dummy clock (force DO hi-z for multiple slave SPI) */
 353              		.loc 1 176 2 view .LVU80
 354 0002 0122     		movs	r2, #1
 355 0004 4FF40051 		mov	r1, #8192
 356 0008 0348     		ldr	r0, .L28
 357 000a FFF7FEFF 		bl	HAL_GPIO_WritePin
 358              	.LVL29:
 176:FATFS/Target/user_diskio_spi.c **** 	xchg_spi(0xFF);	/* Dummy clock (force DO hi-z for multiple slave SPI) */
 359              		.loc 1 176 11 view .LVU81
 177:FATFS/Target/user_diskio_spi.c **** 
 360              		.loc 1 177 2 view .LVU82
 361 000e FF20     		movs	r0, #255
 362 0010 FFF7FEFF 		bl	xchg_spi
 363              	.LVL30:
 179:FATFS/Target/user_diskio_spi.c **** 
 364              		.loc 1 179 1 is_stmt 0 view .LVU83
 365 0014 08BD     		pop	{r3, pc}
 366              	.L29:
 367 0016 00BF     		.align	2
 368              	.L28:
 369 0018 00040048 		.word	1207960576
 370              		.cfi_endproc
 371              	.LFE138:
 373              		.section	.text.spiselect,"ax",%progbits
 374              		.align	1
 375              		.syntax unified
 376              		.thumb
 377              		.thumb_func
 378              		.fpu fpv4-sp-d16
 380              	spiselect:
 381              	.LFB139:
 189:FATFS/Target/user_diskio_spi.c **** 	CS_LOW();		/* Set CS# low */
 382              		.loc 1 189 1 is_stmt 1 view -0
 383              		.cfi_startproc
 384              		@ args = 0, pretend = 0, frame = 0
 385              		@ frame_needed = 0, uses_anonymous_args = 0
 386 0000 10B5     		push	{r4, lr}
 387              	.LCFI8:
 388              		.cfi_def_cfa_offset 8
 389              		.cfi_offset 4, -8
 390              		.cfi_offset 14, -4
 190:FATFS/Target/user_diskio_spi.c **** 	xchg_spi(0xFF);	/* Dummy clock (force DO enabled) */
 391              		.loc 1 190 2 view .LVU85
 392 0002 0022     		movs	r2, #0
 393 0004 4FF40051 		mov	r1, #8192
ARM GAS  C:\Users\Admin\AppData\Local\Temp\ccukIInD.s 			page 13


 394 0008 0848     		ldr	r0, .L35
 395 000a FFF7FEFF 		bl	HAL_GPIO_WritePin
 396              	.LVL31:
 190:FATFS/Target/user_diskio_spi.c **** 	xchg_spi(0xFF);	/* Dummy clock (force DO enabled) */
 397              		.loc 1 190 10 view .LVU86
 191:FATFS/Target/user_diskio_spi.c **** 	if (wait_ready(500)) return 1;	/* Wait for card ready */
 398              		.loc 1 191 2 view .LVU87
 399 000e FF20     		movs	r0, #255
 400 0010 FFF7FEFF 		bl	xchg_spi
 401              	.LVL32:
 192:FATFS/Target/user_diskio_spi.c **** 
 402              		.loc 1 192 2 view .LVU88
 192:FATFS/Target/user_diskio_spi.c **** 
 403              		.loc 1 192 6 is_stmt 0 view .LVU89
 404 0014 4FF4FA70 		mov	r0, #500
 405 0018 FFF7FEFF 		bl	wait_ready
 406              	.LVL33:
 192:FATFS/Target/user_diskio_spi.c **** 
 407              		.loc 1 192 5 view .LVU90
 408 001c 10B1     		cbz	r0, .L34
 192:FATFS/Target/user_diskio_spi.c **** 
 409              		.loc 1 192 30 view .LVU91
 410 001e 0124     		movs	r4, #1
 411              	.L30:
 196:FATFS/Target/user_diskio_spi.c **** 
 412              		.loc 1 196 1 view .LVU92
 413 0020 2046     		mov	r0, r4
 414 0022 10BD     		pop	{r4, pc}
 415              	.L34:
 416 0024 0446     		mov	r4, r0
 194:FATFS/Target/user_diskio_spi.c **** 	return 0;	/* Timeout */
 417              		.loc 1 194 2 is_stmt 1 view .LVU93
 418 0026 FFF7FEFF 		bl	despiselect
 419              	.LVL34:
 195:FATFS/Target/user_diskio_spi.c **** }
 420              		.loc 1 195 2 view .LVU94
 195:FATFS/Target/user_diskio_spi.c **** }
 421              		.loc 1 195 9 is_stmt 0 view .LVU95
 422 002a F9E7     		b	.L30
 423              	.L36:
 424              		.align	2
 425              	.L35:
 426 002c 00040048 		.word	1207960576
 427              		.cfi_endproc
 428              	.LFE139:
 430              		.section	.text.send_cmd,"ax",%progbits
 431              		.align	1
 432              		.syntax unified
 433              		.thumb
 434              		.thumb_func
 435              		.fpu fpv4-sp-d16
 437              	send_cmd:
 438              	.LVL35:
 439              	.LFB142:
 254:FATFS/Target/user_diskio_spi.c **** #endif
 255:FATFS/Target/user_diskio_spi.c **** 
 256:FATFS/Target/user_diskio_spi.c **** 
ARM GAS  C:\Users\Admin\AppData\Local\Temp\ccukIInD.s 			page 14


 257:FATFS/Target/user_diskio_spi.c **** /*-----------------------------------------------------------------------*/
 258:FATFS/Target/user_diskio_spi.c **** /* Send a command packet to the MMC                                      */
 259:FATFS/Target/user_diskio_spi.c **** /*-----------------------------------------------------------------------*/
 260:FATFS/Target/user_diskio_spi.c **** 
 261:FATFS/Target/user_diskio_spi.c **** static
 262:FATFS/Target/user_diskio_spi.c **** BYTE send_cmd (		/* Return value: R1 resp (bit7==1:Failed to send) */
 263:FATFS/Target/user_diskio_spi.c **** 	BYTE cmd,		/* Command index */
 264:FATFS/Target/user_diskio_spi.c **** 	DWORD arg		/* Argument */
 265:FATFS/Target/user_diskio_spi.c **** )
 266:FATFS/Target/user_diskio_spi.c **** {
 440              		.loc 1 266 1 is_stmt 1 view -0
 441              		.cfi_startproc
 442              		@ args = 0, pretend = 0, frame = 0
 443              		@ frame_needed = 0, uses_anonymous_args = 0
 444              		.loc 1 266 1 is_stmt 0 view .LVU97
 445 0000 38B5     		push	{r3, r4, r5, lr}
 446              	.LCFI9:
 447              		.cfi_def_cfa_offset 16
 448              		.cfi_offset 3, -16
 449              		.cfi_offset 4, -12
 450              		.cfi_offset 5, -8
 451              		.cfi_offset 14, -4
 452 0002 0446     		mov	r4, r0
 453 0004 0D46     		mov	r5, r1
 267:FATFS/Target/user_diskio_spi.c **** 	BYTE n, res;
 454              		.loc 1 267 2 is_stmt 1 view .LVU98
 268:FATFS/Target/user_diskio_spi.c **** 
 269:FATFS/Target/user_diskio_spi.c **** 
 270:FATFS/Target/user_diskio_spi.c **** 	if (cmd & 0x80) {	/* Send a CMD55 prior to ACMD<n> */
 455              		.loc 1 270 2 view .LVU99
 456              		.loc 1 270 5 is_stmt 0 view .LVU100
 457 0006 10F0800F 		tst	r0, #128
 458 000a 2CD1     		bne	.L49
 459              	.LVL36:
 460              	.L38:
 271:FATFS/Target/user_diskio_spi.c **** 		cmd &= 0x7F;
 272:FATFS/Target/user_diskio_spi.c **** 		res = send_cmd(CMD55, 0);
 273:FATFS/Target/user_diskio_spi.c **** 		if (res > 1) return res;
 274:FATFS/Target/user_diskio_spi.c **** 	}
 275:FATFS/Target/user_diskio_spi.c **** 
 276:FATFS/Target/user_diskio_spi.c **** 	/* Select the card and wait for ready except to stop multiple block read */
 277:FATFS/Target/user_diskio_spi.c **** 	if (cmd != CMD12) {
 461              		.loc 1 277 2 is_stmt 1 view .LVU101
 462              		.loc 1 277 5 is_stmt 0 view .LVU102
 463 000c 0C2C     		cmp	r4, #12
 464 000e 04D0     		beq	.L40
 278:FATFS/Target/user_diskio_spi.c **** 		despiselect();
 465              		.loc 1 278 3 is_stmt 1 view .LVU103
 466 0010 FFF7FEFF 		bl	despiselect
 467              	.LVL37:
 279:FATFS/Target/user_diskio_spi.c **** 		if (!spiselect()) return 0xFF;
 468              		.loc 1 279 3 view .LVU104
 469              		.loc 1 279 8 is_stmt 0 view .LVU105
 470 0014 FFF7FEFF 		bl	spiselect
 471              	.LVL38:
 472              		.loc 1 279 6 view .LVU106
 473 0018 B0B3     		cbz	r0, .L45
ARM GAS  C:\Users\Admin\AppData\Local\Temp\ccukIInD.s 			page 15


 474              	.L40:
 280:FATFS/Target/user_diskio_spi.c **** 	}
 281:FATFS/Target/user_diskio_spi.c **** 
 282:FATFS/Target/user_diskio_spi.c **** 	/* Send command packet */
 283:FATFS/Target/user_diskio_spi.c **** 	xchg_spi(0x40 | cmd);				/* Start + command index */
 475              		.loc 1 283 2 is_stmt 1 view .LVU107
 476 001a 44F04000 		orr	r0, r4, #64
 477 001e FFF7FEFF 		bl	xchg_spi
 478              	.LVL39:
 284:FATFS/Target/user_diskio_spi.c **** 	xchg_spi((BYTE)(arg >> 24));		/* Argument[31..24] */
 479              		.loc 1 284 2 view .LVU108
 480 0022 280E     		lsrs	r0, r5, #24
 481 0024 FFF7FEFF 		bl	xchg_spi
 482              	.LVL40:
 285:FATFS/Target/user_diskio_spi.c **** 	xchg_spi((BYTE)(arg >> 16));		/* Argument[23..16] */
 483              		.loc 1 285 2 view .LVU109
 484 0028 C5F30740 		ubfx	r0, r5, #16, #8
 485 002c FFF7FEFF 		bl	xchg_spi
 486              	.LVL41:
 286:FATFS/Target/user_diskio_spi.c **** 	xchg_spi((BYTE)(arg >> 8));			/* Argument[15..8] */
 487              		.loc 1 286 2 view .LVU110
 488 0030 C5F30720 		ubfx	r0, r5, #8, #8
 489 0034 FFF7FEFF 		bl	xchg_spi
 490              	.LVL42:
 287:FATFS/Target/user_diskio_spi.c **** 	xchg_spi((BYTE)arg);				/* Argument[7..0] */
 491              		.loc 1 287 2 view .LVU111
 492 0038 E8B2     		uxtb	r0, r5
 493 003a FFF7FEFF 		bl	xchg_spi
 494              	.LVL43:
 288:FATFS/Target/user_diskio_spi.c **** 	n = 0x01;							/* Dummy CRC + Stop */
 495              		.loc 1 288 2 view .LVU112
 289:FATFS/Target/user_diskio_spi.c **** 	if (cmd == CMD0) n = 0x95;			/* Valid CRC for CMD0(0) */
 496              		.loc 1 289 2 view .LVU113
 497              		.loc 1 289 5 is_stmt 0 view .LVU114
 498 003e DCB1     		cbz	r4, .L46
 288:FATFS/Target/user_diskio_spi.c **** 	n = 0x01;							/* Dummy CRC + Stop */
 499              		.loc 1 288 4 view .LVU115
 500 0040 0120     		movs	r0, #1
 501              	.L41:
 502              	.LVL44:
 290:FATFS/Target/user_diskio_spi.c **** 	if (cmd == CMD8) n = 0x87;			/* Valid CRC for CMD8(0x1AA) */
 503              		.loc 1 290 2 is_stmt 1 view .LVU116
 504              		.loc 1 290 5 is_stmt 0 view .LVU117
 505 0042 082C     		cmp	r4, #8
 506 0044 1AD0     		beq	.L50
 507              	.LVL45:
 508              	.L42:
 291:FATFS/Target/user_diskio_spi.c **** 	xchg_spi(n);
 509              		.loc 1 291 2 is_stmt 1 view .LVU118
 510 0046 FFF7FEFF 		bl	xchg_spi
 511              	.LVL46:
 292:FATFS/Target/user_diskio_spi.c **** 
 293:FATFS/Target/user_diskio_spi.c **** 	/* Receive command resp */
 294:FATFS/Target/user_diskio_spi.c **** 	if (cmd == CMD12) xchg_spi(0xFF);	/* Diacard following one byte when CMD12 */
 512              		.loc 1 294 2 view .LVU119
 513              		.loc 1 294 5 is_stmt 0 view .LVU120
 514 004a 0C2C     		cmp	r4, #12
ARM GAS  C:\Users\Admin\AppData\Local\Temp\ccukIInD.s 			page 16


 515 004c 18D0     		beq	.L51
 516              	.L43:
 290:FATFS/Target/user_diskio_spi.c **** 	xchg_spi(n);
 517              		.loc 1 290 21 discriminator 2 view .LVU121
 518 004e 0A24     		movs	r4, #10
 519              	.LVL47:
 520              	.L44:
 295:FATFS/Target/user_diskio_spi.c **** 	n = 10;								/* Wait for response (10 bytes max) */
 296:FATFS/Target/user_diskio_spi.c **** 	do {
 521              		.loc 1 296 2 is_stmt 1 discriminator 2 view .LVU122
 297:FATFS/Target/user_diskio_spi.c **** 		res = xchg_spi(0xFF);
 522              		.loc 1 297 3 discriminator 2 view .LVU123
 523              		.loc 1 297 9 is_stmt 0 discriminator 2 view .LVU124
 524 0050 FF20     		movs	r0, #255
 525 0052 FFF7FEFF 		bl	xchg_spi
 526              	.LVL48:
 298:FATFS/Target/user_diskio_spi.c **** 	} while ((res & 0x80) && --n);
 527              		.loc 1 298 10 is_stmt 1 discriminator 2 view .LVU125
 528              		.loc 1 298 2 is_stmt 0 discriminator 2 view .LVU126
 529 0056 10F0800F 		tst	r0, #128
 530 005a 03D0     		beq	.L39
 531              		.loc 1 298 24 discriminator 1 view .LVU127
 532 005c 631E     		subs	r3, r4, #1
 533              	.LVL49:
 534              		.loc 1 298 24 discriminator 1 view .LVU128
 535 005e 13F0FF04 		ands	r4, r3, #255
 536 0062 F5D1     		bne	.L44
 537              	.LVL50:
 538              	.L39:
 299:FATFS/Target/user_diskio_spi.c **** 
 300:FATFS/Target/user_diskio_spi.c **** 	return res;							/* Return received response */
 301:FATFS/Target/user_diskio_spi.c **** }
 539              		.loc 1 301 1 view .LVU129
 540 0064 38BD     		pop	{r3, r4, r5, pc}
 541              	.LVL51:
 542              	.L49:
 271:FATFS/Target/user_diskio_spi.c **** 		res = send_cmd(CMD55, 0);
 543              		.loc 1 271 3 is_stmt 1 view .LVU130
 271:FATFS/Target/user_diskio_spi.c **** 		res = send_cmd(CMD55, 0);
 544              		.loc 1 271 7 is_stmt 0 view .LVU131
 545 0066 00F07F04 		and	r4, r0, #127
 546              	.LVL52:
 272:FATFS/Target/user_diskio_spi.c **** 		if (res > 1) return res;
 547              		.loc 1 272 3 is_stmt 1 view .LVU132
 272:FATFS/Target/user_diskio_spi.c **** 		if (res > 1) return res;
 548              		.loc 1 272 9 is_stmt 0 view .LVU133
 549 006a 0021     		movs	r1, #0
 550              	.LVL53:
 272:FATFS/Target/user_diskio_spi.c **** 		if (res > 1) return res;
 551              		.loc 1 272 9 view .LVU134
 552 006c 3720     		movs	r0, #55
 553 006e FFF7C7FF 		bl	send_cmd
 554              	.LVL54:
 273:FATFS/Target/user_diskio_spi.c **** 	}
 555              		.loc 1 273 3 is_stmt 1 view .LVU135
 273:FATFS/Target/user_diskio_spi.c **** 	}
 556              		.loc 1 273 6 is_stmt 0 view .LVU136
ARM GAS  C:\Users\Admin\AppData\Local\Temp\ccukIInD.s 			page 17


 557 0072 0128     		cmp	r0, #1
 558 0074 CAD9     		bls	.L38
 559 0076 F5E7     		b	.L39
 560              	.LVL55:
 561              	.L46:
 289:FATFS/Target/user_diskio_spi.c **** 	if (cmd == CMD8) n = 0x87;			/* Valid CRC for CMD8(0x1AA) */
 562              		.loc 1 289 21 view .LVU137
 563 0078 9520     		movs	r0, #149
 564 007a E2E7     		b	.L41
 565              	.LVL56:
 566              	.L50:
 290:FATFS/Target/user_diskio_spi.c **** 	xchg_spi(n);
 567              		.loc 1 290 21 view .LVU138
 568 007c 8720     		movs	r0, #135
 569              	.LVL57:
 290:FATFS/Target/user_diskio_spi.c **** 	xchg_spi(n);
 570              		.loc 1 290 21 view .LVU139
 571 007e E2E7     		b	.L42
 572              	.L51:
 294:FATFS/Target/user_diskio_spi.c **** 	n = 10;								/* Wait for response (10 bytes max) */
 573              		.loc 1 294 20 is_stmt 1 discriminator 1 view .LVU140
 574 0080 FF20     		movs	r0, #255
 575 0082 FFF7FEFF 		bl	xchg_spi
 576              	.LVL58:
 577 0086 E2E7     		b	.L43
 578              	.L45:
 279:FATFS/Target/user_diskio_spi.c **** 	}
 579              		.loc 1 279 28 is_stmt 0 view .LVU141
 580 0088 FF20     		movs	r0, #255
 581 008a EBE7     		b	.L39
 582              		.cfi_endproc
 583              	.LFE142:
 585              		.section	.text.SPI_Timer_On,"ax",%progbits
 586              		.align	1
 587              		.global	SPI_Timer_On
 588              		.syntax unified
 589              		.thumb
 590              		.thumb_func
 591              		.fpu fpv4-sp-d16
 593              	SPI_Timer_On:
 594              	.LVL59:
 595              	.LFB132:
  89:FATFS/Target/user_diskio_spi.c ****     spiTimerTickStart = HAL_GetTick();
 596              		.loc 1 89 39 is_stmt 1 view -0
 597              		.cfi_startproc
 598              		@ args = 0, pretend = 0, frame = 0
 599              		@ frame_needed = 0, uses_anonymous_args = 0
  89:FATFS/Target/user_diskio_spi.c ****     spiTimerTickStart = HAL_GetTick();
 600              		.loc 1 89 39 is_stmt 0 view .LVU143
 601 0000 10B5     		push	{r4, lr}
 602              	.LCFI10:
 603              		.cfi_def_cfa_offset 8
 604              		.cfi_offset 4, -8
 605              		.cfi_offset 14, -4
 606 0002 0446     		mov	r4, r0
  90:FATFS/Target/user_diskio_spi.c ****     spiTimerTickDelay = waitTicks;
 607              		.loc 1 90 5 is_stmt 1 view .LVU144
ARM GAS  C:\Users\Admin\AppData\Local\Temp\ccukIInD.s 			page 18


  90:FATFS/Target/user_diskio_spi.c ****     spiTimerTickDelay = waitTicks;
 608              		.loc 1 90 25 is_stmt 0 view .LVU145
 609 0004 FFF7FEFF 		bl	HAL_GetTick
 610              	.LVL60:
  90:FATFS/Target/user_diskio_spi.c ****     spiTimerTickDelay = waitTicks;
 611              		.loc 1 90 23 view .LVU146
 612 0008 024B     		ldr	r3, .L54
 613 000a 1860     		str	r0, [r3]
  91:FATFS/Target/user_diskio_spi.c **** }
 614              		.loc 1 91 5 is_stmt 1 view .LVU147
  91:FATFS/Target/user_diskio_spi.c **** }
 615              		.loc 1 91 23 is_stmt 0 view .LVU148
 616 000c 024B     		ldr	r3, .L54+4
 617 000e 1C60     		str	r4, [r3]
  92:FATFS/Target/user_diskio_spi.c **** 
 618              		.loc 1 92 1 view .LVU149
 619 0010 10BD     		pop	{r4, pc}
 620              	.LVL61:
 621              	.L55:
  92:FATFS/Target/user_diskio_spi.c **** 
 622              		.loc 1 92 1 view .LVU150
 623 0012 00BF     		.align	2
 624              	.L54:
 625 0014 00000000 		.word	spiTimerTickStart
 626 0018 00000000 		.word	spiTimerTickDelay
 627              		.cfi_endproc
 628              	.LFE132:
 630              		.section	.text.SPI_Timer_Status,"ax",%progbits
 631              		.align	1
 632              		.global	SPI_Timer_Status
 633              		.syntax unified
 634              		.thumb
 635              		.thumb_func
 636              		.fpu fpv4-sp-d16
 638              	SPI_Timer_Status:
 639              	.LFB133:
  94:FATFS/Target/user_diskio_spi.c ****     return ((HAL_GetTick() - spiTimerTickStart) < spiTimerTickDelay);
 640              		.loc 1 94 28 is_stmt 1 view -0
 641              		.cfi_startproc
 642              		@ args = 0, pretend = 0, frame = 0
 643              		@ frame_needed = 0, uses_anonymous_args = 0
 644 0000 08B5     		push	{r3, lr}
 645              	.LCFI11:
 646              		.cfi_def_cfa_offset 8
 647              		.cfi_offset 3, -8
 648              		.cfi_offset 14, -4
  95:FATFS/Target/user_diskio_spi.c **** }
 649              		.loc 1 95 5 view .LVU152
  95:FATFS/Target/user_diskio_spi.c **** }
 650              		.loc 1 95 14 is_stmt 0 view .LVU153
 651 0002 FFF7FEFF 		bl	HAL_GetTick
 652              	.LVL62:
  95:FATFS/Target/user_diskio_spi.c **** }
 653              		.loc 1 95 28 view .LVU154
 654 0006 054B     		ldr	r3, .L58
 655 0008 1B68     		ldr	r3, [r3]
 656 000a C01A     		subs	r0, r0, r3
ARM GAS  C:\Users\Admin\AppData\Local\Temp\ccukIInD.s 			page 19


  95:FATFS/Target/user_diskio_spi.c **** }
 657              		.loc 1 95 49 view .LVU155
 658 000c 044B     		ldr	r3, .L58+4
 659 000e 1B68     		ldr	r3, [r3]
  96:FATFS/Target/user_diskio_spi.c **** 
 660              		.loc 1 96 1 view .LVU156
 661 0010 9842     		cmp	r0, r3
 662 0012 2CBF     		ite	cs
 663 0014 0020     		movcs	r0, #0
 664 0016 0120     		movcc	r0, #1
 665 0018 08BD     		pop	{r3, pc}
 666              	.L59:
 667 001a 00BF     		.align	2
 668              	.L58:
 669 001c 00000000 		.word	spiTimerTickStart
 670 0020 00000000 		.word	spiTimerTickDelay
 671              		.cfi_endproc
 672              	.LFE133:
 674              		.section	.text.rcvr_datablock,"ax",%progbits
 675              		.align	1
 676              		.syntax unified
 677              		.thumb
 678              		.thumb_func
 679              		.fpu fpv4-sp-d16
 681              	rcvr_datablock:
 682              	.LVL63:
 683              	.LFB140:
 209:FATFS/Target/user_diskio_spi.c **** 	BYTE token;
 684              		.loc 1 209 1 is_stmt 1 view -0
 685              		.cfi_startproc
 686              		@ args = 0, pretend = 0, frame = 0
 687              		@ frame_needed = 0, uses_anonymous_args = 0
 209:FATFS/Target/user_diskio_spi.c **** 	BYTE token;
 688              		.loc 1 209 1 is_stmt 0 view .LVU158
 689 0000 70B5     		push	{r4, r5, r6, lr}
 690              	.LCFI12:
 691              		.cfi_def_cfa_offset 16
 692              		.cfi_offset 4, -16
 693              		.cfi_offset 5, -12
 694              		.cfi_offset 6, -8
 695              		.cfi_offset 14, -4
 696 0002 0546     		mov	r5, r0
 697 0004 0E46     		mov	r6, r1
 210:FATFS/Target/user_diskio_spi.c **** 
 698              		.loc 1 210 2 is_stmt 1 view .LVU159
 213:FATFS/Target/user_diskio_spi.c **** 	do {							/* Wait for DataStart token in timeout of 200ms */
 699              		.loc 1 213 2 view .LVU160
 700 0006 C820     		movs	r0, #200
 701              	.LVL64:
 213:FATFS/Target/user_diskio_spi.c **** 	do {							/* Wait for DataStart token in timeout of 200ms */
 702              		.loc 1 213 2 is_stmt 0 view .LVU161
 703 0008 FFF7FEFF 		bl	SPI_Timer_On
 704              	.LVL65:
 705              	.L62:
 214:FATFS/Target/user_diskio_spi.c **** 		token = xchg_spi(0xFF);
 706              		.loc 1 214 2 is_stmt 1 discriminator 2 view .LVU162
 215:FATFS/Target/user_diskio_spi.c **** 		/* This loop will take a time. Insert rot_rdq() here for multitask envilonment. */
ARM GAS  C:\Users\Admin\AppData\Local\Temp\ccukIInD.s 			page 20


 707              		.loc 1 215 3 discriminator 2 view .LVU163
 215:FATFS/Target/user_diskio_spi.c **** 		/* This loop will take a time. Insert rot_rdq() here for multitask envilonment. */
 708              		.loc 1 215 11 is_stmt 0 discriminator 2 view .LVU164
 709 000c FF20     		movs	r0, #255
 710 000e FFF7FEFF 		bl	xchg_spi
 711              	.LVL66:
 712 0012 0446     		mov	r4, r0
 713              	.LVL67:
 217:FATFS/Target/user_diskio_spi.c **** 	if(token != 0xFE) return 0;		/* Function fails if invalid DataStart token or timeout */
 714              		.loc 1 217 10 is_stmt 1 discriminator 2 view .LVU165
 217:FATFS/Target/user_diskio_spi.c **** 	if(token != 0xFE) return 0;		/* Function fails if invalid DataStart token or timeout */
 715              		.loc 1 217 2 is_stmt 0 discriminator 2 view .LVU166
 716 0014 FF28     		cmp	r0, #255
 717 0016 03D1     		bne	.L61
 217:FATFS/Target/user_diskio_spi.c **** 	if(token != 0xFE) return 0;		/* Function fails if invalid DataStart token or timeout */
 718              		.loc 1 217 30 discriminator 1 view .LVU167
 719 0018 FFF7FEFF 		bl	SPI_Timer_Status
 720              	.LVL68:
 217:FATFS/Target/user_diskio_spi.c **** 	if(token != 0xFE) return 0;		/* Function fails if invalid DataStart token or timeout */
 721              		.loc 1 217 27 discriminator 1 view .LVU168
 722 001c 0028     		cmp	r0, #0
 723 001e F5D1     		bne	.L62
 724              	.L61:
 218:FATFS/Target/user_diskio_spi.c **** 
 725              		.loc 1 218 2 is_stmt 1 view .LVU169
 218:FATFS/Target/user_diskio_spi.c **** 
 726              		.loc 1 218 4 is_stmt 0 view .LVU170
 727 0020 FE2C     		cmp	r4, #254
 728 0022 01D0     		beq	.L66
 218:FATFS/Target/user_diskio_spi.c **** 
 729              		.loc 1 218 27 view .LVU171
 730 0024 0020     		movs	r0, #0
 731              	.L60:
 224:FATFS/Target/user_diskio_spi.c **** 
 732              		.loc 1 224 1 view .LVU172
 733 0026 70BD     		pop	{r4, r5, r6, pc}
 734              	.LVL69:
 735              	.L66:
 220:FATFS/Target/user_diskio_spi.c **** 	xchg_spi(0xFF); xchg_spi(0xFF);			/* Discard CRC */
 736              		.loc 1 220 2 is_stmt 1 view .LVU173
 737 0028 3146     		mov	r1, r6
 738 002a 2846     		mov	r0, r5
 739 002c FFF7FEFF 		bl	rcvr_spi_multi
 740              	.LVL70:
 221:FATFS/Target/user_diskio_spi.c **** 
 741              		.loc 1 221 2 view .LVU174
 742 0030 FF20     		movs	r0, #255
 743 0032 FFF7FEFF 		bl	xchg_spi
 744              	.LVL71:
 221:FATFS/Target/user_diskio_spi.c **** 
 745              		.loc 1 221 18 view .LVU175
 746 0036 FF20     		movs	r0, #255
 747 0038 FFF7FEFF 		bl	xchg_spi
 748              	.LVL72:
 223:FATFS/Target/user_diskio_spi.c **** }
 749              		.loc 1 223 2 view .LVU176
 223:FATFS/Target/user_diskio_spi.c **** }
ARM GAS  C:\Users\Admin\AppData\Local\Temp\ccukIInD.s 			page 21


 750              		.loc 1 223 9 is_stmt 0 view .LVU177
 751 003c 0120     		movs	r0, #1
 752 003e F2E7     		b	.L60
 753              		.cfi_endproc
 754              	.LFE140:
 756              		.section	.text.USER_SPI_initialize,"ax",%progbits
 757              		.align	1
 758              		.global	USER_SPI_initialize
 759              		.syntax unified
 760              		.thumb
 761              		.thumb_func
 762              		.fpu fpv4-sp-d16
 764              	USER_SPI_initialize:
 765              	.LVL73:
 766              	.LFB143:
 302:FATFS/Target/user_diskio_spi.c **** 
 303:FATFS/Target/user_diskio_spi.c **** 
 304:FATFS/Target/user_diskio_spi.c **** /*--------------------------------------------------------------------------
 305:FATFS/Target/user_diskio_spi.c **** 
 306:FATFS/Target/user_diskio_spi.c ****    Public FatFs Functions (wrapped in user_diskio.c)
 307:FATFS/Target/user_diskio_spi.c **** 
 308:FATFS/Target/user_diskio_spi.c **** ---------------------------------------------------------------------------*/
 309:FATFS/Target/user_diskio_spi.c **** 
 310:FATFS/Target/user_diskio_spi.c **** //The following functions are defined as inline because they aren't the functions that
 311:FATFS/Target/user_diskio_spi.c **** //are passed to FatFs - they are wrapped by autogenerated (non-inline) cubemx template
 312:FATFS/Target/user_diskio_spi.c **** //code.
 313:FATFS/Target/user_diskio_spi.c **** //If you do not wish to use cubemx, remove the "inline" from these functions here
 314:FATFS/Target/user_diskio_spi.c **** //and in the associated .h
 315:FATFS/Target/user_diskio_spi.c **** 
 316:FATFS/Target/user_diskio_spi.c **** 
 317:FATFS/Target/user_diskio_spi.c **** /*-----------------------------------------------------------------------*/
 318:FATFS/Target/user_diskio_spi.c **** /* Initialize disk drive                                                 */
 319:FATFS/Target/user_diskio_spi.c **** /*-----------------------------------------------------------------------*/
 320:FATFS/Target/user_diskio_spi.c **** 
 321:FATFS/Target/user_diskio_spi.c **** inline DSTATUS USER_SPI_initialize (
 322:FATFS/Target/user_diskio_spi.c **** 	BYTE drv		/* Physical drive number (0) */
 323:FATFS/Target/user_diskio_spi.c **** )
 324:FATFS/Target/user_diskio_spi.c **** {
 767              		.loc 1 324 1 is_stmt 1 view -0
 768              		.cfi_startproc
 769              		@ args = 0, pretend = 0, frame = 8
 770              		@ frame_needed = 0, uses_anonymous_args = 0
 325:FATFS/Target/user_diskio_spi.c **** 	BYTE n, cmd, ty, ocr[4];
 771              		.loc 1 325 2 view .LVU179
 326:FATFS/Target/user_diskio_spi.c **** 
 327:FATFS/Target/user_diskio_spi.c **** 	if (drv != 0) return STA_NOINIT;		/* Supports only drive 0 */
 772              		.loc 1 327 2 view .LVU180
 773              		.loc 1 327 5 is_stmt 0 view .LVU181
 774 0000 0028     		cmp	r0, #0
 775 0002 40F0A980 		bne	.L85
 328:FATFS/Target/user_diskio_spi.c **** 	//assume SPI already init init_spi();	/* Initialize SPI */
 329:FATFS/Target/user_diskio_spi.c **** 
 330:FATFS/Target/user_diskio_spi.c **** 	if (Stat & STA_NODISK) return Stat;	/* Is card existing in the soket? */
 776              		.loc 1 330 2 is_stmt 1 view .LVU182
 777              		.loc 1 330 11 is_stmt 0 view .LVU183
 778 0006 554B     		ldr	r3, .L102
 779 0008 1B78     		ldrb	r3, [r3]	@ zero_extendqisi2
ARM GAS  C:\Users\Admin\AppData\Local\Temp\ccukIInD.s 			page 22


 780              		.loc 1 330 5 view .LVU184
 781 000a 13F0020F 		tst	r3, #2
 782 000e 11D1     		bne	.L95
 324:FATFS/Target/user_diskio_spi.c **** 	BYTE n, cmd, ty, ocr[4];
 783              		.loc 1 324 1 view .LVU185
 784 0010 70B5     		push	{r4, r5, r6, lr}
 785              	.LCFI13:
 786              		.cfi_def_cfa_offset 16
 787              		.cfi_offset 4, -16
 788              		.cfi_offset 5, -12
 789              		.cfi_offset 6, -8
 790              		.cfi_offset 14, -4
 791 0012 82B0     		sub	sp, sp, #8
 792              	.LCFI14:
 793              		.cfi_def_cfa_offset 24
 331:FATFS/Target/user_diskio_spi.c **** 
 332:FATFS/Target/user_diskio_spi.c **** 	FCLK_SLOW();
 794              		.loc 1 332 2 is_stmt 1 view .LVU186
 795 0014 524B     		ldr	r3, .L102+4
 796 0016 1A68     		ldr	r2, [r3]
 797 0018 1368     		ldr	r3, [r2]
 798 001a 23F03803 		bic	r3, r3, #56
 799 001e 43F01003 		orr	r3, r3, #16
 800 0022 1360     		str	r3, [r2]
 801              		.loc 1 332 13 view .LVU187
 333:FATFS/Target/user_diskio_spi.c **** 	for (n = 10; n; n--) xchg_spi(0xFF);	/* Send 80 dummy clocks */
 802              		.loc 1 333 2 view .LVU188
 803              	.LVL74:
 804              		.loc 1 333 9 is_stmt 0 view .LVU189
 805 0024 0A24     		movs	r4, #10
 806              	.LVL75:
 807              	.L70:
 808              		.loc 1 333 15 is_stmt 1 discriminator 1 view .LVU190
 809              		.loc 1 333 2 is_stmt 0 discriminator 1 view .LVU191
 810 0026 4CB1     		cbz	r4, .L96
 811              		.loc 1 333 23 is_stmt 1 discriminator 3 view .LVU192
 812 0028 FF20     		movs	r0, #255
 813 002a FFF7FEFF 		bl	xchg_spi
 814              	.LVL76:
 815              		.loc 1 333 18 discriminator 3 view .LVU193
 816              		.loc 1 333 19 is_stmt 0 discriminator 3 view .LVU194
 817 002e 013C     		subs	r4, r4, #1
 818              	.LVL77:
 819              		.loc 1 333 19 discriminator 3 view .LVU195
 820 0030 E4B2     		uxtb	r4, r4
 821              	.LVL78:
 822              		.loc 1 333 19 discriminator 3 view .LVU196
 823 0032 F8E7     		b	.L70
 824              	.LVL79:
 825              	.L95:
 826              	.LCFI15:
 827              		.cfi_def_cfa_offset 0
 828              		.cfi_restore 4
 829              		.cfi_restore 5
 830              		.cfi_restore 6
 831              		.cfi_restore 14
 330:FATFS/Target/user_diskio_spi.c **** 
ARM GAS  C:\Users\Admin\AppData\Local\Temp\ccukIInD.s 			page 23


 832              		.loc 1 330 25 is_stmt 1 discriminator 1 view .LVU197
 330:FATFS/Target/user_diskio_spi.c **** 
 833              		.loc 1 330 32 is_stmt 0 discriminator 1 view .LVU198
 834 0034 494B     		ldr	r3, .L102
 835 0036 1878     		ldrb	r0, [r3]	@ zero_extendqisi2
 836              	.LVL80:
 330:FATFS/Target/user_diskio_spi.c **** 
 837              		.loc 1 330 32 discriminator 1 view .LVU199
 838 0038 C0B2     		uxtb	r0, r0
 839 003a 7047     		bx	lr
 840              	.LVL81:
 841              	.L96:
 842              	.LCFI16:
 843              		.cfi_def_cfa_offset 24
 844              		.cfi_offset 4, -16
 845              		.cfi_offset 5, -12
 846              		.cfi_offset 6, -8
 847              		.cfi_offset 14, -4
 334:FATFS/Target/user_diskio_spi.c **** 
 335:FATFS/Target/user_diskio_spi.c **** 	ty = 0;
 848              		.loc 1 335 2 is_stmt 1 view .LVU200
 336:FATFS/Target/user_diskio_spi.c **** 	if (send_cmd(CMD0, 0) == 1) {			/* Put the card SPI/Idle state */
 849              		.loc 1 336 2 view .LVU201
 850              		.loc 1 336 6 is_stmt 0 view .LVU202
 851 003c 0021     		movs	r1, #0
 852 003e 0846     		mov	r0, r1
 853 0040 FFF7FEFF 		bl	send_cmd
 854              	.LVL82:
 855 0044 0546     		mov	r5, r0
 856              		.loc 1 336 5 view .LVU203
 857 0046 0128     		cmp	r0, #1
 858 0048 17D0     		beq	.L97
 859              	.LVL83:
 860              	.L72:
 337:FATFS/Target/user_diskio_spi.c **** 		SPI_Timer_On(1000);					/* Initialization timeout = 1 sec */
 338:FATFS/Target/user_diskio_spi.c **** 		if (send_cmd(CMD8, 0x1AA) == 1) {	/* SDv2? */
 339:FATFS/Target/user_diskio_spi.c **** 			for (n = 0; n < 4; n++) ocr[n] = xchg_spi(0xFF);	/* Get 32 bit return value of R7 resp */
 340:FATFS/Target/user_diskio_spi.c **** 			if (ocr[2] == 0x01 && ocr[3] == 0xAA) {				/* Is the card supports vcc of 2.7-3.6V? */
 341:FATFS/Target/user_diskio_spi.c **** 				while (SPI_Timer_Status() && send_cmd(ACMD41, 1UL << 30)) ;	/* Wait for end of initialization w
 342:FATFS/Target/user_diskio_spi.c **** 				if (SPI_Timer_Status() && send_cmd(CMD58, 0) == 0) {		/* Check CCS bit in the OCR */
 343:FATFS/Target/user_diskio_spi.c **** 					for (n = 0; n < 4; n++) ocr[n] = xchg_spi(0xFF);
 344:FATFS/Target/user_diskio_spi.c **** 					ty = (ocr[0] & 0x40) ? CT_SD2 | CT_BLOCK : CT_SD2;	/* Card id SDv2 */
 345:FATFS/Target/user_diskio_spi.c **** 				}
 346:FATFS/Target/user_diskio_spi.c **** 			}
 347:FATFS/Target/user_diskio_spi.c **** 		} else {	/* Not SDv2 card */
 348:FATFS/Target/user_diskio_spi.c **** 			if (send_cmd(ACMD41, 0) <= 1) 	{	/* SDv1 or MMC? */
 349:FATFS/Target/user_diskio_spi.c **** 				ty = CT_SD1; cmd = ACMD41;	/* SDv1 (ACMD41(0)) */
 350:FATFS/Target/user_diskio_spi.c **** 			} else {
 351:FATFS/Target/user_diskio_spi.c **** 				ty = CT_MMC; cmd = CMD1;	/* MMCv3 (CMD1(0)) */
 352:FATFS/Target/user_diskio_spi.c **** 			}
 353:FATFS/Target/user_diskio_spi.c **** 			while (SPI_Timer_Status() && send_cmd(cmd, 0)) ;		/* Wait for end of initialization */
 354:FATFS/Target/user_diskio_spi.c **** 			if (!SPI_Timer_Status() || send_cmd(CMD16, 512) != 0)	/* Set block length: 512 */
 355:FATFS/Target/user_diskio_spi.c **** 				ty = 0;
 356:FATFS/Target/user_diskio_spi.c **** 		}
 357:FATFS/Target/user_diskio_spi.c **** 	}
 358:FATFS/Target/user_diskio_spi.c **** 	CardType = ty;	/* Card type */
 861              		.loc 1 358 2 is_stmt 1 view .LVU204
ARM GAS  C:\Users\Admin\AppData\Local\Temp\ccukIInD.s 			page 24


 862              		.loc 1 358 11 is_stmt 0 view .LVU205
 863 004a 464B     		ldr	r3, .L102+8
 864 004c 1C70     		strb	r4, [r3]
 359:FATFS/Target/user_diskio_spi.c **** 	despiselect();
 865              		.loc 1 359 2 is_stmt 1 view .LVU206
 866 004e FFF7FEFF 		bl	despiselect
 867              	.LVL84:
 360:FATFS/Target/user_diskio_spi.c **** 
 361:FATFS/Target/user_diskio_spi.c **** 	if (ty) {			/* OK */
 868              		.loc 1 361 2 view .LVU207
 869              		.loc 1 361 5 is_stmt 0 view .LVU208
 870 0052 002C     		cmp	r4, #0
 871 0054 7CD0     		beq	.L83
 362:FATFS/Target/user_diskio_spi.c **** 		FCLK_FAST();			/* Set fast clock */
 872              		.loc 1 362 3 is_stmt 1 view .LVU209
 873 0056 424B     		ldr	r3, .L102+4
 874 0058 1A68     		ldr	r2, [r3]
 875 005a 1368     		ldr	r3, [r2]
 876 005c 23F03803 		bic	r3, r3, #56
 877 0060 43F00803 		orr	r3, r3, #8
 878 0064 1360     		str	r3, [r2]
 879              		.loc 1 362 14 view .LVU210
 363:FATFS/Target/user_diskio_spi.c **** 		Stat &= ~STA_NOINIT;	/* Clear STA_NOINIT flag */
 880              		.loc 1 363 3 view .LVU211
 881              		.loc 1 363 8 is_stmt 0 view .LVU212
 882 0066 3D4A     		ldr	r2, .L102
 883 0068 1378     		ldrb	r3, [r2]	@ zero_extendqisi2
 884 006a 03F0FE03 		and	r3, r3, #254
 885 006e 1370     		strb	r3, [r2]
 886              	.L84:
 364:FATFS/Target/user_diskio_spi.c **** 	} else {			/* Failed */
 365:FATFS/Target/user_diskio_spi.c **** 		Stat = STA_NOINIT;
 366:FATFS/Target/user_diskio_spi.c **** 	}
 367:FATFS/Target/user_diskio_spi.c **** 
 368:FATFS/Target/user_diskio_spi.c **** 	return Stat;
 887              		.loc 1 368 2 is_stmt 1 view .LVU213
 888              		.loc 1 368 9 is_stmt 0 view .LVU214
 889 0070 3A4B     		ldr	r3, .L102
 890 0072 1878     		ldrb	r0, [r3]	@ zero_extendqisi2
 891 0074 C0B2     		uxtb	r0, r0
 369:FATFS/Target/user_diskio_spi.c **** }
 892              		.loc 1 369 1 view .LVU215
 893 0076 02B0     		add	sp, sp, #8
 894              	.LCFI17:
 895              		.cfi_remember_state
 896              		.cfi_def_cfa_offset 16
 897              		@ sp needed
 898 0078 70BD     		pop	{r4, r5, r6, pc}
 899              	.LVL85:
 900              	.L97:
 901              	.LCFI18:
 902              		.cfi_restore_state
 337:FATFS/Target/user_diskio_spi.c **** 		if (send_cmd(CMD8, 0x1AA) == 1) {	/* SDv2? */
 903              		.loc 1 337 3 is_stmt 1 view .LVU216
 904 007a 4FF47A70 		mov	r0, #1000
 905 007e FFF7FEFF 		bl	SPI_Timer_On
 906              	.LVL86:
ARM GAS  C:\Users\Admin\AppData\Local\Temp\ccukIInD.s 			page 25


 338:FATFS/Target/user_diskio_spi.c **** 			for (n = 0; n < 4; n++) ocr[n] = xchg_spi(0xFF);	/* Get 32 bit return value of R7 resp */
 907              		.loc 1 338 3 view .LVU217
 338:FATFS/Target/user_diskio_spi.c **** 			for (n = 0; n < 4; n++) ocr[n] = xchg_spi(0xFF);	/* Get 32 bit return value of R7 resp */
 908              		.loc 1 338 7 is_stmt 0 view .LVU218
 909 0082 4FF4D571 		mov	r1, #426
 910 0086 0820     		movs	r0, #8
 911 0088 FFF7FEFF 		bl	send_cmd
 912              	.LVL87:
 338:FATFS/Target/user_diskio_spi.c **** 			for (n = 0; n < 4; n++) ocr[n] = xchg_spi(0xFF);	/* Get 32 bit return value of R7 resp */
 913              		.loc 1 338 6 view .LVU219
 914 008c 0128     		cmp	r0, #1
 915 008e 3CD1     		bne	.L98
 339:FATFS/Target/user_diskio_spi.c **** 			if (ocr[2] == 0x01 && ocr[3] == 0xAA) {				/* Is the card supports vcc of 2.7-3.6V? */
 916              		.loc 1 339 11 view .LVU220
 917 0090 2546     		mov	r5, r4
 918 0092 08E0     		b	.L73
 919              	.LVL88:
 920              	.L75:
 339:FATFS/Target/user_diskio_spi.c **** 			if (ocr[2] == 0x01 && ocr[3] == 0xAA) {				/* Is the card supports vcc of 2.7-3.6V? */
 921              		.loc 1 339 28 is_stmt 1 discriminator 3 view .LVU221
 339:FATFS/Target/user_diskio_spi.c **** 			if (ocr[2] == 0x01 && ocr[3] == 0xAA) {				/* Is the card supports vcc of 2.7-3.6V? */
 922              		.loc 1 339 37 is_stmt 0 discriminator 3 view .LVU222
 923 0094 FF20     		movs	r0, #255
 924 0096 FFF7FEFF 		bl	xchg_spi
 925              	.LVL89:
 339:FATFS/Target/user_diskio_spi.c **** 			if (ocr[2] == 0x01 && ocr[3] == 0xAA) {				/* Is the card supports vcc of 2.7-3.6V? */
 926              		.loc 1 339 35 discriminator 3 view .LVU223
 927 009a 02AB     		add	r3, sp, #8
 928 009c 2B44     		add	r3, r3, r5
 929 009e 03F8040C 		strb	r0, [r3, #-4]
 339:FATFS/Target/user_diskio_spi.c **** 			if (ocr[2] == 0x01 && ocr[3] == 0xAA) {				/* Is the card supports vcc of 2.7-3.6V? */
 930              		.loc 1 339 23 is_stmt 1 discriminator 3 view .LVU224
 339:FATFS/Target/user_diskio_spi.c **** 			if (ocr[2] == 0x01 && ocr[3] == 0xAA) {				/* Is the card supports vcc of 2.7-3.6V? */
 931              		.loc 1 339 24 is_stmt 0 discriminator 3 view .LVU225
 932 00a2 0135     		adds	r5, r5, #1
 933              	.LVL90:
 339:FATFS/Target/user_diskio_spi.c **** 			if (ocr[2] == 0x01 && ocr[3] == 0xAA) {				/* Is the card supports vcc of 2.7-3.6V? */
 934              		.loc 1 339 24 discriminator 3 view .LVU226
 935 00a4 EDB2     		uxtb	r5, r5
 936              	.LVL91:
 937              	.L73:
 339:FATFS/Target/user_diskio_spi.c **** 			if (ocr[2] == 0x01 && ocr[3] == 0xAA) {				/* Is the card supports vcc of 2.7-3.6V? */
 938              		.loc 1 339 16 is_stmt 1 discriminator 1 view .LVU227
 339:FATFS/Target/user_diskio_spi.c **** 			if (ocr[2] == 0x01 && ocr[3] == 0xAA) {				/* Is the card supports vcc of 2.7-3.6V? */
 939              		.loc 1 339 4 is_stmt 0 discriminator 1 view .LVU228
 940 00a6 032D     		cmp	r5, #3
 941 00a8 F4D9     		bls	.L75
 340:FATFS/Target/user_diskio_spi.c **** 				while (SPI_Timer_Status() && send_cmd(ACMD41, 1UL << 30)) ;	/* Wait for end of initialization w
 942              		.loc 1 340 4 is_stmt 1 view .LVU229
 340:FATFS/Target/user_diskio_spi.c **** 				while (SPI_Timer_Status() && send_cmd(ACMD41, 1UL << 30)) ;	/* Wait for end of initialization w
 943              		.loc 1 340 11 is_stmt 0 view .LVU230
 944 00aa 9DF80630 		ldrb	r3, [sp, #6]	@ zero_extendqisi2
 340:FATFS/Target/user_diskio_spi.c **** 				while (SPI_Timer_Status() && send_cmd(ACMD41, 1UL << 30)) ;	/* Wait for end of initialization w
 945              		.loc 1 340 7 view .LVU231
 946 00ae 012B     		cmp	r3, #1
 947 00b0 CBD1     		bne	.L72
 340:FATFS/Target/user_diskio_spi.c **** 				while (SPI_Timer_Status() && send_cmd(ACMD41, 1UL << 30)) ;	/* Wait for end of initialization w
ARM GAS  C:\Users\Admin\AppData\Local\Temp\ccukIInD.s 			page 26


 948              		.loc 1 340 29 discriminator 1 view .LVU232
 949 00b2 9DF80730 		ldrb	r3, [sp, #7]	@ zero_extendqisi2
 340:FATFS/Target/user_diskio_spi.c **** 				while (SPI_Timer_Status() && send_cmd(ACMD41, 1UL << 30)) ;	/* Wait for end of initialization w
 950              		.loc 1 340 23 discriminator 1 view .LVU233
 951 00b6 AA2B     		cmp	r3, #170
 952 00b8 C7D1     		bne	.L72
 953              	.L77:
 341:FATFS/Target/user_diskio_spi.c **** 				if (SPI_Timer_Status() && send_cmd(CMD58, 0) == 0) {		/* Check CCS bit in the OCR */
 954              		.loc 1 341 63 is_stmt 1 discriminator 2 view .LVU234
 341:FATFS/Target/user_diskio_spi.c **** 				if (SPI_Timer_Status() && send_cmd(CMD58, 0) == 0) {		/* Check CCS bit in the OCR */
 955              		.loc 1 341 11 discriminator 2 view .LVU235
 341:FATFS/Target/user_diskio_spi.c **** 				if (SPI_Timer_Status() && send_cmd(CMD58, 0) == 0) {		/* Check CCS bit in the OCR */
 956              		.loc 1 341 12 is_stmt 0 discriminator 2 view .LVU236
 957 00ba FFF7FEFF 		bl	SPI_Timer_Status
 958              	.LVL92:
 341:FATFS/Target/user_diskio_spi.c **** 				if (SPI_Timer_Status() && send_cmd(CMD58, 0) == 0) {		/* Check CCS bit in the OCR */
 959              		.loc 1 341 11 discriminator 2 view .LVU237
 960 00be 30B1     		cbz	r0, .L76
 341:FATFS/Target/user_diskio_spi.c **** 				if (SPI_Timer_Status() && send_cmd(CMD58, 0) == 0) {		/* Check CCS bit in the OCR */
 961              		.loc 1 341 34 discriminator 1 view .LVU238
 962 00c0 4FF08041 		mov	r1, #1073741824
 963 00c4 A920     		movs	r0, #169
 964 00c6 FFF7FEFF 		bl	send_cmd
 965              	.LVL93:
 341:FATFS/Target/user_diskio_spi.c **** 				if (SPI_Timer_Status() && send_cmd(CMD58, 0) == 0) {		/* Check CCS bit in the OCR */
 966              		.loc 1 341 31 discriminator 1 view .LVU239
 967 00ca 0028     		cmp	r0, #0
 968 00cc F5D1     		bne	.L77
 969              	.L76:
 342:FATFS/Target/user_diskio_spi.c **** 					for (n = 0; n < 4; n++) ocr[n] = xchg_spi(0xFF);
 970              		.loc 1 342 5 is_stmt 1 view .LVU240
 342:FATFS/Target/user_diskio_spi.c **** 					for (n = 0; n < 4; n++) ocr[n] = xchg_spi(0xFF);
 971              		.loc 1 342 9 is_stmt 0 view .LVU241
 972 00ce FFF7FEFF 		bl	SPI_Timer_Status
 973              	.LVL94:
 342:FATFS/Target/user_diskio_spi.c **** 					for (n = 0; n < 4; n++) ocr[n] = xchg_spi(0xFF);
 974              		.loc 1 342 8 view .LVU242
 975 00d2 08B9     		cbnz	r0, .L99
 335:FATFS/Target/user_diskio_spi.c **** 	if (send_cmd(CMD0, 0) == 1) {			/* Put the card SPI/Idle state */
 976              		.loc 1 335 5 view .LVU243
 977 00d4 0446     		mov	r4, r0
 978 00d6 B8E7     		b	.L72
 979              	.L99:
 342:FATFS/Target/user_diskio_spi.c **** 					for (n = 0; n < 4; n++) ocr[n] = xchg_spi(0xFF);
 980              		.loc 1 342 31 discriminator 1 view .LVU244
 981 00d8 0021     		movs	r1, #0
 982 00da 3A20     		movs	r0, #58
 983 00dc FFF7FEFF 		bl	send_cmd
 984              	.LVL95:
 342:FATFS/Target/user_diskio_spi.c **** 					for (n = 0; n < 4; n++) ocr[n] = xchg_spi(0xFF);
 985              		.loc 1 342 28 discriminator 1 view .LVU245
 986 00e0 0546     		mov	r5, r0
 987              	.LVL96:
 342:FATFS/Target/user_diskio_spi.c **** 					for (n = 0; n < 4; n++) ocr[n] = xchg_spi(0xFF);
 988              		.loc 1 342 28 discriminator 1 view .LVU246
 989 00e2 48B1     		cbz	r0, .L78
 990 00e4 B1E7     		b	.L72
ARM GAS  C:\Users\Admin\AppData\Local\Temp\ccukIInD.s 			page 27


 991              	.LVL97:
 992              	.L79:
 343:FATFS/Target/user_diskio_spi.c **** 					ty = (ocr[0] & 0x40) ? CT_SD2 | CT_BLOCK : CT_SD2;	/* Card id SDv2 */
 993              		.loc 1 343 30 is_stmt 1 discriminator 3 view .LVU247
 343:FATFS/Target/user_diskio_spi.c **** 					ty = (ocr[0] & 0x40) ? CT_SD2 | CT_BLOCK : CT_SD2;	/* Card id SDv2 */
 994              		.loc 1 343 39 is_stmt 0 discriminator 3 view .LVU248
 995 00e6 FF20     		movs	r0, #255
 996 00e8 FFF7FEFF 		bl	xchg_spi
 997              	.LVL98:
 343:FATFS/Target/user_diskio_spi.c **** 					ty = (ocr[0] & 0x40) ? CT_SD2 | CT_BLOCK : CT_SD2;	/* Card id SDv2 */
 998              		.loc 1 343 37 discriminator 3 view .LVU249
 999 00ec 02AB     		add	r3, sp, #8
 1000 00ee 2B44     		add	r3, r3, r5
 1001 00f0 03F8040C 		strb	r0, [r3, #-4]
 343:FATFS/Target/user_diskio_spi.c **** 					ty = (ocr[0] & 0x40) ? CT_SD2 | CT_BLOCK : CT_SD2;	/* Card id SDv2 */
 1002              		.loc 1 343 25 is_stmt 1 discriminator 3 view .LVU250
 343:FATFS/Target/user_diskio_spi.c **** 					ty = (ocr[0] & 0x40) ? CT_SD2 | CT_BLOCK : CT_SD2;	/* Card id SDv2 */
 1003              		.loc 1 343 26 is_stmt 0 discriminator 3 view .LVU251
 1004 00f4 0135     		adds	r5, r5, #1
 1005              	.LVL99:
 343:FATFS/Target/user_diskio_spi.c **** 					ty = (ocr[0] & 0x40) ? CT_SD2 | CT_BLOCK : CT_SD2;	/* Card id SDv2 */
 1006              		.loc 1 343 26 discriminator 3 view .LVU252
 1007 00f6 EDB2     		uxtb	r5, r5
 1008              	.LVL100:
 1009              	.L78:
 343:FATFS/Target/user_diskio_spi.c **** 					ty = (ocr[0] & 0x40) ? CT_SD2 | CT_BLOCK : CT_SD2;	/* Card id SDv2 */
 1010              		.loc 1 343 18 is_stmt 1 discriminator 1 view .LVU253
 343:FATFS/Target/user_diskio_spi.c **** 					ty = (ocr[0] & 0x40) ? CT_SD2 | CT_BLOCK : CT_SD2;	/* Card id SDv2 */
 1011              		.loc 1 343 6 is_stmt 0 discriminator 1 view .LVU254
 1012 00f8 032D     		cmp	r5, #3
 1013 00fa F4D9     		bls	.L79
 344:FATFS/Target/user_diskio_spi.c **** 				}
 1014              		.loc 1 344 6 is_stmt 1 view .LVU255
 344:FATFS/Target/user_diskio_spi.c **** 				}
 1015              		.loc 1 344 15 is_stmt 0 view .LVU256
 1016 00fc 9DF80430 		ldrb	r3, [sp, #4]	@ zero_extendqisi2
 344:FATFS/Target/user_diskio_spi.c **** 				}
 1017              		.loc 1 344 9 view .LVU257
 1018 0100 13F0400F 		tst	r3, #64
 1019 0104 22D0     		beq	.L88
 1020 0106 0C24     		movs	r4, #12
 1021 0108 9FE7     		b	.L72
 1022              	.LVL101:
 1023              	.L98:
 348:FATFS/Target/user_diskio_spi.c **** 				ty = CT_SD1; cmd = ACMD41;	/* SDv1 (ACMD41(0)) */
 1024              		.loc 1 348 4 is_stmt 1 view .LVU258
 348:FATFS/Target/user_diskio_spi.c **** 				ty = CT_SD1; cmd = ACMD41;	/* SDv1 (ACMD41(0)) */
 1025              		.loc 1 348 8 is_stmt 0 view .LVU259
 1026 010a 0021     		movs	r1, #0
 1027 010c A920     		movs	r0, #169
 1028 010e FFF7FEFF 		bl	send_cmd
 1029              	.LVL102:
 348:FATFS/Target/user_diskio_spi.c **** 				ty = CT_SD1; cmd = ACMD41;	/* SDv1 (ACMD41(0)) */
 1030              		.loc 1 348 7 view .LVU260
 1031 0112 0128     		cmp	r0, #1
 1032 0114 0ED9     		bls	.L100
 351:FATFS/Target/user_diskio_spi.c **** 			}
ARM GAS  C:\Users\Admin\AppData\Local\Temp\ccukIInD.s 			page 28


 1033              		.loc 1 351 8 view .LVU261
 1034 0116 2E46     		mov	r6, r5
 1035              	.LVL103:
 1036              	.L82:
 353:FATFS/Target/user_diskio_spi.c **** 			if (!SPI_Timer_Status() || send_cmd(CMD16, 512) != 0)	/* Set block length: 512 */
 1037              		.loc 1 353 51 is_stmt 1 discriminator 2 view .LVU262
 353:FATFS/Target/user_diskio_spi.c **** 			if (!SPI_Timer_Status() || send_cmd(CMD16, 512) != 0)	/* Set block length: 512 */
 1038              		.loc 1 353 10 discriminator 2 view .LVU263
 353:FATFS/Target/user_diskio_spi.c **** 			if (!SPI_Timer_Status() || send_cmd(CMD16, 512) != 0)	/* Set block length: 512 */
 1039              		.loc 1 353 11 is_stmt 0 discriminator 2 view .LVU264
 1040 0118 FFF7FEFF 		bl	SPI_Timer_Status
 1041              	.LVL104:
 353:FATFS/Target/user_diskio_spi.c **** 			if (!SPI_Timer_Status() || send_cmd(CMD16, 512) != 0)	/* Set block length: 512 */
 1042              		.loc 1 353 10 discriminator 2 view .LVU265
 1043 011c 28B1     		cbz	r0, .L81
 353:FATFS/Target/user_diskio_spi.c **** 			if (!SPI_Timer_Status() || send_cmd(CMD16, 512) != 0)	/* Set block length: 512 */
 1044              		.loc 1 353 33 discriminator 1 view .LVU266
 1045 011e 0021     		movs	r1, #0
 1046 0120 2846     		mov	r0, r5
 1047 0122 FFF7FEFF 		bl	send_cmd
 1048              	.LVL105:
 353:FATFS/Target/user_diskio_spi.c **** 			if (!SPI_Timer_Status() || send_cmd(CMD16, 512) != 0)	/* Set block length: 512 */
 1049              		.loc 1 353 30 discriminator 1 view .LVU267
 1050 0126 0028     		cmp	r0, #0
 1051 0128 F6D1     		bne	.L82
 1052              	.L81:
 354:FATFS/Target/user_diskio_spi.c **** 				ty = 0;
 1053              		.loc 1 354 4 is_stmt 1 view .LVU268
 354:FATFS/Target/user_diskio_spi.c **** 				ty = 0;
 1054              		.loc 1 354 9 is_stmt 0 view .LVU269
 1055 012a FFF7FEFF 		bl	SPI_Timer_Status
 1056              	.LVL106:
 354:FATFS/Target/user_diskio_spi.c **** 				ty = 0;
 1057              		.loc 1 354 7 view .LVU270
 1058 012e 20B9     		cbnz	r0, .L101
 355:FATFS/Target/user_diskio_spi.c **** 		}
 1059              		.loc 1 355 8 view .LVU271
 1060 0130 0446     		mov	r4, r0
 1061              	.LVL107:
 355:FATFS/Target/user_diskio_spi.c **** 		}
 1062              		.loc 1 355 8 view .LVU272
 1063 0132 8AE7     		b	.L72
 1064              	.LVL108:
 1065              	.L100:
 349:FATFS/Target/user_diskio_spi.c **** 			} else {
 1066              		.loc 1 349 8 view .LVU273
 1067 0134 0226     		movs	r6, #2
 349:FATFS/Target/user_diskio_spi.c **** 			} else {
 1068              		.loc 1 349 22 view .LVU274
 1069 0136 A925     		movs	r5, #169
 1070 0138 EEE7     		b	.L82
 1071              	.LVL109:
 1072              	.L101:
 354:FATFS/Target/user_diskio_spi.c **** 				ty = 0;
 1073              		.loc 1 354 31 discriminator 1 view .LVU275
 1074 013a 4FF40071 		mov	r1, #512
 1075 013e 1020     		movs	r0, #16
ARM GAS  C:\Users\Admin\AppData\Local\Temp\ccukIInD.s 			page 29


 1076 0140 FFF7FEFF 		bl	send_cmd
 1077              	.LVL110:
 354:FATFS/Target/user_diskio_spi.c **** 				ty = 0;
 1078              		.loc 1 354 28 discriminator 1 view .LVU276
 1079 0144 0028     		cmp	r0, #0
 1080 0146 80D1     		bne	.L72
 354:FATFS/Target/user_diskio_spi.c **** 				ty = 0;
 1081              		.loc 1 354 28 view .LVU277
 1082 0148 3446     		mov	r4, r6
 1083              	.LVL111:
 354:FATFS/Target/user_diskio_spi.c **** 				ty = 0;
 1084              		.loc 1 354 28 view .LVU278
 1085 014a 7EE7     		b	.L72
 1086              	.LVL112:
 1087              	.L88:
 344:FATFS/Target/user_diskio_spi.c **** 				}
 1088              		.loc 1 344 9 view .LVU279
 1089 014c 0424     		movs	r4, #4
 1090 014e 7CE7     		b	.L72
 1091              	.LVL113:
 1092              	.L83:
 365:FATFS/Target/user_diskio_spi.c **** 	}
 1093              		.loc 1 365 3 is_stmt 1 view .LVU280
 365:FATFS/Target/user_diskio_spi.c **** 	}
 1094              		.loc 1 365 8 is_stmt 0 view .LVU281
 1095 0150 024B     		ldr	r3, .L102
 1096 0152 0122     		movs	r2, #1
 1097 0154 1A70     		strb	r2, [r3]
 1098 0156 8BE7     		b	.L84
 1099              	.LVL114:
 1100              	.L85:
 1101              	.LCFI19:
 1102              		.cfi_def_cfa_offset 0
 1103              		.cfi_restore 4
 1104              		.cfi_restore 5
 1105              		.cfi_restore 6
 1106              		.cfi_restore 14
 327:FATFS/Target/user_diskio_spi.c **** 	//assume SPI already init init_spi();	/* Initialize SPI */
 1107              		.loc 1 327 23 view .LVU282
 1108 0158 0120     		movs	r0, #1
 1109              	.LVL115:
 1110              		.loc 1 369 1 view .LVU283
 1111 015a 7047     		bx	lr
 1112              	.L103:
 1113              		.align	2
 1114              	.L102:
 1115 015c 00000000 		.word	.LANCHOR0
 1116 0160 00000000 		.word	hspi2
 1117 0164 00000000 		.word	.LANCHOR1
 1118              		.cfi_endproc
 1119              	.LFE143:
 1121              		.section	.text.USER_SPI_status,"ax",%progbits
 1122              		.align	1
 1123              		.global	USER_SPI_status
 1124              		.syntax unified
 1125              		.thumb
 1126              		.thumb_func
ARM GAS  C:\Users\Admin\AppData\Local\Temp\ccukIInD.s 			page 30


 1127              		.fpu fpv4-sp-d16
 1129              	USER_SPI_status:
 1130              	.LVL116:
 1131              	.LFB144:
 370:FATFS/Target/user_diskio_spi.c **** 
 371:FATFS/Target/user_diskio_spi.c **** 
 372:FATFS/Target/user_diskio_spi.c **** 
 373:FATFS/Target/user_diskio_spi.c **** /*-----------------------------------------------------------------------*/
 374:FATFS/Target/user_diskio_spi.c **** /* Get disk status                                                       */
 375:FATFS/Target/user_diskio_spi.c **** /*-----------------------------------------------------------------------*/
 376:FATFS/Target/user_diskio_spi.c **** 
 377:FATFS/Target/user_diskio_spi.c **** inline DSTATUS USER_SPI_status (
 378:FATFS/Target/user_diskio_spi.c **** 	BYTE drv		/* Physical drive number (0) */
 379:FATFS/Target/user_diskio_spi.c **** )
 380:FATFS/Target/user_diskio_spi.c **** {
 1132              		.loc 1 380 1 is_stmt 1 view -0
 1133              		.cfi_startproc
 1134              		@ args = 0, pretend = 0, frame = 0
 1135              		@ frame_needed = 0, uses_anonymous_args = 0
 1136              		@ link register save eliminated.
 381:FATFS/Target/user_diskio_spi.c **** 	if (drv) return STA_NOINIT;		/* Supports only drive 0 */
 1137              		.loc 1 381 2 view .LVU285
 1138              		.loc 1 381 5 is_stmt 0 view .LVU286
 1139 0000 18B9     		cbnz	r0, .L106
 382:FATFS/Target/user_diskio_spi.c **** 
 383:FATFS/Target/user_diskio_spi.c **** 	return Stat;	/* Return disk status */
 1140              		.loc 1 383 2 is_stmt 1 view .LVU287
 1141              		.loc 1 383 9 is_stmt 0 view .LVU288
 1142 0002 034B     		ldr	r3, .L107
 1143 0004 1878     		ldrb	r0, [r3]	@ zero_extendqisi2
 1144              	.LVL117:
 1145              		.loc 1 383 9 view .LVU289
 1146 0006 C0B2     		uxtb	r0, r0
 1147 0008 7047     		bx	lr
 1148              	.LVL118:
 1149              	.L106:
 381:FATFS/Target/user_diskio_spi.c **** 	if (drv) return STA_NOINIT;		/* Supports only drive 0 */
 1150              		.loc 1 381 18 view .LVU290
 1151 000a 0120     		movs	r0, #1
 1152              	.LVL119:
 384:FATFS/Target/user_diskio_spi.c **** }
 1153              		.loc 1 384 1 view .LVU291
 1154 000c 7047     		bx	lr
 1155              	.L108:
 1156 000e 00BF     		.align	2
 1157              	.L107:
 1158 0010 00000000 		.word	.LANCHOR0
 1159              		.cfi_endproc
 1160              	.LFE144:
 1162              		.section	.text.USER_SPI_read,"ax",%progbits
 1163              		.align	1
 1164              		.global	USER_SPI_read
 1165              		.syntax unified
 1166              		.thumb
 1167              		.thumb_func
 1168              		.fpu fpv4-sp-d16
 1170              	USER_SPI_read:
ARM GAS  C:\Users\Admin\AppData\Local\Temp\ccukIInD.s 			page 31


 1171              	.LVL120:
 1172              	.LFB145:
 385:FATFS/Target/user_diskio_spi.c **** 
 386:FATFS/Target/user_diskio_spi.c **** 
 387:FATFS/Target/user_diskio_spi.c **** 
 388:FATFS/Target/user_diskio_spi.c **** /*-----------------------------------------------------------------------*/
 389:FATFS/Target/user_diskio_spi.c **** /* Read sector(s)                                                        */
 390:FATFS/Target/user_diskio_spi.c **** /*-----------------------------------------------------------------------*/
 391:FATFS/Target/user_diskio_spi.c **** 
 392:FATFS/Target/user_diskio_spi.c **** inline DRESULT USER_SPI_read (
 393:FATFS/Target/user_diskio_spi.c **** 	BYTE drv,		/* Physical drive number (0) */
 394:FATFS/Target/user_diskio_spi.c **** 	BYTE *buff,		/* Pointer to the data buffer to store read data */
 395:FATFS/Target/user_diskio_spi.c **** 	DWORD sector,	/* Start sector number (LBA) */
 396:FATFS/Target/user_diskio_spi.c **** 	UINT count		/* Number of sectors to read (1..128) */
 397:FATFS/Target/user_diskio_spi.c **** )
 398:FATFS/Target/user_diskio_spi.c **** {
 1173              		.loc 1 398 1 is_stmt 1 view -0
 1174              		.cfi_startproc
 1175              		@ args = 0, pretend = 0, frame = 0
 1176              		@ frame_needed = 0, uses_anonymous_args = 0
 399:FATFS/Target/user_diskio_spi.c **** 	if (drv || !count) return RES_PARERR;		/* Check parameter */
 1177              		.loc 1 399 2 view .LVU293
 1178              		.loc 1 399 5 is_stmt 0 view .LVU294
 1179 0000 0028     		cmp	r0, #0
 1180 0002 39D1     		bne	.L116
 398:FATFS/Target/user_diskio_spi.c **** 	if (drv || !count) return RES_PARERR;		/* Check parameter */
 1181              		.loc 1 398 1 discriminator 2 view .LVU295
 1182 0004 38B5     		push	{r3, r4, r5, lr}
 1183              	.LCFI20:
 1184              		.cfi_def_cfa_offset 16
 1185              		.cfi_offset 3, -16
 1186              		.cfi_offset 4, -12
 1187              		.cfi_offset 5, -8
 1188              		.cfi_offset 14, -4
 1189 0006 0D46     		mov	r5, r1
 1190 0008 1C46     		mov	r4, r3
 1191              		.loc 1 399 10 discriminator 2 view .LVU296
 1192 000a 002B     		cmp	r3, #0
 1193 000c 36D0     		beq	.L117
 400:FATFS/Target/user_diskio_spi.c **** 	if (Stat & STA_NOINIT) return RES_NOTRDY;	/* Check if drive is ready */
 1194              		.loc 1 400 2 is_stmt 1 view .LVU297
 1195              		.loc 1 400 11 is_stmt 0 view .LVU298
 1196 000e 1D4B     		ldr	r3, .L125
 1197              	.LVL121:
 1198              		.loc 1 400 11 view .LVU299
 1199 0010 1B78     		ldrb	r3, [r3]	@ zero_extendqisi2
 1200              		.loc 1 400 5 view .LVU300
 1201 0012 13F0010F 		tst	r3, #1
 1202 0016 33D1     		bne	.L118
 401:FATFS/Target/user_diskio_spi.c **** 
 402:FATFS/Target/user_diskio_spi.c **** 	if (!(CardType & CT_BLOCK)) sector *= 512;	/* LBA ot BA conversion (byte addressing cards) */
 1203              		.loc 1 402 2 is_stmt 1 view .LVU301
 1204              		.loc 1 402 17 is_stmt 0 view .LVU302
 1205 0018 1B4B     		ldr	r3, .L125+4
 1206 001a 1B78     		ldrb	r3, [r3]	@ zero_extendqisi2
 1207              		.loc 1 402 5 view .LVU303
 1208 001c 13F0080F 		tst	r3, #8
ARM GAS  C:\Users\Admin\AppData\Local\Temp\ccukIInD.s 			page 32


 1209 0020 00D1     		bne	.L111
 1210              		.loc 1 402 30 is_stmt 1 discriminator 1 view .LVU304
 1211              		.loc 1 402 37 is_stmt 0 discriminator 1 view .LVU305
 1212 0022 5202     		lsls	r2, r2, #9
 1213              	.LVL122:
 1214              	.L111:
 403:FATFS/Target/user_diskio_spi.c **** 
 404:FATFS/Target/user_diskio_spi.c **** 	if (count == 1) {	/* Single sector read */
 1215              		.loc 1 404 2 is_stmt 1 view .LVU306
 1216              		.loc 1 404 5 is_stmt 0 view .LVU307
 1217 0024 012C     		cmp	r4, #1
 1218 0026 18D0     		beq	.L124
 405:FATFS/Target/user_diskio_spi.c **** 		if ((send_cmd(CMD17, sector) == 0)	/* READ_SINGLE_BLOCK */
 406:FATFS/Target/user_diskio_spi.c **** 			&& rcvr_datablock(buff, 512)) {
 407:FATFS/Target/user_diskio_spi.c **** 			count = 0;
 408:FATFS/Target/user_diskio_spi.c **** 		}
 409:FATFS/Target/user_diskio_spi.c **** 	}
 410:FATFS/Target/user_diskio_spi.c **** 	else {				/* Multiple sector read */
 411:FATFS/Target/user_diskio_spi.c **** 		if (send_cmd(CMD18, sector) == 0) {	/* READ_MULTIPLE_BLOCK */
 1219              		.loc 1 411 3 is_stmt 1 view .LVU308
 1220              		.loc 1 411 7 is_stmt 0 view .LVU309
 1221 0028 1146     		mov	r1, r2
 1222              	.LVL123:
 1223              		.loc 1 411 7 view .LVU310
 1224 002a 1220     		movs	r0, #18
 1225              	.LVL124:
 1226              		.loc 1 411 7 view .LVU311
 1227 002c FFF7FEFF 		bl	send_cmd
 1228              	.LVL125:
 1229              		.loc 1 411 6 view .LVU312
 1230 0030 68B9     		cbnz	r0, .L113
 1231              	.L115:
 412:FATFS/Target/user_diskio_spi.c **** 			do {
 1232              		.loc 1 412 4 is_stmt 1 view .LVU313
 413:FATFS/Target/user_diskio_spi.c **** 				if (!rcvr_datablock(buff, 512)) break;
 1233              		.loc 1 413 5 view .LVU314
 1234              		.loc 1 413 10 is_stmt 0 view .LVU315
 1235 0032 4FF40071 		mov	r1, #512
 1236 0036 2846     		mov	r0, r5
 1237 0038 FFF7FEFF 		bl	rcvr_datablock
 1238              	.LVL126:
 1239              		.loc 1 413 8 view .LVU316
 1240 003c 18B1     		cbz	r0, .L114
 414:FATFS/Target/user_diskio_spi.c **** 				buff += 512;
 1241              		.loc 1 414 5 is_stmt 1 view .LVU317
 1242              		.loc 1 414 10 is_stmt 0 view .LVU318
 1243 003e 05F50075 		add	r5, r5, #512
 1244              	.LVL127:
 415:FATFS/Target/user_diskio_spi.c **** 			} while (--count);
 1245              		.loc 1 415 12 is_stmt 1 view .LVU319
 1246              		.loc 1 415 4 is_stmt 0 view .LVU320
 1247 0042 013C     		subs	r4, r4, #1
 1248              	.LVL128:
 1249              		.loc 1 415 4 view .LVU321
 1250 0044 F5D1     		bne	.L115
 1251              	.L114:
 416:FATFS/Target/user_diskio_spi.c **** 			send_cmd(CMD12, 0);				/* STOP_TRANSMISSION */
ARM GAS  C:\Users\Admin\AppData\Local\Temp\ccukIInD.s 			page 33


 1252              		.loc 1 416 4 is_stmt 1 view .LVU322
 1253 0046 0021     		movs	r1, #0
 1254 0048 0C20     		movs	r0, #12
 1255 004a FFF7FEFF 		bl	send_cmd
 1256              	.LVL129:
 1257              	.L113:
 417:FATFS/Target/user_diskio_spi.c **** 		}
 418:FATFS/Target/user_diskio_spi.c **** 	}
 419:FATFS/Target/user_diskio_spi.c **** 	despiselect();
 1258              		.loc 1 419 2 view .LVU323
 1259 004e FFF7FEFF 		bl	despiselect
 1260              	.LVL130:
 420:FATFS/Target/user_diskio_spi.c **** 
 421:FATFS/Target/user_diskio_spi.c **** 	return count ? RES_ERROR : RES_OK;	/* Return result */
 1261              		.loc 1 421 2 view .LVU324
 1262              		.loc 1 421 27 is_stmt 0 view .LVU325
 1263 0052 201E     		subs	r0, r4, #0
 1264 0054 18BF     		it	ne
 1265 0056 0120     		movne	r0, #1
 1266              	.L110:
 422:FATFS/Target/user_diskio_spi.c **** }
 1267              		.loc 1 422 1 view .LVU326
 1268 0058 38BD     		pop	{r3, r4, r5, pc}
 1269              	.LVL131:
 1270              	.L124:
 405:FATFS/Target/user_diskio_spi.c **** 			&& rcvr_datablock(buff, 512)) {
 1271              		.loc 1 405 3 is_stmt 1 view .LVU327
 405:FATFS/Target/user_diskio_spi.c **** 			&& rcvr_datablock(buff, 512)) {
 1272              		.loc 1 405 8 is_stmt 0 view .LVU328
 1273 005a 1146     		mov	r1, r2
 1274              	.LVL132:
 405:FATFS/Target/user_diskio_spi.c **** 			&& rcvr_datablock(buff, 512)) {
 1275              		.loc 1 405 8 view .LVU329
 1276 005c 1120     		movs	r0, #17
 1277              	.LVL133:
 405:FATFS/Target/user_diskio_spi.c **** 			&& rcvr_datablock(buff, 512)) {
 1278              		.loc 1 405 8 view .LVU330
 1279 005e FFF7FEFF 		bl	send_cmd
 1280              	.LVL134:
 405:FATFS/Target/user_diskio_spi.c **** 			&& rcvr_datablock(buff, 512)) {
 1281              		.loc 1 405 6 view .LVU331
 1282 0062 0028     		cmp	r0, #0
 1283 0064 F3D1     		bne	.L113
 406:FATFS/Target/user_diskio_spi.c **** 			count = 0;
 1284              		.loc 1 406 7 view .LVU332
 1285 0066 4FF40071 		mov	r1, #512
 1286 006a 2846     		mov	r0, r5
 1287 006c FFF7FEFF 		bl	rcvr_datablock
 1288              	.LVL135:
 406:FATFS/Target/user_diskio_spi.c **** 			count = 0;
 1289              		.loc 1 406 4 view .LVU333
 1290 0070 0028     		cmp	r0, #0
 1291 0072 ECD0     		beq	.L113
 407:FATFS/Target/user_diskio_spi.c **** 		}
 1292              		.loc 1 407 10 view .LVU334
 1293 0074 0024     		movs	r4, #0
 1294              	.LVL136:
ARM GAS  C:\Users\Admin\AppData\Local\Temp\ccukIInD.s 			page 34


 407:FATFS/Target/user_diskio_spi.c **** 		}
 1295              		.loc 1 407 10 view .LVU335
 1296 0076 EAE7     		b	.L113
 1297              	.LVL137:
 1298              	.L116:
 1299              	.LCFI21:
 1300              		.cfi_def_cfa_offset 0
 1301              		.cfi_restore 3
 1302              		.cfi_restore 4
 1303              		.cfi_restore 5
 1304              		.cfi_restore 14
 399:FATFS/Target/user_diskio_spi.c **** 	if (Stat & STA_NOINIT) return RES_NOTRDY;	/* Check if drive is ready */
 1305              		.loc 1 399 28 view .LVU336
 1306 0078 0420     		movs	r0, #4
 1307              	.LVL138:
 1308              		.loc 1 422 1 view .LVU337
 1309 007a 7047     		bx	lr
 1310              	.LVL139:
 1311              	.L117:
 1312              	.LCFI22:
 1313              		.cfi_def_cfa_offset 16
 1314              		.cfi_offset 3, -16
 1315              		.cfi_offset 4, -12
 1316              		.cfi_offset 5, -8
 1317              		.cfi_offset 14, -4
 399:FATFS/Target/user_diskio_spi.c **** 	if (Stat & STA_NOINIT) return RES_NOTRDY;	/* Check if drive is ready */
 1318              		.loc 1 399 28 view .LVU338
 1319 007c 0420     		movs	r0, #4
 1320              	.LVL140:
 399:FATFS/Target/user_diskio_spi.c **** 	if (Stat & STA_NOINIT) return RES_NOTRDY;	/* Check if drive is ready */
 1321              		.loc 1 399 28 view .LVU339
 1322 007e EBE7     		b	.L110
 1323              	.LVL141:
 1324              	.L118:
 400:FATFS/Target/user_diskio_spi.c **** 
 1325              		.loc 1 400 32 view .LVU340
 1326 0080 0320     		movs	r0, #3
 1327              	.LVL142:
 400:FATFS/Target/user_diskio_spi.c **** 
 1328              		.loc 1 400 32 view .LVU341
 1329 0082 E9E7     		b	.L110
 1330              	.L126:
 1331              		.align	2
 1332              	.L125:
 1333 0084 00000000 		.word	.LANCHOR0
 1334 0088 00000000 		.word	.LANCHOR1
 1335              		.cfi_endproc
 1336              	.LFE145:
 1338              		.section	.text.USER_SPI_write,"ax",%progbits
 1339              		.align	1
 1340              		.global	USER_SPI_write
 1341              		.syntax unified
 1342              		.thumb
 1343              		.thumb_func
 1344              		.fpu fpv4-sp-d16
 1346              	USER_SPI_write:
 1347              	.LVL143:
ARM GAS  C:\Users\Admin\AppData\Local\Temp\ccukIInD.s 			page 35


 1348              	.LFB146:
 423:FATFS/Target/user_diskio_spi.c **** 
 424:FATFS/Target/user_diskio_spi.c **** 
 425:FATFS/Target/user_diskio_spi.c **** 
 426:FATFS/Target/user_diskio_spi.c **** /*-----------------------------------------------------------------------*/
 427:FATFS/Target/user_diskio_spi.c **** /* Write sector(s)                                                       */
 428:FATFS/Target/user_diskio_spi.c **** /*-----------------------------------------------------------------------*/
 429:FATFS/Target/user_diskio_spi.c **** 
 430:FATFS/Target/user_diskio_spi.c **** #if _USE_WRITE
 431:FATFS/Target/user_diskio_spi.c **** inline DRESULT USER_SPI_write (
 432:FATFS/Target/user_diskio_spi.c **** 	BYTE drv,			/* Physical drive number (0) */
 433:FATFS/Target/user_diskio_spi.c **** 	const BYTE *buff,	/* Ponter to the data to write */
 434:FATFS/Target/user_diskio_spi.c **** 	DWORD sector,		/* Start sector number (LBA) */
 435:FATFS/Target/user_diskio_spi.c **** 	UINT count			/* Number of sectors to write (1..128) */
 436:FATFS/Target/user_diskio_spi.c **** )
 437:FATFS/Target/user_diskio_spi.c **** {
 1349              		.loc 1 437 1 is_stmt 1 view -0
 1350              		.cfi_startproc
 1351              		@ args = 0, pretend = 0, frame = 0
 1352              		@ frame_needed = 0, uses_anonymous_args = 0
 438:FATFS/Target/user_diskio_spi.c **** 	if (drv || !count) return RES_PARERR;		/* Check parameter */
 1353              		.loc 1 438 2 view .LVU343
 1354              		.loc 1 438 5 is_stmt 0 view .LVU344
 1355 0000 0028     		cmp	r0, #0
 1356 0002 48D1     		bne	.L135
 437:FATFS/Target/user_diskio_spi.c **** 	if (drv || !count) return RES_PARERR;		/* Check parameter */
 1357              		.loc 1 437 1 discriminator 2 view .LVU345
 1358 0004 70B5     		push	{r4, r5, r6, lr}
 1359              	.LCFI23:
 1360              		.cfi_def_cfa_offset 16
 1361              		.cfi_offset 4, -16
 1362              		.cfi_offset 5, -12
 1363              		.cfi_offset 6, -8
 1364              		.cfi_offset 14, -4
 1365 0006 0D46     		mov	r5, r1
 1366 0008 1646     		mov	r6, r2
 1367 000a 1C46     		mov	r4, r3
 1368              		.loc 1 438 10 discriminator 2 view .LVU346
 1369 000c 002B     		cmp	r3, #0
 1370 000e 44D0     		beq	.L136
 439:FATFS/Target/user_diskio_spi.c **** 	if (Stat & STA_NOINIT) return RES_NOTRDY;	/* Check drive status */
 1371              		.loc 1 439 2 is_stmt 1 view .LVU347
 1372              		.loc 1 439 11 is_stmt 0 view .LVU348
 1373 0010 254B     		ldr	r3, .L147
 1374              	.LVL144:
 1375              		.loc 1 439 11 view .LVU349
 1376 0012 1B78     		ldrb	r3, [r3]	@ zero_extendqisi2
 1377              		.loc 1 439 5 view .LVU350
 1378 0014 13F0010F 		tst	r3, #1
 1379 0018 41D1     		bne	.L137
 440:FATFS/Target/user_diskio_spi.c **** 	if (Stat & STA_PROTECT) return RES_WRPRT;	/* Check write protect */
 1380              		.loc 1 440 2 is_stmt 1 view .LVU351
 1381              		.loc 1 440 11 is_stmt 0 view .LVU352
 1382 001a 234B     		ldr	r3, .L147
 1383 001c 1B78     		ldrb	r3, [r3]	@ zero_extendqisi2
 1384              		.loc 1 440 5 view .LVU353
 1385 001e 13F0040F 		tst	r3, #4
ARM GAS  C:\Users\Admin\AppData\Local\Temp\ccukIInD.s 			page 36


 1386 0022 3ED1     		bne	.L138
 441:FATFS/Target/user_diskio_spi.c **** 
 442:FATFS/Target/user_diskio_spi.c **** 	if (!(CardType & CT_BLOCK)) sector *= 512;	/* LBA ==> BA conversion (byte addressing cards) */
 1387              		.loc 1 442 2 is_stmt 1 view .LVU354
 1388              		.loc 1 442 17 is_stmt 0 view .LVU355
 1389 0024 214B     		ldr	r3, .L147+4
 1390 0026 1B78     		ldrb	r3, [r3]	@ zero_extendqisi2
 1391              		.loc 1 442 5 view .LVU356
 1392 0028 13F0080F 		tst	r3, #8
 1393 002c 00D1     		bne	.L129
 1394              		.loc 1 442 30 is_stmt 1 discriminator 1 view .LVU357
 1395              		.loc 1 442 37 is_stmt 0 discriminator 1 view .LVU358
 1396 002e 5602     		lsls	r6, r2, #9
 1397              	.LVL145:
 1398              	.L129:
 443:FATFS/Target/user_diskio_spi.c **** 
 444:FATFS/Target/user_diskio_spi.c **** 	if (count == 1) {	/* Single sector write */
 1399              		.loc 1 444 2 is_stmt 1 view .LVU359
 1400              		.loc 1 444 5 is_stmt 0 view .LVU360
 1401 0030 012C     		cmp	r4, #1
 1402 0032 1BD0     		beq	.L145
 445:FATFS/Target/user_diskio_spi.c **** 		if ((send_cmd(CMD24, sector) == 0)	/* WRITE_BLOCK */
 446:FATFS/Target/user_diskio_spi.c **** 			&& xmit_datablock(buff, 0xFE)) {
 447:FATFS/Target/user_diskio_spi.c **** 			count = 0;
 448:FATFS/Target/user_diskio_spi.c **** 		}
 449:FATFS/Target/user_diskio_spi.c **** 	}
 450:FATFS/Target/user_diskio_spi.c **** 	else {				/* Multiple sector write */
 451:FATFS/Target/user_diskio_spi.c **** 		if (CardType & CT_SDC) send_cmd(ACMD23, count);	/* Predefine number of sectors */
 1403              		.loc 1 451 3 is_stmt 1 view .LVU361
 1404              		.loc 1 451 6 is_stmt 0 view .LVU362
 1405 0034 13F0060F 		tst	r3, #6
 1406 0038 26D1     		bne	.L146
 1407              	.LVL146:
 1408              	.L132:
 452:FATFS/Target/user_diskio_spi.c **** 		if (send_cmd(CMD25, sector) == 0) {	/* WRITE_MULTIPLE_BLOCK */
 1409              		.loc 1 452 3 is_stmt 1 view .LVU363
 1410              		.loc 1 452 7 is_stmt 0 view .LVU364
 1411 003a 3146     		mov	r1, r6
 1412 003c 1920     		movs	r0, #25
 1413 003e FFF7FEFF 		bl	send_cmd
 1414              	.LVL147:
 1415              		.loc 1 452 6 view .LVU365
 1416 0042 68B9     		cbnz	r0, .L131
 1417              	.L134:
 453:FATFS/Target/user_diskio_spi.c **** 			do {
 1418              		.loc 1 453 4 is_stmt 1 view .LVU366
 454:FATFS/Target/user_diskio_spi.c **** 				if (!xmit_datablock(buff, 0xFC)) break;
 1419              		.loc 1 454 5 view .LVU367
 1420              		.loc 1 454 10 is_stmt 0 view .LVU368
 1421 0044 FC21     		movs	r1, #252
 1422 0046 2846     		mov	r0, r5
 1423 0048 FFF7FEFF 		bl	xmit_datablock
 1424              	.LVL148:
 1425              		.loc 1 454 8 view .LVU369
 1426 004c 18B1     		cbz	r0, .L133
 455:FATFS/Target/user_diskio_spi.c **** 				buff += 512;
 1427              		.loc 1 455 5 is_stmt 1 view .LVU370
ARM GAS  C:\Users\Admin\AppData\Local\Temp\ccukIInD.s 			page 37


 1428              		.loc 1 455 10 is_stmt 0 view .LVU371
 1429 004e 05F50075 		add	r5, r5, #512
 1430              	.LVL149:
 456:FATFS/Target/user_diskio_spi.c **** 			} while (--count);
 1431              		.loc 1 456 12 is_stmt 1 view .LVU372
 1432              		.loc 1 456 4 is_stmt 0 view .LVU373
 1433 0052 013C     		subs	r4, r4, #1
 1434              	.LVL150:
 1435              		.loc 1 456 4 view .LVU374
 1436 0054 F6D1     		bne	.L134
 1437              	.L133:
 457:FATFS/Target/user_diskio_spi.c **** 			if (!xmit_datablock(0, 0xFD)) count = 1;	/* STOP_TRAN token */
 1438              		.loc 1 457 4 is_stmt 1 view .LVU375
 1439              		.loc 1 457 9 is_stmt 0 view .LVU376
 1440 0056 FD21     		movs	r1, #253
 1441 0058 0020     		movs	r0, #0
 1442 005a FFF7FEFF 		bl	xmit_datablock
 1443              	.LVL151:
 1444              		.loc 1 457 7 view .LVU377
 1445 005e C0B1     		cbz	r0, .L140
 1446              	.LVL152:
 1447              	.L131:
 458:FATFS/Target/user_diskio_spi.c **** 		}
 459:FATFS/Target/user_diskio_spi.c **** 	}
 460:FATFS/Target/user_diskio_spi.c **** 	despiselect();
 1448              		.loc 1 460 2 is_stmt 1 view .LVU378
 1449 0060 FFF7FEFF 		bl	despiselect
 1450              	.LVL153:
 461:FATFS/Target/user_diskio_spi.c **** 
 462:FATFS/Target/user_diskio_spi.c **** 	return count ? RES_ERROR : RES_OK;	/* Return result */
 1451              		.loc 1 462 2 view .LVU379
 1452              		.loc 1 462 27 is_stmt 0 view .LVU380
 1453 0064 201E     		subs	r0, r4, #0
 1454 0066 18BF     		it	ne
 1455 0068 0120     		movne	r0, #1
 1456              	.L128:
 463:FATFS/Target/user_diskio_spi.c **** }
 1457              		.loc 1 463 1 view .LVU381
 1458 006a 70BD     		pop	{r4, r5, r6, pc}
 1459              	.LVL154:
 1460              	.L145:
 445:FATFS/Target/user_diskio_spi.c **** 			&& xmit_datablock(buff, 0xFE)) {
 1461              		.loc 1 445 3 is_stmt 1 view .LVU382
 445:FATFS/Target/user_diskio_spi.c **** 			&& xmit_datablock(buff, 0xFE)) {
 1462              		.loc 1 445 8 is_stmt 0 view .LVU383
 1463 006c 3146     		mov	r1, r6
 1464              	.LVL155:
 445:FATFS/Target/user_diskio_spi.c **** 			&& xmit_datablock(buff, 0xFE)) {
 1465              		.loc 1 445 8 view .LVU384
 1466 006e 1820     		movs	r0, #24
 1467              	.LVL156:
 445:FATFS/Target/user_diskio_spi.c **** 			&& xmit_datablock(buff, 0xFE)) {
 1468              		.loc 1 445 8 view .LVU385
 1469 0070 FFF7FEFF 		bl	send_cmd
 1470              	.LVL157:
 445:FATFS/Target/user_diskio_spi.c **** 			&& xmit_datablock(buff, 0xFE)) {
 1471              		.loc 1 445 6 view .LVU386
ARM GAS  C:\Users\Admin\AppData\Local\Temp\ccukIInD.s 			page 38


 1472 0074 0028     		cmp	r0, #0
 1473 0076 F3D1     		bne	.L131
 446:FATFS/Target/user_diskio_spi.c **** 			count = 0;
 1474              		.loc 1 446 7 view .LVU387
 1475 0078 FE21     		movs	r1, #254
 1476 007a 2846     		mov	r0, r5
 1477 007c FFF7FEFF 		bl	xmit_datablock
 1478              	.LVL158:
 446:FATFS/Target/user_diskio_spi.c **** 			count = 0;
 1479              		.loc 1 446 4 view .LVU388
 1480 0080 0028     		cmp	r0, #0
 1481 0082 EDD0     		beq	.L131
 447:FATFS/Target/user_diskio_spi.c **** 		}
 1482              		.loc 1 447 10 view .LVU389
 1483 0084 0024     		movs	r4, #0
 1484              	.LVL159:
 447:FATFS/Target/user_diskio_spi.c **** 		}
 1485              		.loc 1 447 10 view .LVU390
 1486 0086 EBE7     		b	.L131
 1487              	.LVL160:
 1488              	.L146:
 451:FATFS/Target/user_diskio_spi.c **** 		if (send_cmd(CMD25, sector) == 0) {	/* WRITE_MULTIPLE_BLOCK */
 1489              		.loc 1 451 26 is_stmt 1 discriminator 1 view .LVU391
 1490 0088 2146     		mov	r1, r4
 1491              	.LVL161:
 451:FATFS/Target/user_diskio_spi.c **** 		if (send_cmd(CMD25, sector) == 0) {	/* WRITE_MULTIPLE_BLOCK */
 1492              		.loc 1 451 26 is_stmt 0 discriminator 1 view .LVU392
 1493 008a 9720     		movs	r0, #151
 1494              	.LVL162:
 451:FATFS/Target/user_diskio_spi.c **** 		if (send_cmd(CMD25, sector) == 0) {	/* WRITE_MULTIPLE_BLOCK */
 1495              		.loc 1 451 26 discriminator 1 view .LVU393
 1496 008c FFF7FEFF 		bl	send_cmd
 1497              	.LVL163:
 1498 0090 D3E7     		b	.L132
 1499              	.L140:
 457:FATFS/Target/user_diskio_spi.c **** 		}
 1500              		.loc 1 457 40 view .LVU394
 1501 0092 0124     		movs	r4, #1
 1502              	.LVL164:
 457:FATFS/Target/user_diskio_spi.c **** 		}
 1503              		.loc 1 457 40 view .LVU395
 1504 0094 E4E7     		b	.L131
 1505              	.LVL165:
 1506              	.L135:
 1507              	.LCFI24:
 1508              		.cfi_def_cfa_offset 0
 1509              		.cfi_restore 4
 1510              		.cfi_restore 5
 1511              		.cfi_restore 6
 1512              		.cfi_restore 14
 438:FATFS/Target/user_diskio_spi.c **** 	if (Stat & STA_NOINIT) return RES_NOTRDY;	/* Check drive status */
 1513              		.loc 1 438 28 view .LVU396
 1514 0096 0420     		movs	r0, #4
 1515              	.LVL166:
 1516              		.loc 1 463 1 view .LVU397
 1517 0098 7047     		bx	lr
 1518              	.LVL167:
ARM GAS  C:\Users\Admin\AppData\Local\Temp\ccukIInD.s 			page 39


 1519              	.L136:
 1520              	.LCFI25:
 1521              		.cfi_def_cfa_offset 16
 1522              		.cfi_offset 4, -16
 1523              		.cfi_offset 5, -12
 1524              		.cfi_offset 6, -8
 1525              		.cfi_offset 14, -4
 438:FATFS/Target/user_diskio_spi.c **** 	if (Stat & STA_NOINIT) return RES_NOTRDY;	/* Check drive status */
 1526              		.loc 1 438 28 view .LVU398
 1527 009a 0420     		movs	r0, #4
 1528              	.LVL168:
 438:FATFS/Target/user_diskio_spi.c **** 	if (Stat & STA_NOINIT) return RES_NOTRDY;	/* Check drive status */
 1529              		.loc 1 438 28 view .LVU399
 1530 009c E5E7     		b	.L128
 1531              	.LVL169:
 1532              	.L137:
 439:FATFS/Target/user_diskio_spi.c **** 	if (Stat & STA_PROTECT) return RES_WRPRT;	/* Check write protect */
 1533              		.loc 1 439 32 view .LVU400
 1534 009e 0320     		movs	r0, #3
 1535              	.LVL170:
 439:FATFS/Target/user_diskio_spi.c **** 	if (Stat & STA_PROTECT) return RES_WRPRT;	/* Check write protect */
 1536              		.loc 1 439 32 view .LVU401
 1537 00a0 E3E7     		b	.L128
 1538              	.LVL171:
 1539              	.L138:
 440:FATFS/Target/user_diskio_spi.c **** 
 1540              		.loc 1 440 33 view .LVU402
 1541 00a2 0220     		movs	r0, #2
 1542              	.LVL172:
 440:FATFS/Target/user_diskio_spi.c **** 
 1543              		.loc 1 440 33 view .LVU403
 1544 00a4 E1E7     		b	.L128
 1545              	.L148:
 1546 00a6 00BF     		.align	2
 1547              	.L147:
 1548 00a8 00000000 		.word	.LANCHOR0
 1549 00ac 00000000 		.word	.LANCHOR1
 1550              		.cfi_endproc
 1551              	.LFE146:
 1553              		.section	.text.USER_SPI_ioctl,"ax",%progbits
 1554              		.align	1
 1555              		.global	USER_SPI_ioctl
 1556              		.syntax unified
 1557              		.thumb
 1558              		.thumb_func
 1559              		.fpu fpv4-sp-d16
 1561              	USER_SPI_ioctl:
 1562              	.LVL173:
 1563              	.LFB147:
 464:FATFS/Target/user_diskio_spi.c **** #endif
 465:FATFS/Target/user_diskio_spi.c **** 
 466:FATFS/Target/user_diskio_spi.c **** 
 467:FATFS/Target/user_diskio_spi.c **** /*-----------------------------------------------------------------------*/
 468:FATFS/Target/user_diskio_spi.c **** /* Miscellaneous drive controls other than data read/write               */
 469:FATFS/Target/user_diskio_spi.c **** /*-----------------------------------------------------------------------*/
 470:FATFS/Target/user_diskio_spi.c **** 
 471:FATFS/Target/user_diskio_spi.c **** #if _USE_IOCTL
ARM GAS  C:\Users\Admin\AppData\Local\Temp\ccukIInD.s 			page 40


 472:FATFS/Target/user_diskio_spi.c **** inline DRESULT USER_SPI_ioctl (
 473:FATFS/Target/user_diskio_spi.c **** 	BYTE drv,		/* Physical drive number (0) */
 474:FATFS/Target/user_diskio_spi.c **** 	BYTE cmd,		/* Control command code */
 475:FATFS/Target/user_diskio_spi.c **** 	void *buff		/* Pointer to the conrtol data */
 476:FATFS/Target/user_diskio_spi.c **** )
 477:FATFS/Target/user_diskio_spi.c **** {
 1564              		.loc 1 477 1 is_stmt 1 view -0
 1565              		.cfi_startproc
 1566              		@ args = 0, pretend = 0, frame = 16
 1567              		@ frame_needed = 0, uses_anonymous_args = 0
 1568              		.loc 1 477 1 is_stmt 0 view .LVU405
 1569 0000 70B5     		push	{r4, r5, r6, lr}
 1570              	.LCFI26:
 1571              		.cfi_def_cfa_offset 16
 1572              		.cfi_offset 4, -16
 1573              		.cfi_offset 5, -12
 1574              		.cfi_offset 6, -8
 1575              		.cfi_offset 14, -4
 1576 0002 84B0     		sub	sp, sp, #16
 1577              	.LCFI27:
 1578              		.cfi_def_cfa_offset 32
 478:FATFS/Target/user_diskio_spi.c **** 	DRESULT res;
 1579              		.loc 1 478 2 is_stmt 1 view .LVU406
 479:FATFS/Target/user_diskio_spi.c **** 	BYTE n, csd[16];
 1580              		.loc 1 479 2 view .LVU407
 480:FATFS/Target/user_diskio_spi.c **** 	DWORD *dp, st, ed, csize;
 1581              		.loc 1 480 2 view .LVU408
 481:FATFS/Target/user_diskio_spi.c **** 
 482:FATFS/Target/user_diskio_spi.c **** 
 483:FATFS/Target/user_diskio_spi.c **** 	if (drv) return RES_PARERR;					/* Check parameter */
 1582              		.loc 1 483 2 view .LVU409
 1583              		.loc 1 483 5 is_stmt 0 view .LVU410
 1584 0004 0028     		cmp	r0, #0
 1585 0006 40F00481 		bne	.L164
 1586 000a 0D46     		mov	r5, r1
 1587 000c 1646     		mov	r6, r2
 484:FATFS/Target/user_diskio_spi.c **** 	if (Stat & STA_NOINIT) return RES_NOTRDY;	/* Check if drive is ready */
 1588              		.loc 1 484 2 is_stmt 1 view .LVU411
 1589              		.loc 1 484 11 is_stmt 0 view .LVU412
 1590 000e 834B     		ldr	r3, .L189
 1591 0010 1B78     		ldrb	r3, [r3]	@ zero_extendqisi2
 1592              		.loc 1 484 5 view .LVU413
 1593 0012 13F0010F 		tst	r3, #1
 1594 0016 40F0FE80 		bne	.L165
 485:FATFS/Target/user_diskio_spi.c **** 
 486:FATFS/Target/user_diskio_spi.c **** 	res = RES_ERROR;
 1595              		.loc 1 486 2 is_stmt 1 view .LVU414
 1596              	.LVL174:
 487:FATFS/Target/user_diskio_spi.c **** 
 488:FATFS/Target/user_diskio_spi.c **** 	switch (cmd) {
 1597              		.loc 1 488 2 view .LVU415
 1598 001a 0429     		cmp	r1, #4
 1599 001c 00F2ED80 		bhi	.L166
 1600 0020 DFE811F0 		tbh	[pc, r1, lsl #1]
 1601              	.L153:
 1602 0024 0500     		.2byte	(.L156-.L153)/2
 1603 0026 0C00     		.2byte	(.L155-.L153)/2
ARM GAS  C:\Users\Admin\AppData\Local\Temp\ccukIInD.s 			page 41


 1604 0028 EB00     		.2byte	(.L166-.L153)/2
 1605 002a 5400     		.2byte	(.L154-.L153)/2
 1606 002c AF00     		.2byte	(.L152-.L153)/2
 1607              		.p2align 1
 1608              	.L156:
 489:FATFS/Target/user_diskio_spi.c **** 	case CTRL_SYNC :		/* Wait for end of internal write process of the drive */
 490:FATFS/Target/user_diskio_spi.c **** 		if (spiselect()) res = RES_OK;
 1609              		.loc 1 490 3 view .LVU416
 1610              		.loc 1 490 7 is_stmt 0 view .LVU417
 1611 002e FFF7FEFF 		bl	spiselect
 1612              	.LVL175:
 1613              		.loc 1 490 6 view .LVU418
 1614 0032 0028     		cmp	r0, #0
 1615 0034 40F0E380 		bne	.L167
 486:FATFS/Target/user_diskio_spi.c **** 
 1616              		.loc 1 486 6 view .LVU419
 1617 0038 0124     		movs	r4, #1
 1618 003a 06E0     		b	.L151
 1619              	.LVL176:
 1620              	.L155:
 491:FATFS/Target/user_diskio_spi.c **** 		break;
 492:FATFS/Target/user_diskio_spi.c **** 
 493:FATFS/Target/user_diskio_spi.c **** 	case GET_SECTOR_COUNT :	/* Get drive capacity in unit of sector (DWORD) */
 494:FATFS/Target/user_diskio_spi.c **** 		if ((send_cmd(CMD9, 0) == 0) && rcvr_datablock(csd, 16)) {
 1621              		.loc 1 494 3 is_stmt 1 view .LVU420
 1622              		.loc 1 494 8 is_stmt 0 view .LVU421
 1623 003c 0021     		movs	r1, #0
 1624              	.LVL177:
 1625              		.loc 1 494 8 view .LVU422
 1626 003e 0920     		movs	r0, #9
 1627              	.LVL178:
 1628              		.loc 1 494 8 view .LVU423
 1629 0040 FFF7FEFF 		bl	send_cmd
 1630              	.LVL179:
 1631              		.loc 1 494 6 view .LVU424
 1632 0044 0446     		mov	r4, r0
 1633 0046 28B1     		cbz	r0, .L181
 486:FATFS/Target/user_diskio_spi.c **** 
 1634              		.loc 1 486 6 view .LVU425
 1635 0048 2C46     		mov	r4, r5
 1636              	.LVL180:
 1637              	.L151:
 495:FATFS/Target/user_diskio_spi.c **** 			if ((csd[0] >> 6) == 1) {	/* SDC ver 2.00 */
 496:FATFS/Target/user_diskio_spi.c **** 				csize = csd[9] + ((WORD)csd[8] << 8) + ((DWORD)(csd[7] & 63) << 16) + 1;
 497:FATFS/Target/user_diskio_spi.c **** 				*(DWORD*)buff = csize << 10;
 498:FATFS/Target/user_diskio_spi.c **** 			} else {					/* SDC ver 1.XX or MMC ver 3 */
 499:FATFS/Target/user_diskio_spi.c **** 				n = (csd[5] & 15) + ((csd[10] & 128) >> 7) + ((csd[9] & 3) << 1) + 2;
 500:FATFS/Target/user_diskio_spi.c **** 				csize = (csd[8] >> 6) + ((WORD)csd[7] << 2) + ((WORD)(csd[6] & 3) << 10) + 1;
 501:FATFS/Target/user_diskio_spi.c **** 				*(DWORD*)buff = csize << (n - 9);
 502:FATFS/Target/user_diskio_spi.c **** 			}
 503:FATFS/Target/user_diskio_spi.c **** 			res = RES_OK;
 504:FATFS/Target/user_diskio_spi.c **** 		}
 505:FATFS/Target/user_diskio_spi.c **** 		break;
 506:FATFS/Target/user_diskio_spi.c **** 
 507:FATFS/Target/user_diskio_spi.c **** 	case GET_BLOCK_SIZE :	/* Get erase block size in unit of sector (DWORD) */
 508:FATFS/Target/user_diskio_spi.c **** 		if (CardType & CT_SD2) {	/* SDC ver 2.00 */
 509:FATFS/Target/user_diskio_spi.c **** 			if (send_cmd(ACMD13, 0) == 0) {	/* Read SD status */
ARM GAS  C:\Users\Admin\AppData\Local\Temp\ccukIInD.s 			page 42


 510:FATFS/Target/user_diskio_spi.c **** 				xchg_spi(0xFF);
 511:FATFS/Target/user_diskio_spi.c **** 				if (rcvr_datablock(csd, 16)) {				/* Read partial block */
 512:FATFS/Target/user_diskio_spi.c **** 					for (n = 64 - 16; n; n--) xchg_spi(0xFF);	/* Purge trailing data */
 513:FATFS/Target/user_diskio_spi.c **** 					*(DWORD*)buff = 16UL << (csd[10] >> 4);
 514:FATFS/Target/user_diskio_spi.c **** 					res = RES_OK;
 515:FATFS/Target/user_diskio_spi.c **** 				}
 516:FATFS/Target/user_diskio_spi.c **** 			}
 517:FATFS/Target/user_diskio_spi.c **** 		} else {					/* SDC ver 1.XX or MMC */
 518:FATFS/Target/user_diskio_spi.c **** 			if ((send_cmd(CMD9, 0) == 0) && rcvr_datablock(csd, 16)) {	/* Read CSD */
 519:FATFS/Target/user_diskio_spi.c **** 				if (CardType & CT_SD1) {	/* SDC ver 1.XX */
 520:FATFS/Target/user_diskio_spi.c **** 					*(DWORD*)buff = (((csd[10] & 63) << 1) + ((WORD)(csd[11] & 128) >> 7) + 1) << ((csd[13] >> 6) 
 521:FATFS/Target/user_diskio_spi.c **** 				} else {					/* MMC */
 522:FATFS/Target/user_diskio_spi.c **** 					*(DWORD*)buff = ((WORD)((csd[10] & 124) >> 2) + 1) * (((csd[11] & 3) << 3) + ((csd[11] & 224) 
 523:FATFS/Target/user_diskio_spi.c **** 				}
 524:FATFS/Target/user_diskio_spi.c **** 				res = RES_OK;
 525:FATFS/Target/user_diskio_spi.c **** 			}
 526:FATFS/Target/user_diskio_spi.c **** 		}
 527:FATFS/Target/user_diskio_spi.c **** 		break;
 528:FATFS/Target/user_diskio_spi.c **** 
 529:FATFS/Target/user_diskio_spi.c **** 	case CTRL_TRIM :	/* Erase a block of sectors (used when _USE_ERASE == 1) */
 530:FATFS/Target/user_diskio_spi.c **** 		if (!(CardType & CT_SDC)) break;				/* Check if the card is SDC */
 531:FATFS/Target/user_diskio_spi.c **** 		if (USER_SPI_ioctl(drv, MMC_GET_CSD, csd)) break;	/* Get CSD */
 532:FATFS/Target/user_diskio_spi.c **** 		if (!(csd[0] >> 6) && !(csd[10] & 0x40)) break;	/* Check if sector erase can be applied to the ca
 533:FATFS/Target/user_diskio_spi.c **** 		dp = buff; st = dp[0]; ed = dp[1];				/* Load sector block */
 534:FATFS/Target/user_diskio_spi.c **** 		if (!(CardType & CT_BLOCK)) {
 535:FATFS/Target/user_diskio_spi.c **** 			st *= 512; ed *= 512;
 536:FATFS/Target/user_diskio_spi.c **** 		}
 537:FATFS/Target/user_diskio_spi.c **** 		if (send_cmd(CMD32, st) == 0 && send_cmd(CMD33, ed) == 0 && send_cmd(CMD38, 0) == 0 && wait_ready
 538:FATFS/Target/user_diskio_spi.c **** 			res = RES_OK;	/* FatFs does not check result of this command */
 539:FATFS/Target/user_diskio_spi.c **** 		}
 540:FATFS/Target/user_diskio_spi.c **** 		break;
 541:FATFS/Target/user_diskio_spi.c **** 
 542:FATFS/Target/user_diskio_spi.c **** 	default:
 543:FATFS/Target/user_diskio_spi.c **** 		res = RES_PARERR;
 544:FATFS/Target/user_diskio_spi.c **** 	}
 545:FATFS/Target/user_diskio_spi.c **** 
 546:FATFS/Target/user_diskio_spi.c **** 	despiselect();
 1638              		.loc 1 546 2 is_stmt 1 view .LVU426
 1639 004a FFF7FEFF 		bl	despiselect
 1640              	.LVL181:
 547:FATFS/Target/user_diskio_spi.c **** 
 548:FATFS/Target/user_diskio_spi.c **** 	return res;
 1641              		.loc 1 548 2 view .LVU427
 1642              	.L150:
 549:FATFS/Target/user_diskio_spi.c **** }
 1643              		.loc 1 549 1 is_stmt 0 view .LVU428
 1644 004e 2046     		mov	r0, r4
 1645 0050 04B0     		add	sp, sp, #16
 1646              	.LCFI28:
 1647              		.cfi_remember_state
 1648              		.cfi_def_cfa_offset 16
 1649              		@ sp needed
 1650 0052 70BD     		pop	{r4, r5, r6, pc}
 1651              	.LVL182:
 1652              	.L181:
 1653              	.LCFI29:
 1654              		.cfi_restore_state
ARM GAS  C:\Users\Admin\AppData\Local\Temp\ccukIInD.s 			page 43


 494:FATFS/Target/user_diskio_spi.c **** 			if ((csd[0] >> 6) == 1) {	/* SDC ver 2.00 */
 1655              		.loc 1 494 35 discriminator 1 view .LVU429
 1656 0054 1021     		movs	r1, #16
 1657 0056 6846     		mov	r0, sp
 1658 0058 FFF7FEFF 		bl	rcvr_datablock
 1659              	.LVL183:
 494:FATFS/Target/user_diskio_spi.c **** 			if ((csd[0] >> 6) == 1) {	/* SDC ver 2.00 */
 1660              		.loc 1 494 32 discriminator 1 view .LVU430
 1661 005c 0028     		cmp	r0, #0
 1662 005e 00F0D080 		beq	.L169
 495:FATFS/Target/user_diskio_spi.c **** 				csize = csd[9] + ((WORD)csd[8] << 8) + ((DWORD)(csd[7] & 63) << 16) + 1;
 1663              		.loc 1 495 4 is_stmt 1 view .LVU431
 495:FATFS/Target/user_diskio_spi.c **** 				csize = csd[9] + ((WORD)csd[8] << 8) + ((DWORD)(csd[7] & 63) << 16) + 1;
 1664              		.loc 1 495 12 is_stmt 0 view .LVU432
 1665 0062 9DF80030 		ldrb	r3, [sp]	@ zero_extendqisi2
 495:FATFS/Target/user_diskio_spi.c **** 				csize = csd[9] + ((WORD)csd[8] << 8) + ((DWORD)(csd[7] & 63) << 16) + 1;
 1666              		.loc 1 495 22 view .LVU433
 1667 0066 9B09     		lsrs	r3, r3, #6
 495:FATFS/Target/user_diskio_spi.c **** 				csize = csd[9] + ((WORD)csd[8] << 8) + ((DWORD)(csd[7] & 63) << 16) + 1;
 1668              		.loc 1 495 7 view .LVU434
 1669 0068 012B     		cmp	r3, #1
 1670 006a 1FD0     		beq	.L182
 499:FATFS/Target/user_diskio_spi.c **** 				csize = (csd[8] >> 6) + ((WORD)csd[7] << 2) + ((WORD)(csd[6] & 3) << 10) + 1;
 1671              		.loc 1 499 5 is_stmt 1 view .LVU435
 499:FATFS/Target/user_diskio_spi.c **** 				csize = (csd[8] >> 6) + ((WORD)csd[7] << 2) + ((WORD)(csd[6] & 3) << 10) + 1;
 1672              		.loc 1 499 13 is_stmt 0 view .LVU436
 1673 006c 9DF80520 		ldrb	r2, [sp, #5]	@ zero_extendqisi2
 499:FATFS/Target/user_diskio_spi.c **** 				csize = (csd[8] >> 6) + ((WORD)csd[7] << 2) + ((WORD)(csd[6] & 3) << 10) + 1;
 1674              		.loc 1 499 17 view .LVU437
 1675 0070 02F00F02 		and	r2, r2, #15
 499:FATFS/Target/user_diskio_spi.c **** 				csize = (csd[8] >> 6) + ((WORD)csd[7] << 2) + ((WORD)(csd[6] & 3) << 10) + 1;
 1676              		.loc 1 499 30 view .LVU438
 1677 0074 9DF80A30 		ldrb	r3, [sp, #10]	@ zero_extendqisi2
 499:FATFS/Target/user_diskio_spi.c **** 				csize = (csd[8] >> 6) + ((WORD)csd[7] << 2) + ((WORD)(csd[6] & 3) << 10) + 1;
 1678              		.loc 1 499 23 view .LVU439
 1679 0078 02EBD312 		add	r2, r2, r3, lsr #7
 499:FATFS/Target/user_diskio_spi.c **** 				csize = (csd[8] >> 6) + ((WORD)csd[7] << 2) + ((WORD)(csd[6] & 3) << 10) + 1;
 1680              		.loc 1 499 55 view .LVU440
 1681 007c 9DF80930 		ldrb	r3, [sp, #9]	@ zero_extendqisi2
 499:FATFS/Target/user_diskio_spi.c **** 				csize = (csd[8] >> 6) + ((WORD)csd[7] << 2) + ((WORD)(csd[6] & 3) << 10) + 1;
 1682              		.loc 1 499 64 view .LVU441
 1683 0080 5B00     		lsls	r3, r3, #1
 1684 0082 03F00603 		and	r3, r3, #6
 499:FATFS/Target/user_diskio_spi.c **** 				csize = (csd[8] >> 6) + ((WORD)csd[7] << 2) + ((WORD)(csd[6] & 3) << 10) + 1;
 1685              		.loc 1 499 48 view .LVU442
 1686 0086 1A44     		add	r2, r2, r3
 1687              	.LVL184:
 500:FATFS/Target/user_diskio_spi.c **** 				*(DWORD*)buff = csize << (n - 9);
 1688              		.loc 1 500 5 is_stmt 1 view .LVU443
 500:FATFS/Target/user_diskio_spi.c **** 				*(DWORD*)buff = csize << (n - 9);
 1689              		.loc 1 500 17 is_stmt 0 view .LVU444
 1690 0088 9DF80810 		ldrb	r1, [sp, #8]	@ zero_extendqisi2
 500:FATFS/Target/user_diskio_spi.c **** 				*(DWORD*)buff = csize << (n - 9);
 1691              		.loc 1 500 39 view .LVU445
 1692 008c 9DF80730 		ldrb	r3, [sp, #7]	@ zero_extendqisi2
 500:FATFS/Target/user_diskio_spi.c **** 				*(DWORD*)buff = csize << (n - 9);
 1693              		.loc 1 500 43 view .LVU446
ARM GAS  C:\Users\Admin\AppData\Local\Temp\ccukIInD.s 			page 44


 1694 0090 9B00     		lsls	r3, r3, #2
 500:FATFS/Target/user_diskio_spi.c **** 				*(DWORD*)buff = csize << (n - 9);
 1695              		.loc 1 500 27 view .LVU447
 1696 0092 03EB9113 		add	r3, r3, r1, lsr #6
 500:FATFS/Target/user_diskio_spi.c **** 				*(DWORD*)buff = csize << (n - 9);
 1697              		.loc 1 500 62 view .LVU448
 1698 0096 9DF80610 		ldrb	r1, [sp, #6]	@ zero_extendqisi2
 500:FATFS/Target/user_diskio_spi.c **** 				*(DWORD*)buff = csize << (n - 9);
 1699              		.loc 1 500 71 view .LVU449
 1700 009a 8902     		lsls	r1, r1, #10
 1701 009c 01F44061 		and	r1, r1, #3072
 500:FATFS/Target/user_diskio_spi.c **** 				*(DWORD*)buff = csize << (n - 9);
 1702              		.loc 1 500 49 view .LVU450
 1703 00a0 0B44     		add	r3, r3, r1
 500:FATFS/Target/user_diskio_spi.c **** 				*(DWORD*)buff = csize << (n - 9);
 1704              		.loc 1 500 78 view .LVU451
 1705 00a2 0133     		adds	r3, r3, #1
 1706              	.LVL185:
 501:FATFS/Target/user_diskio_spi.c **** 			}
 1707              		.loc 1 501 5 is_stmt 1 view .LVU452
 501:FATFS/Target/user_diskio_spi.c **** 			}
 1708              		.loc 1 501 33 is_stmt 0 view .LVU453
 1709 00a4 073A     		subs	r2, r2, #7
 1710              	.LVL186:
 501:FATFS/Target/user_diskio_spi.c **** 			}
 1711              		.loc 1 501 27 view .LVU454
 1712 00a6 9340     		lsls	r3, r3, r2
 1713              	.LVL187:
 501:FATFS/Target/user_diskio_spi.c **** 			}
 1714              		.loc 1 501 19 view .LVU455
 1715 00a8 3360     		str	r3, [r6]
 1716              	.LVL188:
 501:FATFS/Target/user_diskio_spi.c **** 			}
 1717              		.loc 1 501 19 view .LVU456
 1718 00aa CEE7     		b	.L151
 1719              	.LVL189:
 1720              	.L182:
 496:FATFS/Target/user_diskio_spi.c **** 				*(DWORD*)buff = csize << 10;
 1721              		.loc 1 496 5 is_stmt 1 view .LVU457
 496:FATFS/Target/user_diskio_spi.c **** 				*(DWORD*)buff = csize << 10;
 1722              		.loc 1 496 16 is_stmt 0 view .LVU458
 1723 00ac 9DF80930 		ldrb	r3, [sp, #9]	@ zero_extendqisi2
 496:FATFS/Target/user_diskio_spi.c **** 				*(DWORD*)buff = csize << 10;
 1724              		.loc 1 496 32 view .LVU459
 1725 00b0 9DF80820 		ldrb	r2, [sp, #8]	@ zero_extendqisi2
 496:FATFS/Target/user_diskio_spi.c **** 				*(DWORD*)buff = csize << 10;
 1726              		.loc 1 496 20 view .LVU460
 1727 00b4 03EB0223 		add	r3, r3, r2, lsl #8
 496:FATFS/Target/user_diskio_spi.c **** 				*(DWORD*)buff = csize << 10;
 1728              		.loc 1 496 56 view .LVU461
 1729 00b8 9DF80720 		ldrb	r2, [sp, #7]	@ zero_extendqisi2
 496:FATFS/Target/user_diskio_spi.c **** 				*(DWORD*)buff = csize << 10;
 1730              		.loc 1 496 66 view .LVU462
 1731 00bc 1204     		lsls	r2, r2, #16
 1732 00be 02F47C12 		and	r2, r2, #4128768
 496:FATFS/Target/user_diskio_spi.c **** 				*(DWORD*)buff = csize << 10;
 1733              		.loc 1 496 42 view .LVU463
ARM GAS  C:\Users\Admin\AppData\Local\Temp\ccukIInD.s 			page 45


 1734 00c2 1344     		add	r3, r3, r2
 496:FATFS/Target/user_diskio_spi.c **** 				*(DWORD*)buff = csize << 10;
 1735              		.loc 1 496 11 view .LVU464
 1736 00c4 0133     		adds	r3, r3, #1
 1737              	.LVL190:
 497:FATFS/Target/user_diskio_spi.c **** 			} else {					/* SDC ver 1.XX or MMC ver 3 */
 1738              		.loc 1 497 5 is_stmt 1 view .LVU465
 497:FATFS/Target/user_diskio_spi.c **** 			} else {					/* SDC ver 1.XX or MMC ver 3 */
 1739              		.loc 1 497 27 is_stmt 0 view .LVU466
 1740 00c6 9B02     		lsls	r3, r3, #10
 1741              	.LVL191:
 497:FATFS/Target/user_diskio_spi.c **** 			} else {					/* SDC ver 1.XX or MMC ver 3 */
 1742              		.loc 1 497 19 view .LVU467
 1743 00c8 3360     		str	r3, [r6]
 1744              	.LVL192:
 497:FATFS/Target/user_diskio_spi.c **** 			} else {					/* SDC ver 1.XX or MMC ver 3 */
 1745              		.loc 1 497 19 view .LVU468
 1746 00ca BEE7     		b	.L151
 1747              	.LVL193:
 1748              	.L154:
 508:FATFS/Target/user_diskio_spi.c **** 			if (send_cmd(ACMD13, 0) == 0) {	/* Read SD status */
 1749              		.loc 1 508 3 is_stmt 1 view .LVU469
 508:FATFS/Target/user_diskio_spi.c **** 			if (send_cmd(ACMD13, 0) == 0) {	/* Read SD status */
 1750              		.loc 1 508 16 is_stmt 0 view .LVU470
 1751 00cc 544B     		ldr	r3, .L189+4
 1752 00ce 1B78     		ldrb	r3, [r3]	@ zero_extendqisi2
 508:FATFS/Target/user_diskio_spi.c **** 			if (send_cmd(ACMD13, 0) == 0) {	/* Read SD status */
 1753              		.loc 1 508 6 view .LVU471
 1754 00d0 13F0040F 		tst	r3, #4
 1755 00d4 20D0     		beq	.L158
 509:FATFS/Target/user_diskio_spi.c **** 				xchg_spi(0xFF);
 1756              		.loc 1 509 4 is_stmt 1 view .LVU472
 509:FATFS/Target/user_diskio_spi.c **** 				xchg_spi(0xFF);
 1757              		.loc 1 509 8 is_stmt 0 view .LVU473
 1758 00d6 0021     		movs	r1, #0
 1759              	.LVL194:
 509:FATFS/Target/user_diskio_spi.c **** 				xchg_spi(0xFF);
 1760              		.loc 1 509 8 view .LVU474
 1761 00d8 8D20     		movs	r0, #141
 1762              	.LVL195:
 509:FATFS/Target/user_diskio_spi.c **** 				xchg_spi(0xFF);
 1763              		.loc 1 509 8 view .LVU475
 1764 00da FFF7FEFF 		bl	send_cmd
 1765              	.LVL196:
 509:FATFS/Target/user_diskio_spi.c **** 				xchg_spi(0xFF);
 1766              		.loc 1 509 7 view .LVU476
 1767 00de 08B1     		cbz	r0, .L183
 486:FATFS/Target/user_diskio_spi.c **** 
 1768              		.loc 1 486 6 view .LVU477
 1769 00e0 0124     		movs	r4, #1
 1770 00e2 B2E7     		b	.L151
 1771              	.L183:
 510:FATFS/Target/user_diskio_spi.c **** 				if (rcvr_datablock(csd, 16)) {				/* Read partial block */
 1772              		.loc 1 510 5 is_stmt 1 view .LVU478
 1773 00e4 FF20     		movs	r0, #255
 1774 00e6 FFF7FEFF 		bl	xchg_spi
 1775              	.LVL197:
ARM GAS  C:\Users\Admin\AppData\Local\Temp\ccukIInD.s 			page 46


 511:FATFS/Target/user_diskio_spi.c **** 					for (n = 64 - 16; n; n--) xchg_spi(0xFF);	/* Purge trailing data */
 1776              		.loc 1 511 5 view .LVU479
 511:FATFS/Target/user_diskio_spi.c **** 					for (n = 64 - 16; n; n--) xchg_spi(0xFF);	/* Purge trailing data */
 1777              		.loc 1 511 9 is_stmt 0 view .LVU480
 1778 00ea 1021     		movs	r1, #16
 1779 00ec 6846     		mov	r0, sp
 1780 00ee FFF7FEFF 		bl	rcvr_datablock
 1781              	.LVL198:
 511:FATFS/Target/user_diskio_spi.c **** 					for (n = 64 - 16; n; n--) xchg_spi(0xFF);	/* Purge trailing data */
 1782              		.loc 1 511 8 view .LVU481
 1783 00f2 78B9     		cbnz	r0, .L171
 486:FATFS/Target/user_diskio_spi.c **** 
 1784              		.loc 1 486 6 view .LVU482
 1785 00f4 0124     		movs	r4, #1
 1786 00f6 A8E7     		b	.L151
 1787              	.LVL199:
 1788              	.L160:
 512:FATFS/Target/user_diskio_spi.c **** 					*(DWORD*)buff = 16UL << (csd[10] >> 4);
 1789              		.loc 1 512 32 is_stmt 1 discriminator 3 view .LVU483
 1790 00f8 FF20     		movs	r0, #255
 1791 00fa FFF7FEFF 		bl	xchg_spi
 1792              	.LVL200:
 512:FATFS/Target/user_diskio_spi.c **** 					*(DWORD*)buff = 16UL << (csd[10] >> 4);
 1793              		.loc 1 512 27 discriminator 3 view .LVU484
 512:FATFS/Target/user_diskio_spi.c **** 					*(DWORD*)buff = 16UL << (csd[10] >> 4);
 1794              		.loc 1 512 28 is_stmt 0 discriminator 3 view .LVU485
 1795 00fe 013C     		subs	r4, r4, #1
 1796              	.LVL201:
 512:FATFS/Target/user_diskio_spi.c **** 					*(DWORD*)buff = 16UL << (csd[10] >> 4);
 1797              		.loc 1 512 28 discriminator 3 view .LVU486
 1798 0100 E4B2     		uxtb	r4, r4
 1799              	.LVL202:
 1800              	.L159:
 512:FATFS/Target/user_diskio_spi.c **** 					*(DWORD*)buff = 16UL << (csd[10] >> 4);
 1801              		.loc 1 512 24 is_stmt 1 discriminator 1 view .LVU487
 512:FATFS/Target/user_diskio_spi.c **** 					*(DWORD*)buff = 16UL << (csd[10] >> 4);
 1802              		.loc 1 512 6 is_stmt 0 discriminator 1 view .LVU488
 1803 0102 002C     		cmp	r4, #0
 1804 0104 F8D1     		bne	.L160
 513:FATFS/Target/user_diskio_spi.c **** 					res = RES_OK;
 1805              		.loc 1 513 6 is_stmt 1 view .LVU489
 513:FATFS/Target/user_diskio_spi.c **** 					res = RES_OK;
 1806              		.loc 1 513 34 is_stmt 0 view .LVU490
 1807 0106 9DF80A30 		ldrb	r3, [sp, #10]	@ zero_extendqisi2
 513:FATFS/Target/user_diskio_spi.c **** 					res = RES_OK;
 1808              		.loc 1 513 39 view .LVU491
 1809 010a 1A09     		lsrs	r2, r3, #4
 513:FATFS/Target/user_diskio_spi.c **** 					res = RES_OK;
 1810              		.loc 1 513 27 view .LVU492
 1811 010c 1023     		movs	r3, #16
 1812 010e 9340     		lsls	r3, r3, r2
 513:FATFS/Target/user_diskio_spi.c **** 					res = RES_OK;
 1813              		.loc 1 513 20 view .LVU493
 1814 0110 3360     		str	r3, [r6]
 514:FATFS/Target/user_diskio_spi.c **** 				}
 1815              		.loc 1 514 6 is_stmt 1 view .LVU494
 1816              	.LVL203:
ARM GAS  C:\Users\Admin\AppData\Local\Temp\ccukIInD.s 			page 47


 514:FATFS/Target/user_diskio_spi.c **** 				}
 1817              		.loc 1 514 6 is_stmt 0 view .LVU495
 1818 0112 9AE7     		b	.L151
 1819              	.LVL204:
 1820              	.L171:
 512:FATFS/Target/user_diskio_spi.c **** 					*(DWORD*)buff = 16UL << (csd[10] >> 4);
 1821              		.loc 1 512 13 view .LVU496
 1822 0114 3024     		movs	r4, #48
 1823 0116 F4E7     		b	.L159
 1824              	.LVL205:
 1825              	.L158:
 518:FATFS/Target/user_diskio_spi.c **** 				if (CardType & CT_SD1) {	/* SDC ver 1.XX */
 1826              		.loc 1 518 4 is_stmt 1 view .LVU497
 518:FATFS/Target/user_diskio_spi.c **** 				if (CardType & CT_SD1) {	/* SDC ver 1.XX */
 1827              		.loc 1 518 9 is_stmt 0 view .LVU498
 1828 0118 0021     		movs	r1, #0
 1829              	.LVL206:
 518:FATFS/Target/user_diskio_spi.c **** 				if (CardType & CT_SD1) {	/* SDC ver 1.XX */
 1830              		.loc 1 518 9 view .LVU499
 1831 011a 0920     		movs	r0, #9
 1832              	.LVL207:
 518:FATFS/Target/user_diskio_spi.c **** 				if (CardType & CT_SD1) {	/* SDC ver 1.XX */
 1833              		.loc 1 518 9 view .LVU500
 1834 011c FFF7FEFF 		bl	send_cmd
 1835              	.LVL208:
 518:FATFS/Target/user_diskio_spi.c **** 				if (CardType & CT_SD1) {	/* SDC ver 1.XX */
 1836              		.loc 1 518 7 view .LVU501
 1837 0120 0546     		mov	r5, r0
 1838 0122 08B1     		cbz	r0, .L184
 486:FATFS/Target/user_diskio_spi.c **** 
 1839              		.loc 1 486 6 view .LVU502
 1840 0124 0124     		movs	r4, #1
 1841 0126 90E7     		b	.L151
 1842              	.L184:
 518:FATFS/Target/user_diskio_spi.c **** 				if (CardType & CT_SD1) {	/* SDC ver 1.XX */
 1843              		.loc 1 518 36 discriminator 1 view .LVU503
 1844 0128 1021     		movs	r1, #16
 1845 012a 6846     		mov	r0, sp
 1846 012c FFF7FEFF 		bl	rcvr_datablock
 1847              	.LVL209:
 518:FATFS/Target/user_diskio_spi.c **** 				if (CardType & CT_SD1) {	/* SDC ver 1.XX */
 1848              		.loc 1 518 33 discriminator 1 view .LVU504
 1849 0130 0028     		cmp	r0, #0
 1850 0132 68D0     		beq	.L173
 519:FATFS/Target/user_diskio_spi.c **** 					*(DWORD*)buff = (((csd[10] & 63) << 1) + ((WORD)(csd[11] & 128) >> 7) + 1) << ((csd[13] >> 6) 
 1851              		.loc 1 519 5 is_stmt 1 view .LVU505
 519:FATFS/Target/user_diskio_spi.c **** 					*(DWORD*)buff = (((csd[10] & 63) << 1) + ((WORD)(csd[11] & 128) >> 7) + 1) << ((csd[13] >> 6) 
 1852              		.loc 1 519 18 is_stmt 0 view .LVU506
 1853 0134 3A4B     		ldr	r3, .L189+4
 1854 0136 1C78     		ldrb	r4, [r3]	@ zero_extendqisi2
 519:FATFS/Target/user_diskio_spi.c **** 					*(DWORD*)buff = (((csd[10] & 63) << 1) + ((WORD)(csd[11] & 128) >> 7) + 1) << ((csd[13] >> 6) 
 1855              		.loc 1 519 8 view .LVU507
 1856 0138 14F00204 		ands	r4, r4, #2
 1857 013c 11D0     		beq	.L161
 520:FATFS/Target/user_diskio_spi.c **** 				} else {					/* MMC */
 1858              		.loc 1 520 6 is_stmt 1 view .LVU508
 520:FATFS/Target/user_diskio_spi.c **** 				} else {					/* MMC */
ARM GAS  C:\Users\Admin\AppData\Local\Temp\ccukIInD.s 			page 48


 1859              		.loc 1 520 28 is_stmt 0 view .LVU509
 1860 013e 9DF80A30 		ldrb	r3, [sp, #10]	@ zero_extendqisi2
 520:FATFS/Target/user_diskio_spi.c **** 				} else {					/* MMC */
 1861              		.loc 1 520 39 view .LVU510
 1862 0142 5B00     		lsls	r3, r3, #1
 1863 0144 03F07E03 		and	r3, r3, #126
 520:FATFS/Target/user_diskio_spi.c **** 				} else {					/* MMC */
 1864              		.loc 1 520 58 view .LVU511
 1865 0148 9DF80B20 		ldrb	r2, [sp, #11]	@ zero_extendqisi2
 520:FATFS/Target/user_diskio_spi.c **** 				} else {					/* MMC */
 1866              		.loc 1 520 45 view .LVU512
 1867 014c 03EBD213 		add	r3, r3, r2, lsr #7
 520:FATFS/Target/user_diskio_spi.c **** 				} else {					/* MMC */
 1868              		.loc 1 520 76 view .LVU513
 1869 0150 0133     		adds	r3, r3, #1
 520:FATFS/Target/user_diskio_spi.c **** 				} else {					/* MMC */
 1870              		.loc 1 520 89 view .LVU514
 1871 0152 9DF80D20 		ldrb	r2, [sp, #13]	@ zero_extendqisi2
 520:FATFS/Target/user_diskio_spi.c **** 				} else {					/* MMC */
 1872              		.loc 1 520 94 view .LVU515
 1873 0156 9209     		lsrs	r2, r2, #6
 520:FATFS/Target/user_diskio_spi.c **** 				} else {					/* MMC */
 1874              		.loc 1 520 100 view .LVU516
 1875 0158 013A     		subs	r2, r2, #1
 520:FATFS/Target/user_diskio_spi.c **** 				} else {					/* MMC */
 1876              		.loc 1 520 81 view .LVU517
 1877 015a 9340     		lsls	r3, r3, r2
 520:FATFS/Target/user_diskio_spi.c **** 				} else {					/* MMC */
 1878              		.loc 1 520 20 view .LVU518
 1879 015c 3360     		str	r3, [r6]
 524:FATFS/Target/user_diskio_spi.c **** 			}
 1880              		.loc 1 524 9 view .LVU519
 1881 015e 2C46     		mov	r4, r5
 1882 0160 73E7     		b	.L151
 1883              	.L161:
 522:FATFS/Target/user_diskio_spi.c **** 				}
 1884              		.loc 1 522 6 is_stmt 1 view .LVU520
 522:FATFS/Target/user_diskio_spi.c **** 				}
 1885              		.loc 1 522 34 is_stmt 0 view .LVU521
 1886 0162 9DF80A30 		ldrb	r3, [sp, #10]	@ zero_extendqisi2
 522:FATFS/Target/user_diskio_spi.c **** 				}
 1887              		.loc 1 522 23 view .LVU522
 1888 0166 C3F38402 		ubfx	r2, r3, #2, #5
 522:FATFS/Target/user_diskio_spi.c **** 				}
 1889              		.loc 1 522 65 view .LVU523
 1890 016a 9DF80B10 		ldrb	r1, [sp, #11]	@ zero_extendqisi2
 522:FATFS/Target/user_diskio_spi.c **** 				}
 1891              		.loc 1 522 75 view .LVU524
 1892 016e CB00     		lsls	r3, r1, #3
 1893 0170 03F01803 		and	r3, r3, #24
 522:FATFS/Target/user_diskio_spi.c **** 				}
 1894              		.loc 1 522 81 view .LVU525
 1895 0174 03EB5113 		add	r3, r3, r1, lsr #5
 522:FATFS/Target/user_diskio_spi.c **** 				}
 1896              		.loc 1 522 106 view .LVU526
 1897 0178 0133     		adds	r3, r3, #1
 522:FATFS/Target/user_diskio_spi.c **** 				}
ARM GAS  C:\Users\Admin\AppData\Local\Temp\ccukIInD.s 			page 49


 1898              		.loc 1 522 57 view .LVU527
 1899 017a 02FB0333 		mla	r3, r2, r3, r3
 522:FATFS/Target/user_diskio_spi.c **** 				}
 1900              		.loc 1 522 20 view .LVU528
 1901 017e 3360     		str	r3, [r6]
 1902 0180 63E7     		b	.L151
 1903              	.LVL210:
 1904              	.L152:
 530:FATFS/Target/user_diskio_spi.c **** 		if (USER_SPI_ioctl(drv, MMC_GET_CSD, csd)) break;	/* Get CSD */
 1905              		.loc 1 530 3 is_stmt 1 view .LVU529
 530:FATFS/Target/user_diskio_spi.c **** 		if (USER_SPI_ioctl(drv, MMC_GET_CSD, csd)) break;	/* Get CSD */
 1906              		.loc 1 530 18 is_stmt 0 view .LVU530
 1907 0182 274B     		ldr	r3, .L189+4
 1908 0184 1B78     		ldrb	r3, [r3]	@ zero_extendqisi2
 530:FATFS/Target/user_diskio_spi.c **** 		if (USER_SPI_ioctl(drv, MMC_GET_CSD, csd)) break;	/* Get CSD */
 1909              		.loc 1 530 6 view .LVU531
 1910 0186 13F0060F 		tst	r3, #6
 1911 018a 01D1     		bne	.L185
 486:FATFS/Target/user_diskio_spi.c **** 
 1912              		.loc 1 486 6 view .LVU532
 1913 018c 0124     		movs	r4, #1
 1914 018e 5CE7     		b	.L151
 1915              	.L185:
 531:FATFS/Target/user_diskio_spi.c **** 		if (!(csd[0] >> 6) && !(csd[10] & 0x40)) break;	/* Check if sector erase can be applied to the ca
 1916              		.loc 1 531 3 is_stmt 1 view .LVU533
 531:FATFS/Target/user_diskio_spi.c **** 		if (!(csd[0] >> 6) && !(csd[10] & 0x40)) break;	/* Check if sector erase can be applied to the ca
 1917              		.loc 1 531 7 is_stmt 0 view .LVU534
 1918 0190 6A46     		mov	r2, sp
 1919              	.LVL211:
 531:FATFS/Target/user_diskio_spi.c **** 		if (!(csd[0] >> 6) && !(csd[10] & 0x40)) break;	/* Check if sector erase can be applied to the ca
 1920              		.loc 1 531 7 view .LVU535
 1921 0192 0B21     		movs	r1, #11
 1922              	.LVL212:
 531:FATFS/Target/user_diskio_spi.c **** 		if (!(csd[0] >> 6) && !(csd[10] & 0x40)) break;	/* Check if sector erase can be applied to the ca
 1923              		.loc 1 531 7 view .LVU536
 1924 0194 FFF7FEFF 		bl	USER_SPI_ioctl
 1925              	.LVL213:
 531:FATFS/Target/user_diskio_spi.c **** 		if (!(csd[0] >> 6) && !(csd[10] & 0x40)) break;	/* Check if sector erase can be applied to the ca
 1926              		.loc 1 531 6 view .LVU537
 1927 0198 B8BB     		cbnz	r0, .L175
 532:FATFS/Target/user_diskio_spi.c **** 		dp = buff; st = dp[0]; ed = dp[1];				/* Load sector block */
 1928              		.loc 1 532 3 is_stmt 1 view .LVU538
 532:FATFS/Target/user_diskio_spi.c **** 		dp = buff; st = dp[0]; ed = dp[1];				/* Load sector block */
 1929              		.loc 1 532 12 is_stmt 0 view .LVU539
 1930 019a 9DF80030 		ldrb	r3, [sp]	@ zero_extendqisi2
 532:FATFS/Target/user_diskio_spi.c **** 		dp = buff; st = dp[0]; ed = dp[1];				/* Load sector block */
 1931              		.loc 1 532 6 view .LVU540
 1932 019e 9B09     		lsrs	r3, r3, #6
 1933 01a0 04D1     		bne	.L162
 532:FATFS/Target/user_diskio_spi.c **** 		dp = buff; st = dp[0]; ed = dp[1];				/* Load sector block */
 1934              		.loc 1 532 30 discriminator 1 view .LVU541
 1935 01a2 9DF80A30 		ldrb	r3, [sp, #10]	@ zero_extendqisi2
 532:FATFS/Target/user_diskio_spi.c **** 		dp = buff; st = dp[0]; ed = dp[1];				/* Load sector block */
 1936              		.loc 1 532 22 discriminator 1 view .LVU542
 1937 01a6 13F0400F 		tst	r3, #64
 1938 01aa 30D0     		beq	.L176
 1939              	.L162:
ARM GAS  C:\Users\Admin\AppData\Local\Temp\ccukIInD.s 			page 50


 533:FATFS/Target/user_diskio_spi.c **** 		if (!(CardType & CT_BLOCK)) {
 1940              		.loc 1 533 3 is_stmt 1 view .LVU543
 1941              	.LVL214:
 533:FATFS/Target/user_diskio_spi.c **** 		if (!(CardType & CT_BLOCK)) {
 1942              		.loc 1 533 14 view .LVU544
 533:FATFS/Target/user_diskio_spi.c **** 		if (!(CardType & CT_BLOCK)) {
 1943              		.loc 1 533 17 is_stmt 0 view .LVU545
 1944 01ac 3168     		ldr	r1, [r6]
 1945              	.LVL215:
 533:FATFS/Target/user_diskio_spi.c **** 		if (!(CardType & CT_BLOCK)) {
 1946              		.loc 1 533 26 is_stmt 1 view .LVU546
 533:FATFS/Target/user_diskio_spi.c **** 		if (!(CardType & CT_BLOCK)) {
 1947              		.loc 1 533 29 is_stmt 0 view .LVU547
 1948 01ae 7468     		ldr	r4, [r6, #4]
 1949              	.LVL216:
 534:FATFS/Target/user_diskio_spi.c **** 			st *= 512; ed *= 512;
 1950              		.loc 1 534 3 is_stmt 1 view .LVU548
 534:FATFS/Target/user_diskio_spi.c **** 			st *= 512; ed *= 512;
 1951              		.loc 1 534 18 is_stmt 0 view .LVU549
 1952 01b0 1B4B     		ldr	r3, .L189+4
 1953 01b2 1B78     		ldrb	r3, [r3]	@ zero_extendqisi2
 534:FATFS/Target/user_diskio_spi.c **** 			st *= 512; ed *= 512;
 1954              		.loc 1 534 6 view .LVU550
 1955 01b4 13F0080F 		tst	r3, #8
 1956 01b8 01D1     		bne	.L163
 535:FATFS/Target/user_diskio_spi.c **** 		}
 1957              		.loc 1 535 4 is_stmt 1 view .LVU551
 535:FATFS/Target/user_diskio_spi.c **** 		}
 1958              		.loc 1 535 7 is_stmt 0 view .LVU552
 1959 01ba 4902     		lsls	r1, r1, #9
 1960              	.LVL217:
 535:FATFS/Target/user_diskio_spi.c **** 		}
 1961              		.loc 1 535 15 is_stmt 1 view .LVU553
 535:FATFS/Target/user_diskio_spi.c **** 		}
 1962              		.loc 1 535 18 is_stmt 0 view .LVU554
 1963 01bc 6402     		lsls	r4, r4, #9
 1964              	.LVL218:
 1965              	.L163:
 537:FATFS/Target/user_diskio_spi.c **** 			res = RES_OK;	/* FatFs does not check result of this command */
 1966              		.loc 1 537 3 is_stmt 1 view .LVU555
 537:FATFS/Target/user_diskio_spi.c **** 			res = RES_OK;	/* FatFs does not check result of this command */
 1967              		.loc 1 537 7 is_stmt 0 view .LVU556
 1968 01be 2020     		movs	r0, #32
 1969 01c0 FFF7FEFF 		bl	send_cmd
 1970              	.LVL219:
 537:FATFS/Target/user_diskio_spi.c **** 			res = RES_OK;	/* FatFs does not check result of this command */
 1971              		.loc 1 537 6 view .LVU557
 1972 01c4 08B1     		cbz	r0, .L186
 486:FATFS/Target/user_diskio_spi.c **** 
 1973              		.loc 1 486 6 view .LVU558
 1974 01c6 0124     		movs	r4, #1
 1975              	.LVL220:
 486:FATFS/Target/user_diskio_spi.c **** 
 1976              		.loc 1 486 6 view .LVU559
 1977 01c8 3FE7     		b	.L151
 1978              	.LVL221:
 1979              	.L186:
ARM GAS  C:\Users\Admin\AppData\Local\Temp\ccukIInD.s 			page 51


 537:FATFS/Target/user_diskio_spi.c **** 			res = RES_OK;	/* FatFs does not check result of this command */
 1980              		.loc 1 537 35 discriminator 1 view .LVU560
 1981 01ca 2146     		mov	r1, r4
 1982 01cc 2120     		movs	r0, #33
 1983 01ce FFF7FEFF 		bl	send_cmd
 1984              	.LVL222:
 537:FATFS/Target/user_diskio_spi.c **** 			res = RES_OK;	/* FatFs does not check result of this command */
 1985              		.loc 1 537 32 discriminator 1 view .LVU561
 1986 01d2 08B1     		cbz	r0, .L187
 486:FATFS/Target/user_diskio_spi.c **** 
 1987              		.loc 1 486 6 view .LVU562
 1988 01d4 0124     		movs	r4, #1
 1989              	.LVL223:
 486:FATFS/Target/user_diskio_spi.c **** 
 1990              		.loc 1 486 6 view .LVU563
 1991 01d6 38E7     		b	.L151
 1992              	.LVL224:
 1993              	.L187:
 537:FATFS/Target/user_diskio_spi.c **** 			res = RES_OK;	/* FatFs does not check result of this command */
 1994              		.loc 1 537 63 discriminator 2 view .LVU564
 1995 01d8 0021     		movs	r1, #0
 1996 01da 2620     		movs	r0, #38
 1997 01dc FFF7FEFF 		bl	send_cmd
 1998              	.LVL225:
 537:FATFS/Target/user_diskio_spi.c **** 			res = RES_OK;	/* FatFs does not check result of this command */
 1999              		.loc 1 537 60 discriminator 2 view .LVU565
 2000 01e0 0446     		mov	r4, r0
 2001              	.LVL226:
 537:FATFS/Target/user_diskio_spi.c **** 			res = RES_OK;	/* FatFs does not check result of this command */
 2002              		.loc 1 537 60 discriminator 2 view .LVU566
 2003 01e2 08B1     		cbz	r0, .L188
 486:FATFS/Target/user_diskio_spi.c **** 
 2004              		.loc 1 486 6 view .LVU567
 2005 01e4 0124     		movs	r4, #1
 2006 01e6 30E7     		b	.L151
 2007              	.L188:
 537:FATFS/Target/user_diskio_spi.c **** 			res = RES_OK;	/* FatFs does not check result of this command */
 2008              		.loc 1 537 90 discriminator 3 view .LVU568
 2009 01e8 47F23050 		movw	r0, #30000
 2010 01ec FFF7FEFF 		bl	wait_ready
 2011              	.LVL227:
 537:FATFS/Target/user_diskio_spi.c **** 			res = RES_OK;	/* FatFs does not check result of this command */
 2012              		.loc 1 537 87 discriminator 3 view .LVU569
 2013 01f0 0028     		cmp	r0, #0
 2014 01f2 7FF42AAF 		bne	.L151
 486:FATFS/Target/user_diskio_spi.c **** 
 2015              		.loc 1 486 6 view .LVU570
 2016 01f6 0124     		movs	r4, #1
 2017 01f8 27E7     		b	.L151
 2018              	.LVL228:
 2019              	.L166:
 484:FATFS/Target/user_diskio_spi.c **** 
 2020              		.loc 1 484 5 view .LVU571
 2021 01fa 0424     		movs	r4, #4
 2022 01fc 25E7     		b	.L151
 2023              	.LVL229:
 2024              	.L167:
ARM GAS  C:\Users\Admin\AppData\Local\Temp\ccukIInD.s 			page 52


 490:FATFS/Target/user_diskio_spi.c **** 		break;
 2025              		.loc 1 490 24 view .LVU572
 2026 01fe 2C46     		mov	r4, r5
 2027 0200 23E7     		b	.L151
 2028              	.L169:
 486:FATFS/Target/user_diskio_spi.c **** 
 2029              		.loc 1 486 6 view .LVU573
 2030 0202 2C46     		mov	r4, r5
 2031 0204 21E7     		b	.L151
 2032              	.L173:
 2033 0206 0124     		movs	r4, #1
 2034 0208 1FE7     		b	.L151
 2035              	.L175:
 2036 020a 0124     		movs	r4, #1
 2037 020c 1DE7     		b	.L151
 2038              	.L176:
 2039 020e 0124     		movs	r4, #1
 2040 0210 1BE7     		b	.L151
 2041              	.LVL230:
 2042              	.L164:
 483:FATFS/Target/user_diskio_spi.c **** 	if (Stat & STA_NOINIT) return RES_NOTRDY;	/* Check if drive is ready */
 2043              		.loc 1 483 18 view .LVU574
 2044 0212 0424     		movs	r4, #4
 2045 0214 1BE7     		b	.L150
 2046              	.L165:
 484:FATFS/Target/user_diskio_spi.c **** 
 2047              		.loc 1 484 32 view .LVU575
 2048 0216 0324     		movs	r4, #3
 2049 0218 19E7     		b	.L150
 2050              	.L190:
 2051 021a 00BF     		.align	2
 2052              	.L189:
 2053 021c 00000000 		.word	.LANCHOR0
 2054 0220 00000000 		.word	.LANCHOR1
 2055              		.cfi_endproc
 2056              	.LFE147:
 2058              		.comm	spiTimerTickDelay,4,4
 2059              		.comm	spiTimerTickStart,4,4
 2060              		.section	.bss.CardType,"aw",%nobits
 2061              		.set	.LANCHOR1,. + 0
 2064              	CardType:
 2065 0000 00       		.space	1
 2066              		.section	.data.Stat,"aw"
 2067              		.set	.LANCHOR0,. + 0
 2070              	Stat:
 2071 0000 01       		.byte	1
 2072              		.text
 2073              	.Letext0:
 2074              		.file 2 "c:\\ncs\\v1.7.1\\toolchain\\opt\\arm-none-eabi\\include\\machine\\_default_types.h"
 2075              		.file 3 "c:\\ncs\\v1.7.1\\toolchain\\opt\\arm-none-eabi\\include\\sys\\_stdint.h"
 2076              		.file 4 "Drivers/CMSIS/Include/core_cm4.h"
 2077              		.file 5 "Drivers/CMSIS/Device/ST/STM32L4xx/Include/system_stm32l4xx.h"
 2078              		.file 6 "Drivers/CMSIS/Device/ST/STM32L4xx/Include/stm32l412xx.h"
 2079              		.file 7 "Drivers/STM32L4xx_HAL_Driver/Inc/stm32l4xx_hal_def.h"
 2080              		.file 8 "Drivers/STM32L4xx_HAL_Driver/Inc/stm32l4xx_hal_gpio.h"
 2081              		.file 9 "Drivers/STM32L4xx_HAL_Driver/Inc/stm32l4xx_hal_dma.h"
 2082              		.file 10 "Drivers/STM32L4xx_HAL_Driver/Inc/stm32l4xx_hal_flash.h"
ARM GAS  C:\Users\Admin\AppData\Local\Temp\ccukIInD.s 			page 53


 2083              		.file 11 "Drivers/STM32L4xx_HAL_Driver/Inc/stm32l4xx_hal_spi.h"
 2084              		.file 12 "Drivers/STM32L4xx_HAL_Driver/Inc/stm32l4xx_hal.h"
 2085              		.file 13 "Middlewares/Third_Party/FatFs/src/integer.h"
 2086              		.file 14 "Middlewares/Third_Party/FatFs/src/diskio.h"
 2087              		.file 15 "c:\\ncs\\v1.7.1\\toolchain\\opt\\arm-none-eabi\\include\\sys\\lock.h"
 2088              		.file 16 "c:\\ncs\\v1.7.1\\toolchain\\opt\\arm-none-eabi\\include\\sys\\_types.h"
 2089              		.file 17 "c:\\ncs\\v1.7.1\\toolchain\\opt\\lib\\gcc\\arm-none-eabi\\9.2.1\\include\\stddef.h"
 2090              		.file 18 "c:\\ncs\\v1.7.1\\toolchain\\opt\\arm-none-eabi\\include\\sys\\reent.h"
 2091              		.file 19 "c:\\ncs\\v1.7.1\\toolchain\\opt\\arm-none-eabi\\include\\stdlib.h"
ARM GAS  C:\Users\Admin\AppData\Local\Temp\ccukIInD.s 			page 54

